
kernel.elf:     file format elf64-littleaarch64


Disassembly of section .init:

0000000000080000 <_start>:
   80000:	1000000c 	adr	x12, 80000 <_start>
   80004:	58000fa1 	ldr	x1, 801f8 <secondary_spin+0x28>
   80008:	b900002c 	str	w12, [x1]
   8000c:	58000fa0 	ldr	x0, 80200 <secondary_spin+0x30>
   80010:	58000fc1 	ldr	x1, 80208 <secondary_spin+0x38>
   80014:	b9000020 	str	w0, [x1]
   80018:	58000fc0 	ldr	x0, 80210 <secondary_spin+0x40>
   8001c:	58000fe1 	ldr	x1, 80218 <secondary_spin+0x48>
   80020:	b9000020 	str	w0, [x1]
   80024:	d2800020 	mov	x0, #0x1                   	// #1
   80028:	58000fc1 	ldr	x1, 80220 <secondary_spin+0x50>
   8002c:	b9000020 	str	w0, [x1]
   80030:	d2801300 	mov	x0, #0x98                  	// #152
   80034:	58000fa1 	ldr	x1, 80228 <secondary_spin+0x58>
   80038:	b9000020 	str	w0, [x1]
   8003c:	d5380000 	mrs	x0, midr_el1
   80040:	58000f81 	ldr	x1, 80230 <secondary_spin+0x60>
   80044:	b9000020 	str	w0, [x1]
   80048:	d53ce100 	mrs	x0, cnthctl_el2
   8004c:	b2400400 	orr	x0, x0, #0x3
   80050:	d51ce100 	msr	cnthctl_el2, x0
   80054:	d51ce07f 	msr	cntvoff_el2, xzr
   80058:	d538e100 	mrs	x0, cntkctl_el1
   8005c:	b2400400 	orr	x0, x0, #0x3
   80060:	d518e100 	msr	cntkctl_el1, x0

0000000000080064 <multicore_start>:
   80064:	58000ea2 	ldr	x2, 80238 <secondary_spin+0x68>
   80068:	58000ec3 	ldr	x3, 80240 <secondary_spin+0x70>
   8006c:	58000ee4 	ldr	x4, 80248 <secondary_spin+0x78>
   80070:	d53800a6 	mrs	x6, mpidr_el1
   80074:	f24004c6 	ands	x6, x6, #0x3
   80078:	540001c0 	b.eq	800b0 <set_stacks>  // b.none
   8007c:	58000ea2 	ldr	x2, 80250 <secondary_spin+0x80>
   80080:	58000ec3 	ldr	x3, 80258 <secondary_spin+0x88>
   80084:	58000ee4 	ldr	x4, 80260 <secondary_spin+0x90>
   80088:	f10004df 	cmp	x6, #0x1
   8008c:	54000120 	b.eq	800b0 <set_stacks>  // b.none
   80090:	58000ec2 	ldr	x2, 80268 <secondary_spin+0x98>
   80094:	58000ee3 	ldr	x3, 80270 <secondary_spin+0xa0>
   80098:	58000f04 	ldr	x4, 80278 <secondary_spin+0xa8>
   8009c:	f10008df 	cmp	x6, #0x2
   800a0:	54000080 	b.eq	800b0 <set_stacks>  // b.none
   800a4:	58000ee2 	ldr	x2, 80280 <secondary_spin+0xb0>
   800a8:	58000f03 	ldr	x3, 80288 <secondary_spin+0xb8>
   800ac:	58000f24 	ldr	x4, 80290 <secondary_spin+0xc0>

00000000000800b0 <set_stacks>:
   800b0:	9100005f 	mov	sp, x2
   800b4:	d51c4103 	msr	sp_el1, x3
   800b8:	d5184104 	msr	sp_el0, x4
   800bc:	d5380000 	mrs	x0, midr_el1
   800c0:	d53800a1 	mrs	x1, mpidr_el1
   800c4:	d51c0000 	msr	vpidr_el2, x0
   800c8:	d51c00a1 	msr	vmpidr_el2, x1
   800cc:	d2867fe0 	mov	x0, #0x33ff                	// #13311
   800d0:	d51c1140 	msr	cptr_el2, x0
   800d4:	d51c117f 	msr	hstr_el2, xzr
   800d8:	d2a00600 	mov	x0, #0x300000              	// #3145728
   800dc:	d5181040 	msr	cpacr_el1, x0
   800e0:	d2b00000 	mov	x0, #0x80000000            	// #2147483648
   800e4:	d51c1100 	msr	hcr_el2, x0
   800e8:	d2810000 	mov	x0, #0x800                 	// #2048
   800ec:	f2a61a00 	movk	x0, #0x30d0, lsl #16
   800f0:	b27e0000 	orr	x0, x0, #0x4
   800f4:	b2740000 	orr	x0, x0, #0x1000
   800f8:	d5181000 	msr	sctlr_el1, x0
   800fc:	d28078a0 	mov	x0, #0x3c5                 	// #965
   80100:	d51c4000 	msr	spsr_el2, x0
   80104:	10000060 	adr	x0, 80110 <exit_el1>
   80108:	d51c4020 	msr	elr_el2, x0
   8010c:	d69f03e0 	eret

0000000000080110 <exit_el1>:
   80110:	d53800a6 	mrs	x6, mpidr_el1
   80114:	924004c6 	and	x6, x6, #0x3
   80118:	b40000c6 	cbz	x6, 80130 <cpu0_exit_multicore_park>
   8011c:	58000821 	ldr	x1, 80220 <secondary_spin+0x50>
   80120:	b9400020 	ldr	w0, [x1]
   80124:	11000400 	add	w0, w0, #0x1
   80128:	b9000020 	str	w0, [x1]
   8012c:	14000024 	b	801bc <StartSecondarySpin>

0000000000080130 <cpu0_exit_multicore_park>:
   80130:	58000b40 	ldr	x0, 80298 <secondary_spin+0xc8>
   80134:	d518c000 	msr	vbar_el1, x0
   80138:	58000b43 	ldr	x3, 802a0 <secondary_spin+0xd0>
   8013c:	58000b60 	ldr	x0, 802a8 <secondary_spin+0xd8>
   80140:	eb03001f 	cmp	x0, x3
   80144:	54000082 	b.cs	80154 <.bss_cleared>  // b.hs, b.nlast

0000000000080148 <.bss_zero_loop>:
   80148:	b800441f 	str	wzr, [x0], #4
   8014c:	eb00007f 	cmp	x3, x0
   80150:	54ffffc8 	b.hi	80148 <.bss_zero_loop>  // b.pmore

0000000000080154 <.bss_cleared>:
   80154:	d2801c01 	mov	x1, #0xe0                  	// #224
   80158:	58000ac2 	ldr	x2, 802b0 <secondary_spin+0xe0>
   8015c:	f9000022 	str	x2, [x1]
   80160:	d503209f 	sev
   80164:	580005e3 	ldr	x3, 80220 <secondary_spin+0x50>

0000000000080168 <.WaitCore1ACK>:
   80168:	b9400061 	ldr	w1, [x3]
   8016c:	7100083f 	cmp	w1, #0x2
   80170:	54ffffc1 	b.ne	80168 <.WaitCore1ACK>  // b.any
   80174:	d2801d01 	mov	x1, #0xe8                  	// #232
   80178:	580009c2 	ldr	x2, 802b0 <secondary_spin+0xe0>
   8017c:	f9000022 	str	x2, [x1]
   80180:	d503209f 	sev
   80184:	580004e3 	ldr	x3, 80220 <secondary_spin+0x50>

0000000000080188 <.WaitCore2ACK>:
   80188:	b9400061 	ldr	w1, [x3]
   8018c:	71000c3f 	cmp	w1, #0x3
   80190:	54ffffc1 	b.ne	80188 <.WaitCore2ACK>  // b.any
   80194:	d2801e01 	mov	x1, #0xf0                  	// #240
   80198:	580008c2 	ldr	x2, 802b0 <secondary_spin+0xe0>
   8019c:	f9000022 	str	x2, [x1]
   801a0:	d503209f 	sev
   801a4:	580003e3 	ldr	x3, 80220 <secondary_spin+0x50>

00000000000801a8 <.WaitCore3ACK>:
   801a8:	b9400061 	ldr	w1, [x3]
   801ac:	7100103f 	cmp	w1, #0x4
   801b0:	54ffffc1 	b.ne	801a8 <.WaitCore3ACK>  // b.any
   801b4:	14000325 	b	80e48 <EcoMain>

00000000000801b8 <hang>:
   801b8:	14000000 	b	801b8 <hang>

00000000000801bc <StartSecondarySpin>:
   801bc:	d53800a6 	mrs	x6, mpidr_el1
   801c0:	924004c6 	and	x6, x6, #0x3
   801c4:	d2801b05 	mov	x5, #0xd8                  	// #216
   801c8:	d2800001 	mov	x1, #0x0                   	// #0
   801cc:	f82678a1 	str	x1, [x5, x6, lsl #3]

00000000000801d0 <secondary_spin>:
   801d0:	d503205f 	wfe
   801d4:	f86678a4 	ldr	x4, [x5, x6, lsl #3]
   801d8:	b4ffffc4 	cbz	x4, 801d0 <secondary_spin>
   801dc:	d2800000 	mov	x0, #0x0                   	// #0
   801e0:	f82678a0 	str	x0, [x5, x6, lsl #3]
   801e4:	d2800001 	mov	x1, #0x0                   	// #0
   801e8:	d2800002 	mov	x2, #0x0                   	// #0
   801ec:	d2800003 	mov	x3, #0x0                   	// #0
   801f0:	d63f0080 	blr	x4
   801f4:	17fffff2 	b	801bc <StartSecondarySpin>
   801f8:	0008f600 	.word	0x0008f600
   801fc:	00000000 	.word	0x00000000
   80200:	3f000000 	.word	0x3f000000
   80204:	00000000 	.word	0x00000000
   80208:	0008f5f8 	.word	0x0008f5f8
   8020c:	00000000 	.word	0x00000000
   80210:	c0000000 	.word	0xc0000000
   80214:	00000000 	.word	0x00000000
   80218:	0008f5fc 	.word	0x0008f5fc
   8021c:	00000000 	.word	0x00000000
   80220:	0008f604 	.word	0x0008f604
   80224:	00000000 	.word	0x00000000
   80228:	0008f610 	.word	0x0008f610
   8022c:	00000000 	.word	0x00000000
   80230:	0008f60c 	.word	0x0008f60c
   80234:	00000000 	.word	0x00000000
   80238:	000d07d0 	.word	0x000d07d0
   8023c:	00000000 	.word	0x00000000
   80240:	000cf7d0 	.word	0x000cf7d0
   80244:	00000000 	.word	0x00000000
   80248:	000cb7d0 	.word	0x000cb7d0
   8024c:	00000000 	.word	0x00000000
   80250:	000d1bd0 	.word	0x000d1bd0
   80254:	00000000 	.word	0x00000000
   80258:	000d0bd0 	.word	0x000d0bd0
   8025c:	00000000 	.word	0x00000000
   80260:	000d09d0 	.word	0x000d09d0
   80264:	00000000 	.word	0x00000000
   80268:	000d2fd0 	.word	0x000d2fd0
   8026c:	00000000 	.word	0x00000000
   80270:	000d1fd0 	.word	0x000d1fd0
   80274:	00000000 	.word	0x00000000
   80278:	000d1dd0 	.word	0x000d1dd0
   8027c:	00000000 	.word	0x00000000
   80280:	000d43d0 	.word	0x000d43d0
   80284:	00000000 	.word	0x00000000
   80288:	000d33d0 	.word	0x000d33d0
   8028c:	00000000 	.word	0x00000000
   80290:	000d31d0 	.word	0x000d31d0
   80294:	00000000 	.word	0x00000000
   80298:	00082000 	.word	0x00082000
   8029c:	00000000 	.word	0x00000000
   802a0:	000c9464 	.word	0x000c9464
   802a4:	00000000 	.word	0x00000000
   802a8:	00090ff0 	.word	0x00090ff0
   802ac:	00000000 	.word	0x00000000
   802b0:	00080064 	.word	0x00080064
   802b4:	00000000 	.word	0x00000000

Disassembly of section .text:

0000000000080800 <TimerHandler>:
   80800:	b0000080 	adrp	x0, 91000 <g_pIVFB>
   80804:	91004000 	add	x0, x0, #0x10
   80808:	39400000 	ldrb	w0, [x0]
   8080c:	7101701f 	cmp	w0, #0x5c
   80810:	540000c1 	b.ne	80828 <TimerHandler+0x28>  // b.any
   80814:	b0000080 	adrp	x0, 91000 <g_pIVFB>
   80818:	91004000 	add	x0, x0, #0x10
   8081c:	52800f81 	mov	w1, #0x7c                  	// #124
   80820:	39000001 	strb	w1, [x0]
   80824:	14000019 	b	80888 <TimerHandler+0x88>
   80828:	b0000080 	adrp	x0, 91000 <g_pIVFB>
   8082c:	91004000 	add	x0, x0, #0x10
   80830:	39400000 	ldrb	w0, [x0]
   80834:	7101f01f 	cmp	w0, #0x7c
   80838:	540000c1 	b.ne	80850 <TimerHandler+0x50>  // b.any
   8083c:	b0000080 	adrp	x0, 91000 <g_pIVFB>
   80840:	91004000 	add	x0, x0, #0x10
   80844:	528005e1 	mov	w1, #0x2f                  	// #47
   80848:	39000001 	strb	w1, [x0]
   8084c:	1400000f 	b	80888 <TimerHandler+0x88>
   80850:	b0000080 	adrp	x0, 91000 <g_pIVFB>
   80854:	91004000 	add	x0, x0, #0x10
   80858:	39400000 	ldrb	w0, [x0]
   8085c:	7100bc1f 	cmp	w0, #0x2f
   80860:	540000c1 	b.ne	80878 <TimerHandler+0x78>  // b.any
   80864:	b0000080 	adrp	x0, 91000 <g_pIVFB>
   80868:	91004000 	add	x0, x0, #0x10
   8086c:	528005a1 	mov	w1, #0x2d                  	// #45
   80870:	39000001 	strb	w1, [x0]
   80874:	14000005 	b	80888 <TimerHandler+0x88>
   80878:	b0000080 	adrp	x0, 91000 <g_pIVFB>
   8087c:	91004000 	add	x0, x0, #0x10
   80880:	52800b81 	mov	w1, #0x5c                  	// #92
   80884:	39000001 	strb	w1, [x0]
   80888:	d503201f 	nop
   8088c:	d65f03c0 	ret

0000000000080890 <printProgress>:
   80890:	f81f0ffe 	str	x30, [sp, #-16]!
   80894:	b0000080 	adrp	x0, 91000 <g_pIVFB>
   80898:	91004000 	add	x0, x0, #0x10
   8089c:	39400000 	ldrb	w0, [x0]
   808a0:	7101701f 	cmp	w0, #0x5c
   808a4:	540000c1 	b.ne	808bc <printProgress+0x2c>  // b.any
   808a8:	b0000080 	adrp	x0, 91000 <g_pIVFB>
   808ac:	91004000 	add	x0, x0, #0x10
   808b0:	52800f81 	mov	w1, #0x7c                  	// #124
   808b4:	39000001 	strb	w1, [x0]
   808b8:	14000019 	b	8091c <printProgress+0x8c>
   808bc:	b0000080 	adrp	x0, 91000 <g_pIVFB>
   808c0:	91004000 	add	x0, x0, #0x10
   808c4:	39400000 	ldrb	w0, [x0]
   808c8:	7101f01f 	cmp	w0, #0x7c
   808cc:	540000c1 	b.ne	808e4 <printProgress+0x54>  // b.any
   808d0:	b0000080 	adrp	x0, 91000 <g_pIVFB>
   808d4:	91004000 	add	x0, x0, #0x10
   808d8:	528005e1 	mov	w1, #0x2f                  	// #47
   808dc:	39000001 	strb	w1, [x0]
   808e0:	1400000f 	b	8091c <printProgress+0x8c>
   808e4:	b0000080 	adrp	x0, 91000 <g_pIVFB>
   808e8:	91004000 	add	x0, x0, #0x10
   808ec:	39400000 	ldrb	w0, [x0]
   808f0:	7100bc1f 	cmp	w0, #0x2f
   808f4:	540000c1 	b.ne	8090c <printProgress+0x7c>  // b.any
   808f8:	b0000080 	adrp	x0, 91000 <g_pIVFB>
   808fc:	91004000 	add	x0, x0, #0x10
   80900:	528005a1 	mov	w1, #0x2d                  	// #45
   80904:	39000001 	strb	w1, [x0]
   80908:	14000005 	b	8091c <printProgress+0x8c>
   8090c:	b0000080 	adrp	x0, 91000 <g_pIVFB>
   80910:	91004000 	add	x0, x0, #0x10
   80914:	52800b81 	mov	w1, #0x5c                  	// #92
   80918:	39000001 	strb	w1, [x0]
   8091c:	b0000080 	adrp	x0, 91000 <g_pIVFB>
   80920:	91000000 	add	x0, x0, #0x0
   80924:	f9400000 	ldr	x0, [x0]
   80928:	f9400000 	ldr	x0, [x0]
   8092c:	f9403c08 	ldr	x8, [x0, #120]
   80930:	b0000080 	adrp	x0, 91000 <g_pIVFB>
   80934:	91000000 	add	x0, x0, #0x0
   80938:	f9400009 	ldr	x9, [x0]
   8093c:	f0000060 	adrp	x0, 8f000 <_malloc_r+0x818>
   80940:	91178000 	add	x0, x0, #0x5e0
   80944:	39400001 	ldrb	w1, [x0]
   80948:	b0000080 	adrp	x0, 91000 <g_pIVFB>
   8094c:	91004000 	add	x0, x0, #0x10
   80950:	52800027 	mov	w7, #0x1                   	// #1
   80954:	aa0003e6 	mov	x6, x0
   80958:	528001e5 	mov	w5, #0xf                   	// #15
   8095c:	2a0103e4 	mov	w4, w1
   80960:	52800423 	mov	w3, #0x21                  	// #33
   80964:	52800002 	mov	w2, #0x0                   	// #0
   80968:	52800001 	mov	w1, #0x0                   	// #0
   8096c:	aa0903e0 	mov	x0, x9
   80970:	d63f0100 	blr	x8
   80974:	d503201f 	nop
   80978:	f84107fe 	ldr	x30, [sp], #16
   8097c:	d65f03c0 	ret

0000000000080980 <Task1>:
   80980:	f81d0ffe 	str	x30, [sp, #-48]!
   80984:	b0000080 	adrp	x0, 91000 <g_pIVFB>
   80988:	91002000 	add	x0, x0, #0x8
   8098c:	f9400000 	ldr	x0, [x0]
   80990:	f9400000 	ldr	x0, [x0]
   80994:	f9401401 	ldr	x1, [x0, #40]
   80998:	b0000080 	adrp	x0, 91000 <g_pIVFB>
   8099c:	91002000 	add	x0, x0, #0x8
   809a0:	f9400000 	ldr	x0, [x0]
   809a4:	d63f0020 	blr	x1
   809a8:	f90017e0 	str	x0, [sp, #40]
   809ac:	f0000060 	adrp	x0, 8f000 <_malloc_r+0x818>
   809b0:	9117a000 	add	x0, x0, #0x5e8
   809b4:	b9400000 	ldr	w0, [x0]
   809b8:	2a0003e1 	mov	w1, w0
   809bc:	d2884800 	mov	x0, #0x4240                	// #16960
   809c0:	f2a001e0 	movk	x0, #0xf, lsl #16
   809c4:	9b007c20 	mul	x0, x1, x0
   809c8:	f94017e1 	ldr	x1, [sp, #40]
   809cc:	8b000020 	add	x0, x1, x0
   809d0:	f9000fe0 	str	x0, [sp, #24]
   809d4:	f94017e0 	ldr	x0, [sp, #40]
   809d8:	f90013e0 	str	x0, [sp, #32]
   809dc:	b0000080 	adrp	x0, 91000 <g_pIVFB>
   809e0:	91000000 	add	x0, x0, #0x0
   809e4:	f9400000 	ldr	x0, [x0]
   809e8:	f9400000 	ldr	x0, [x0]
   809ec:	f9403c08 	ldr	x8, [x0, #120]
   809f0:	b0000080 	adrp	x0, 91000 <g_pIVFB>
   809f4:	91000000 	add	x0, x0, #0x0
   809f8:	f9400009 	ldr	x9, [x0]
   809fc:	f0000060 	adrp	x0, 8f000 <_malloc_r+0x818>
   80a00:	91178000 	add	x0, x0, #0x5e0
   80a04:	39400001 	ldrb	w1, [x0]
   80a08:	b0000240 	adrp	x0, c9000 <g_xCEcoStackTask1List_C761620F+0x37e20>
   80a0c:	911e6000 	add	x0, x0, #0x798
   80a10:	52800027 	mov	w7, #0x1                   	// #1
   80a14:	aa0003e6 	mov	x6, x0
   80a18:	528001e5 	mov	w5, #0xf                   	// #15
   80a1c:	2a0103e4 	mov	w4, w1
   80a20:	52800403 	mov	w3, #0x20                  	// #32
   80a24:	52800002 	mov	w2, #0x0                   	// #0
   80a28:	52800001 	mov	w1, #0x0                   	// #0
   80a2c:	aa0903e0 	mov	x0, x9
   80a30:	d63f0100 	blr	x8
   80a34:	14000014 	b	80a84 <Task1+0x104>
   80a38:	f94013e1 	ldr	x1, [sp, #32]
   80a3c:	f94017e0 	ldr	x0, [sp, #40]
   80a40:	eb00003f 	cmp	x1, x0
   80a44:	540000c8 	b.hi	80a5c <Task1+0xdc>  // b.pmore
   80a48:	97ffff92 	bl	80890 <printProgress>
   80a4c:	f94013e1 	ldr	x1, [sp, #32]
   80a50:	d2986a00 	mov	x0, #0xc350                	// #50000
   80a54:	8b000020 	add	x0, x1, x0
   80a58:	f90013e0 	str	x0, [sp, #32]
   80a5c:	b0000080 	adrp	x0, 91000 <g_pIVFB>
   80a60:	91002000 	add	x0, x0, #0x8
   80a64:	f9400000 	ldr	x0, [x0]
   80a68:	f9400000 	ldr	x0, [x0]
   80a6c:	f9401401 	ldr	x1, [x0, #40]
   80a70:	b0000080 	adrp	x0, 91000 <g_pIVFB>
   80a74:	91002000 	add	x0, x0, #0x8
   80a78:	f9400000 	ldr	x0, [x0]
   80a7c:	d63f0020 	blr	x1
   80a80:	f90017e0 	str	x0, [sp, #40]
   80a84:	f9400fe1 	ldr	x1, [sp, #24]
   80a88:	f94017e0 	ldr	x0, [sp, #40]
   80a8c:	eb00003f 	cmp	x1, x0
   80a90:	54fffd42 	b.cs	80a38 <Task1+0xb8>  // b.hs, b.nlast
   80a94:	b0000080 	adrp	x0, 91000 <g_pIVFB>
   80a98:	91000000 	add	x0, x0, #0x0
   80a9c:	f9400000 	ldr	x0, [x0]
   80aa0:	f9400000 	ldr	x0, [x0]
   80aa4:	f9403c08 	ldr	x8, [x0, #120]
   80aa8:	b0000080 	adrp	x0, 91000 <g_pIVFB>
   80aac:	91000000 	add	x0, x0, #0x0
   80ab0:	f9400009 	ldr	x9, [x0]
   80ab4:	f0000060 	adrp	x0, 8f000 <_malloc_r+0x818>
   80ab8:	91178000 	add	x0, x0, #0x5e0
   80abc:	39400001 	ldrb	w1, [x0]
   80ac0:	b0000240 	adrp	x0, c9000 <g_xCEcoStackTask1List_C761620F+0x37e20>
   80ac4:	911e8000 	add	x0, x0, #0x7a0
   80ac8:	52800147 	mov	w7, #0xa                   	// #10
   80acc:	aa0003e6 	mov	x6, x0
   80ad0:	52800045 	mov	w5, #0x2                   	// #2
   80ad4:	2a0103e4 	mov	w4, w1
   80ad8:	52800483 	mov	w3, #0x24                  	// #36
   80adc:	52800002 	mov	w2, #0x0                   	// #0
   80ae0:	52800001 	mov	w1, #0x0                   	// #0
   80ae4:	aa0903e0 	mov	x0, x9
   80ae8:	d63f0100 	blr	x8
   80aec:	f0000060 	adrp	x0, 8f000 <_malloc_r+0x818>
   80af0:	91178000 	add	x0, x0, #0x5e0
   80af4:	39400000 	ldrb	w0, [x0]
   80af8:	11000400 	add	w0, w0, #0x1
   80afc:	12001c01 	and	w1, w0, #0xff
   80b00:	f0000060 	adrp	x0, 8f000 <_malloc_r+0x818>
   80b04:	91178000 	add	x0, x0, #0x5e0
   80b08:	39000001 	strb	w1, [x0]
   80b0c:	d503201f 	nop
   80b10:	f84307fe 	ldr	x30, [sp], #48
   80b14:	d65f03c0 	ret

0000000000080b18 <Task2>:
   80b18:	f81d0ffe 	str	x30, [sp, #-48]!
   80b1c:	b0000080 	adrp	x0, 91000 <g_pIVFB>
   80b20:	91002000 	add	x0, x0, #0x8
   80b24:	f9400000 	ldr	x0, [x0]
   80b28:	f9400000 	ldr	x0, [x0]
   80b2c:	f9401401 	ldr	x1, [x0, #40]
   80b30:	b0000080 	adrp	x0, 91000 <g_pIVFB>
   80b34:	91002000 	add	x0, x0, #0x8
   80b38:	f9400000 	ldr	x0, [x0]
   80b3c:	d63f0020 	blr	x1
   80b40:	f90017e0 	str	x0, [sp, #40]
   80b44:	f0000060 	adrp	x0, 8f000 <_malloc_r+0x818>
   80b48:	9117a000 	add	x0, x0, #0x5e8
   80b4c:	b9400400 	ldr	w0, [x0, #4]
   80b50:	2a0003e1 	mov	w1, w0
   80b54:	d2884800 	mov	x0, #0x4240                	// #16960
   80b58:	f2a001e0 	movk	x0, #0xf, lsl #16
   80b5c:	9b007c20 	mul	x0, x1, x0
   80b60:	f94017e1 	ldr	x1, [sp, #40]
   80b64:	8b000020 	add	x0, x1, x0
   80b68:	f9000fe0 	str	x0, [sp, #24]
   80b6c:	f94017e0 	ldr	x0, [sp, #40]
   80b70:	f90013e0 	str	x0, [sp, #32]
   80b74:	b0000080 	adrp	x0, 91000 <g_pIVFB>
   80b78:	91000000 	add	x0, x0, #0x0
   80b7c:	f9400000 	ldr	x0, [x0]
   80b80:	f9400000 	ldr	x0, [x0]
   80b84:	f9403c08 	ldr	x8, [x0, #120]
   80b88:	b0000080 	adrp	x0, 91000 <g_pIVFB>
   80b8c:	91000000 	add	x0, x0, #0x0
   80b90:	f9400009 	ldr	x9, [x0]
   80b94:	f0000060 	adrp	x0, 8f000 <_malloc_r+0x818>
   80b98:	91178000 	add	x0, x0, #0x5e0
   80b9c:	39400001 	ldrb	w1, [x0]
   80ba0:	b0000240 	adrp	x0, c9000 <g_xCEcoStackTask1List_C761620F+0x37e20>
   80ba4:	911ec000 	add	x0, x0, #0x7b0
   80ba8:	52800027 	mov	w7, #0x1                   	// #1
   80bac:	aa0003e6 	mov	x6, x0
   80bb0:	528001e5 	mov	w5, #0xf                   	// #15
   80bb4:	2a0103e4 	mov	w4, w1
   80bb8:	52800403 	mov	w3, #0x20                  	// #32
   80bbc:	52800002 	mov	w2, #0x0                   	// #0
   80bc0:	52800001 	mov	w1, #0x0                   	// #0
   80bc4:	aa0903e0 	mov	x0, x9
   80bc8:	d63f0100 	blr	x8
   80bcc:	14000014 	b	80c1c <Task2+0x104>
   80bd0:	f94013e1 	ldr	x1, [sp, #32]
   80bd4:	f94017e0 	ldr	x0, [sp, #40]
   80bd8:	eb00003f 	cmp	x1, x0
   80bdc:	540000c8 	b.hi	80bf4 <Task2+0xdc>  // b.pmore
   80be0:	97ffff2c 	bl	80890 <printProgress>
   80be4:	f94013e1 	ldr	x1, [sp, #32]
   80be8:	d2986a00 	mov	x0, #0xc350                	// #50000
   80bec:	8b000020 	add	x0, x1, x0
   80bf0:	f90013e0 	str	x0, [sp, #32]
   80bf4:	b0000080 	adrp	x0, 91000 <g_pIVFB>
   80bf8:	91002000 	add	x0, x0, #0x8
   80bfc:	f9400000 	ldr	x0, [x0]
   80c00:	f9400000 	ldr	x0, [x0]
   80c04:	f9401401 	ldr	x1, [x0, #40]
   80c08:	b0000080 	adrp	x0, 91000 <g_pIVFB>
   80c0c:	91002000 	add	x0, x0, #0x8
   80c10:	f9400000 	ldr	x0, [x0]
   80c14:	d63f0020 	blr	x1
   80c18:	f90017e0 	str	x0, [sp, #40]
   80c1c:	f9400fe1 	ldr	x1, [sp, #24]
   80c20:	f94017e0 	ldr	x0, [sp, #40]
   80c24:	eb00003f 	cmp	x1, x0
   80c28:	54fffd42 	b.cs	80bd0 <Task2+0xb8>  // b.hs, b.nlast
   80c2c:	b0000080 	adrp	x0, 91000 <g_pIVFB>
   80c30:	91000000 	add	x0, x0, #0x0
   80c34:	f9400000 	ldr	x0, [x0]
   80c38:	f9400000 	ldr	x0, [x0]
   80c3c:	f9403c08 	ldr	x8, [x0, #120]
   80c40:	b0000080 	adrp	x0, 91000 <g_pIVFB>
   80c44:	91000000 	add	x0, x0, #0x0
   80c48:	f9400009 	ldr	x9, [x0]
   80c4c:	f0000060 	adrp	x0, 8f000 <_malloc_r+0x818>
   80c50:	91178000 	add	x0, x0, #0x5e0
   80c54:	39400001 	ldrb	w1, [x0]
   80c58:	b0000240 	adrp	x0, c9000 <g_xCEcoStackTask1List_C761620F+0x37e20>
   80c5c:	911ee000 	add	x0, x0, #0x7b8
   80c60:	52800147 	mov	w7, #0xa                   	// #10
   80c64:	aa0003e6 	mov	x6, x0
   80c68:	52800045 	mov	w5, #0x2                   	// #2
   80c6c:	2a0103e4 	mov	w4, w1
   80c70:	52800483 	mov	w3, #0x24                  	// #36
   80c74:	52800002 	mov	w2, #0x0                   	// #0
   80c78:	52800001 	mov	w1, #0x0                   	// #0
   80c7c:	aa0903e0 	mov	x0, x9
   80c80:	d63f0100 	blr	x8
   80c84:	f0000060 	adrp	x0, 8f000 <_malloc_r+0x818>
   80c88:	91178000 	add	x0, x0, #0x5e0
   80c8c:	39400000 	ldrb	w0, [x0]
   80c90:	11000400 	add	w0, w0, #0x1
   80c94:	12001c01 	and	w1, w0, #0xff
   80c98:	f0000060 	adrp	x0, 8f000 <_malloc_r+0x818>
   80c9c:	91178000 	add	x0, x0, #0x5e0
   80ca0:	39000001 	strb	w1, [x0]
   80ca4:	d503201f 	nop
   80ca8:	f84307fe 	ldr	x30, [sp], #48
   80cac:	d65f03c0 	ret

0000000000080cb0 <Task3>:
   80cb0:	f81d0ffe 	str	x30, [sp, #-48]!
   80cb4:	b0000080 	adrp	x0, 91000 <g_pIVFB>
   80cb8:	91002000 	add	x0, x0, #0x8
   80cbc:	f9400000 	ldr	x0, [x0]
   80cc0:	f9400000 	ldr	x0, [x0]
   80cc4:	f9401401 	ldr	x1, [x0, #40]
   80cc8:	b0000080 	adrp	x0, 91000 <g_pIVFB>
   80ccc:	91002000 	add	x0, x0, #0x8
   80cd0:	f9400000 	ldr	x0, [x0]
   80cd4:	d63f0020 	blr	x1
   80cd8:	f90017e0 	str	x0, [sp, #40]
   80cdc:	f0000060 	adrp	x0, 8f000 <_malloc_r+0x818>
   80ce0:	9117a000 	add	x0, x0, #0x5e8
   80ce4:	b9400800 	ldr	w0, [x0, #8]
   80ce8:	2a0003e1 	mov	w1, w0
   80cec:	d2884800 	mov	x0, #0x4240                	// #16960
   80cf0:	f2a001e0 	movk	x0, #0xf, lsl #16
   80cf4:	9b007c20 	mul	x0, x1, x0
   80cf8:	f94017e1 	ldr	x1, [sp, #40]
   80cfc:	8b000020 	add	x0, x1, x0
   80d00:	f9000fe0 	str	x0, [sp, #24]
   80d04:	f94017e0 	ldr	x0, [sp, #40]
   80d08:	f90013e0 	str	x0, [sp, #32]
   80d0c:	b0000080 	adrp	x0, 91000 <g_pIVFB>
   80d10:	91000000 	add	x0, x0, #0x0
   80d14:	f9400000 	ldr	x0, [x0]
   80d18:	f9400000 	ldr	x0, [x0]
   80d1c:	f9403c08 	ldr	x8, [x0, #120]
   80d20:	b0000080 	adrp	x0, 91000 <g_pIVFB>
   80d24:	91000000 	add	x0, x0, #0x0
   80d28:	f9400009 	ldr	x9, [x0]
   80d2c:	f0000060 	adrp	x0, 8f000 <_malloc_r+0x818>
   80d30:	91178000 	add	x0, x0, #0x5e0
   80d34:	39400001 	ldrb	w1, [x0]
   80d38:	b0000240 	adrp	x0, c9000 <g_xCEcoStackTask1List_C761620F+0x37e20>
   80d3c:	911f2000 	add	x0, x0, #0x7c8
   80d40:	52800027 	mov	w7, #0x1                   	// #1
   80d44:	aa0003e6 	mov	x6, x0
   80d48:	528001e5 	mov	w5, #0xf                   	// #15
   80d4c:	2a0103e4 	mov	w4, w1
   80d50:	52800403 	mov	w3, #0x20                  	// #32
   80d54:	52800002 	mov	w2, #0x0                   	// #0
   80d58:	52800001 	mov	w1, #0x0                   	// #0
   80d5c:	aa0903e0 	mov	x0, x9
   80d60:	d63f0100 	blr	x8
   80d64:	14000014 	b	80db4 <Task3+0x104>
   80d68:	f94013e1 	ldr	x1, [sp, #32]
   80d6c:	f94017e0 	ldr	x0, [sp, #40]
   80d70:	eb00003f 	cmp	x1, x0
   80d74:	540000c8 	b.hi	80d8c <Task3+0xdc>  // b.pmore
   80d78:	97fffec6 	bl	80890 <printProgress>
   80d7c:	f94013e1 	ldr	x1, [sp, #32]
   80d80:	d2986a00 	mov	x0, #0xc350                	// #50000
   80d84:	8b000020 	add	x0, x1, x0
   80d88:	f90013e0 	str	x0, [sp, #32]
   80d8c:	b0000080 	adrp	x0, 91000 <g_pIVFB>
   80d90:	91002000 	add	x0, x0, #0x8
   80d94:	f9400000 	ldr	x0, [x0]
   80d98:	f9400000 	ldr	x0, [x0]
   80d9c:	f9401401 	ldr	x1, [x0, #40]
   80da0:	b0000080 	adrp	x0, 91000 <g_pIVFB>
   80da4:	91002000 	add	x0, x0, #0x8
   80da8:	f9400000 	ldr	x0, [x0]
   80dac:	d63f0020 	blr	x1
   80db0:	f90017e0 	str	x0, [sp, #40]
   80db4:	f9400fe1 	ldr	x1, [sp, #24]
   80db8:	f94017e0 	ldr	x0, [sp, #40]
   80dbc:	eb00003f 	cmp	x1, x0
   80dc0:	54fffd42 	b.cs	80d68 <Task3+0xb8>  // b.hs, b.nlast
   80dc4:	b0000080 	adrp	x0, 91000 <g_pIVFB>
   80dc8:	91000000 	add	x0, x0, #0x0
   80dcc:	f9400000 	ldr	x0, [x0]
   80dd0:	f9400000 	ldr	x0, [x0]
   80dd4:	f9403c08 	ldr	x8, [x0, #120]
   80dd8:	b0000080 	adrp	x0, 91000 <g_pIVFB>
   80ddc:	91000000 	add	x0, x0, #0x0
   80de0:	f9400009 	ldr	x9, [x0]
   80de4:	f0000060 	adrp	x0, 8f000 <_malloc_r+0x818>
   80de8:	91178000 	add	x0, x0, #0x5e0
   80dec:	39400001 	ldrb	w1, [x0]
   80df0:	b0000240 	adrp	x0, c9000 <g_xCEcoStackTask1List_C761620F+0x37e20>
   80df4:	911f4000 	add	x0, x0, #0x7d0
   80df8:	52800147 	mov	w7, #0xa                   	// #10
   80dfc:	aa0003e6 	mov	x6, x0
   80e00:	52800045 	mov	w5, #0x2                   	// #2
   80e04:	2a0103e4 	mov	w4, w1
   80e08:	52800483 	mov	w3, #0x24                  	// #36
   80e0c:	52800002 	mov	w2, #0x0                   	// #0
   80e10:	52800001 	mov	w1, #0x0                   	// #0
   80e14:	aa0903e0 	mov	x0, x9
   80e18:	d63f0100 	blr	x8
   80e1c:	f0000060 	adrp	x0, 8f000 <_malloc_r+0x818>
   80e20:	91178000 	add	x0, x0, #0x5e0
   80e24:	39400000 	ldrb	w0, [x0]
   80e28:	11000400 	add	w0, w0, #0x1
   80e2c:	12001c01 	and	w1, w0, #0xff
   80e30:	f0000060 	adrp	x0, 8f000 <_malloc_r+0x818>
   80e34:	91178000 	add	x0, x0, #0x5e0
   80e38:	39000001 	strb	w1, [x0]
   80e3c:	d503201f 	nop
   80e40:	f84307fe 	ldr	x30, [sp], #48
   80e44:	d65f03c0 	ret

0000000000080e48 <EcoMain>:
   80e48:	f8160ffe 	str	x30, [sp, #-160]!
   80e4c:	f9000fe0 	str	x0, [sp, #24]
   80e50:	12800000 	mov	w0, #0xffffffff            	// #-1
   80e54:	79013fe0 	strh	w0, [sp, #158]
   80e58:	f9004bff 	str	xzr, [sp, #144]
   80e5c:	f90037ff 	str	xzr, [sp, #104]
   80e60:	f90047ff 	str	xzr, [sp, #136]
   80e64:	f90033ff 	str	xzr, [sp, #96]
   80e68:	f9002fff 	str	xzr, [sp, #88]
   80e6c:	f90043ff 	str	xzr, [sp, #128]
   80e70:	f9002bff 	str	xzr, [sp, #80]
   80e74:	f90027ff 	str	xzr, [sp, #72]
   80e78:	f90023ff 	str	xzr, [sp, #64]
   80e7c:	f9001fff 	str	xzr, [sp, #56]
   80e80:	f9001bff 	str	xzr, [sp, #48]
   80e84:	f90017ff 	str	xzr, [sp, #40]
   80e88:	f90013ff 	str	xzr, [sp, #32]
   80e8c:	b0000240 	adrp	x0, c9000 <g_xCEcoStackTask1List_C761620F+0x37e20>
   80e90:	911f8000 	add	x0, x0, #0x7e0
   80e94:	f9003fe0 	str	x0, [sp, #120]
   80e98:	79013bff 	strh	wzr, [sp, #156]
   80e9c:	7900efff 	strh	wzr, [sp, #118]
   80ea0:	52800400 	mov	w0, #0x20                  	// #32
   80ea4:	7900ebe0 	strh	w0, [sp, #116]
   80ea8:	528008c0 	mov	w0, #0x46                  	// #70
   80eac:	7900e7e0 	strh	w0, [sp, #114]
   80eb0:	12800aa0 	mov	w0, #0xffffffaa            	// #-86
   80eb4:	3901c7e0 	strb	w0, [sp, #113]
   80eb8:	f0000060 	adrp	x0, 8f000 <_malloc_r+0x818>
   80ebc:	913e8000 	add	x0, x0, #0xfa0
   80ec0:	f9400000 	ldr	x0, [x0]
   80ec4:	f9400000 	ldr	x0, [x0]
   80ec8:	f9400c05 	ldr	x5, [x0, #24]
   80ecc:	f0000060 	adrp	x0, 8f000 <_malloc_r+0x818>
   80ed0:	913e8000 	add	x0, x0, #0xfa0
   80ed4:	f9400006 	ldr	x6, [x0]
   80ed8:	9101a3e1 	add	x1, sp, #0x68
   80edc:	b0000240 	adrp	x0, c9000 <g_xCEcoStackTask1List_C761620F+0x37e20>
   80ee0:	9114a000 	add	x0, x0, #0x528
   80ee4:	aa0103e4 	mov	x4, x1
   80ee8:	aa0003e3 	mov	x3, x0
   80eec:	d2800002 	mov	x2, #0x0                   	// #0
   80ef0:	d2800001 	mov	x1, #0x0                   	// #0
   80ef4:	aa0603e0 	mov	x0, x6
   80ef8:	d63f00a0 	blr	x5
   80efc:	79013fe0 	strh	w0, [sp, #158]
   80f00:	79c13fe0 	ldrsh	w0, [sp, #158]
   80f04:	7100001f 	cmp	w0, #0x0
   80f08:	54000080 	b.eq	80f18 <EcoMain+0xd0>  // b.none
   80f0c:	f94037e0 	ldr	x0, [sp, #104]
   80f10:	f100001f 	cmp	x0, #0x0
   80f14:	54003300 	b.eq	81574 <EcoMain+0x72c>  // b.none
   80f18:	f94037e0 	ldr	x0, [sp, #104]
   80f1c:	f9400000 	ldr	x0, [x0]
   80f20:	f9401403 	ldr	x3, [x0, #40]
   80f24:	f94037e4 	ldr	x4, [sp, #104]
   80f28:	f0000060 	adrp	x0, 8f000 <_malloc_r+0x818>
   80f2c:	911c4000 	add	x0, x0, #0x710
   80f30:	f9400001 	ldr	x1, [x0]
   80f34:	b0000240 	adrp	x0, c9000 <g_xCEcoStackTask1List_C761620F+0x37e20>
   80f38:	91138000 	add	x0, x0, #0x4e0
   80f3c:	aa0103e2 	mov	x2, x1
   80f40:	aa0003e1 	mov	x1, x0
   80f44:	aa0403e0 	mov	x0, x4
   80f48:	d63f0060 	blr	x3
   80f4c:	79013fe0 	strh	w0, [sp, #158]
   80f50:	79c13fe0 	ldrsh	w0, [sp, #158]
   80f54:	7100001f 	cmp	w0, #0x0
   80f58:	54003121 	b.ne	8157c <EcoMain+0x734>  // b.any
   80f5c:	f94037e0 	ldr	x0, [sp, #104]
   80f60:	f9400000 	ldr	x0, [x0]
   80f64:	f9401403 	ldr	x3, [x0, #40]
   80f68:	f94037e4 	ldr	x4, [sp, #104]
   80f6c:	f0000060 	adrp	x0, 8f000 <_malloc_r+0x818>
   80f70:	91226000 	add	x0, x0, #0x898
   80f74:	f9400001 	ldr	x1, [x0]
   80f78:	b0000240 	adrp	x0, c9000 <g_xCEcoStackTask1List_C761620F+0x37e20>
   80f7c:	911bc000 	add	x0, x0, #0x6f0
   80f80:	aa0103e2 	mov	x2, x1
   80f84:	aa0003e1 	mov	x1, x0
   80f88:	aa0403e0 	mov	x0, x4
   80f8c:	d63f0060 	blr	x3
   80f90:	79013fe0 	strh	w0, [sp, #158]
   80f94:	79c13fe0 	ldrsh	w0, [sp, #158]
   80f98:	7100001f 	cmp	w0, #0x0
   80f9c:	54002f41 	b.ne	81584 <EcoMain+0x73c>  // b.any
   80fa0:	f94037e0 	ldr	x0, [sp, #104]
   80fa4:	f9400000 	ldr	x0, [x0]
   80fa8:	f9400003 	ldr	x3, [x0]
   80fac:	f94037e4 	ldr	x4, [sp, #104]
   80fb0:	910163e1 	add	x1, sp, #0x58
   80fb4:	b0000240 	adrp	x0, c9000 <g_xCEcoStackTask1List_C761620F+0x37e20>
   80fb8:	911b0000 	add	x0, x0, #0x6c0
   80fbc:	aa0103e2 	mov	x2, x1
   80fc0:	aa0003e1 	mov	x1, x0
   80fc4:	aa0403e0 	mov	x0, x4
   80fc8:	d63f0060 	blr	x3
   80fcc:	79013fe0 	strh	w0, [sp, #158]
   80fd0:	79c13fe0 	ldrsh	w0, [sp, #158]
   80fd4:	7100001f 	cmp	w0, #0x0
   80fd8:	54000261 	b.ne	81024 <EcoMain+0x1dc>  // b.any
   80fdc:	f9402fe0 	ldr	x0, [sp, #88]
   80fe0:	f100001f 	cmp	x0, #0x0
   80fe4:	54000200 	b.eq	81024 <EcoMain+0x1dc>  // b.none
   80fe8:	f9402fe0 	ldr	x0, [sp, #88]
   80fec:	f9400000 	ldr	x0, [x0]
   80ff0:	f9400c02 	ldr	x2, [x0, #24]
   80ff4:	f9402fe3 	ldr	x3, [sp, #88]
   80ff8:	b0000240 	adrp	x0, c9000 <g_xCEcoStackTask1List_C761620F+0x37e20>
   80ffc:	91138000 	add	x0, x0, #0x4e0
   81000:	aa0003e1 	mov	x1, x0
   81004:	aa0303e0 	mov	x0, x3
   81008:	d63f0040 	blr	x2
   8100c:	f9402fe0 	ldr	x0, [sp, #88]
   81010:	f9400000 	ldr	x0, [x0]
   81014:	f9401402 	ldr	x2, [x0, #40]
   81018:	f9402fe0 	ldr	x0, [sp, #88]
   8101c:	52800021 	mov	w1, #0x1                   	// #1
   81020:	d63f0040 	blr	x2
   81024:	f94037e0 	ldr	x0, [sp, #104]
   81028:	f9400000 	ldr	x0, [x0]
   8102c:	f9401c05 	ldr	x5, [x0, #56]
   81030:	f94037e6 	ldr	x6, [sp, #104]
   81034:	910183e2 	add	x2, sp, #0x60
   81038:	90000240 	adrp	x0, c9000 <g_xCEcoStackTask1List_C761620F+0x37e20>
   8103c:	91132001 	add	x1, x0, #0x4c8
   81040:	90000240 	adrp	x0, c9000 <g_xCEcoStackTask1List_C761620F+0x37e20>
   81044:	91138000 	add	x0, x0, #0x4e0
   81048:	aa0203e4 	mov	x4, x2
   8104c:	aa0103e3 	mov	x3, x1
   81050:	d2800002 	mov	x2, #0x0                   	// #0
   81054:	aa0003e1 	mov	x1, x0
   81058:	aa0603e0 	mov	x0, x6
   8105c:	d63f00a0 	blr	x5
   81060:	79c13fe0 	ldrsh	w0, [sp, #158]
   81064:	7100001f 	cmp	w0, #0x0
   81068:	54000081 	b.ne	81078 <EcoMain+0x230>  // b.any
   8106c:	f94033e0 	ldr	x0, [sp, #96]
   81070:	f100001f 	cmp	x0, #0x0
   81074:	54000061 	b.ne	81080 <EcoMain+0x238>  // b.any
   81078:	79c13fe0 	ldrsh	w0, [sp, #158]
   8107c:	1400016c 	b	8162c <EcoMain+0x7e4>
   81080:	f94033e0 	ldr	x0, [sp, #96]
   81084:	f9400000 	ldr	x0, [x0]
   81088:	f9400c03 	ldr	x3, [x0, #24]
   8108c:	f94033e4 	ldr	x4, [sp, #96]
   81090:	b00002c0 	adrp	x0, da000 <pg_dir+0x2000>
   81094:	910f4000 	add	x0, x0, #0x3d0
   81098:	52a00102 	mov	w2, #0x80000               	// #524288
   8109c:	aa0003e1 	mov	x1, x0
   810a0:	aa0403e0 	mov	x0, x4
   810a4:	d63f0060 	blr	x3
   810a8:	f94037e0 	ldr	x0, [sp, #104]
   810ac:	f9400000 	ldr	x0, [x0]
   810b0:	f9401403 	ldr	x3, [x0, #40]
   810b4:	f94037e4 	ldr	x4, [sp, #104]
   810b8:	d0000060 	adrp	x0, 8f000 <_malloc_r+0x818>
   810bc:	9127e000 	add	x0, x0, #0x9f8
   810c0:	f9400001 	ldr	x1, [x0]
   810c4:	90000240 	adrp	x0, c9000 <g_xCEcoStackTask1List_C761620F+0x37e20>
   810c8:	9115c000 	add	x0, x0, #0x570
   810cc:	aa0103e2 	mov	x2, x1
   810d0:	aa0003e1 	mov	x1, x0
   810d4:	aa0403e0 	mov	x0, x4
   810d8:	d63f0060 	blr	x3
   810dc:	79013fe0 	strh	w0, [sp, #158]
   810e0:	79c13fe0 	ldrsh	w0, [sp, #158]
   810e4:	7100001f 	cmp	w0, #0x0
   810e8:	54002521 	b.ne	8158c <EcoMain+0x744>  // b.any
   810ec:	f94037e0 	ldr	x0, [sp, #104]
   810f0:	f9400000 	ldr	x0, [x0]
   810f4:	f9401403 	ldr	x3, [x0, #40]
   810f8:	f94037e4 	ldr	x4, [sp, #104]
   810fc:	d0000060 	adrp	x0, 8f000 <_malloc_r+0x818>
   81100:	912d6000 	add	x0, x0, #0xb58
   81104:	f9400001 	ldr	x1, [x0]
   81108:	90000240 	adrp	x0, c9000 <g_xCEcoStackTask1List_C761620F+0x37e20>
   8110c:	91168000 	add	x0, x0, #0x5a0
   81110:	aa0103e2 	mov	x2, x1
   81114:	aa0003e1 	mov	x1, x0
   81118:	aa0403e0 	mov	x0, x4
   8111c:	d63f0060 	blr	x3
   81120:	79013fe0 	strh	w0, [sp, #158]
   81124:	79c13fe0 	ldrsh	w0, [sp, #158]
   81128:	7100001f 	cmp	w0, #0x0
   8112c:	54002341 	b.ne	81594 <EcoMain+0x74c>  // b.any
   81130:	f94037e0 	ldr	x0, [sp, #104]
   81134:	f9400000 	ldr	x0, [x0]
   81138:	f9401403 	ldr	x3, [x0, #40]
   8113c:	f94037e4 	ldr	x4, [sp, #104]
   81140:	d0000060 	adrp	x0, 8f000 <_malloc_r+0x818>
   81144:	91332000 	add	x0, x0, #0xcc8
   81148:	f9400001 	ldr	x1, [x0]
   8114c:	90000240 	adrp	x0, c9000 <g_xCEcoStackTask1List_C761620F+0x37e20>
   81150:	911c8000 	add	x0, x0, #0x720
   81154:	aa0103e2 	mov	x2, x1
   81158:	aa0003e1 	mov	x1, x0
   8115c:	aa0403e0 	mov	x0, x4
   81160:	d63f0060 	blr	x3
   81164:	79013fe0 	strh	w0, [sp, #158]
   81168:	79c13fe0 	ldrsh	w0, [sp, #158]
   8116c:	7100001f 	cmp	w0, #0x0
   81170:	54002161 	b.ne	8159c <EcoMain+0x754>  // b.any
   81174:	f94037e0 	ldr	x0, [sp, #104]
   81178:	f9400000 	ldr	x0, [x0]
   8117c:	f9401c05 	ldr	x5, [x0, #56]
   81180:	f94037e6 	ldr	x6, [sp, #104]
   81184:	910143e2 	add	x2, sp, #0x50
   81188:	90000240 	adrp	x0, c9000 <g_xCEcoStackTask1List_C761620F+0x37e20>
   8118c:	91156001 	add	x1, x0, #0x558
   81190:	90000240 	adrp	x0, c9000 <g_xCEcoStackTask1List_C761620F+0x37e20>
   81194:	9115c000 	add	x0, x0, #0x570
   81198:	aa0203e4 	mov	x4, x2
   8119c:	aa0103e3 	mov	x3, x1
   811a0:	d2800002 	mov	x2, #0x0                   	// #0
   811a4:	aa0003e1 	mov	x1, x0
   811a8:	aa0603e0 	mov	x0, x6
   811ac:	d63f00a0 	blr	x5
   811b0:	79013fe0 	strh	w0, [sp, #158]
   811b4:	79c13fe0 	ldrsh	w0, [sp, #158]
   811b8:	7100001f 	cmp	w0, #0x0
   811bc:	54001f41 	b.ne	815a4 <EcoMain+0x75c>  // b.any
   811c0:	f9402be0 	ldr	x0, [sp, #80]
   811c4:	f100001f 	cmp	x0, #0x0
   811c8:	54001ee0 	b.eq	815a4 <EcoMain+0x75c>  // b.none
   811cc:	f9402be0 	ldr	x0, [sp, #80]
   811d0:	f9400000 	ldr	x0, [x0]
   811d4:	f9401004 	ldr	x4, [x0, #32]
   811d8:	f9402be5 	ldr	x5, [sp, #80]
   811dc:	f94037e1 	ldr	x1, [sp, #104]
   811e0:	b0000740 	adrp	x0, 16a000 <_end+0x8ec30>
   811e4:	910f4000 	add	x0, x0, #0x3d0
   811e8:	52a00103 	mov	w3, #0x80000               	// #524288
   811ec:	aa0003e2 	mov	x2, x0
   811f0:	aa0503e0 	mov	x0, x5
   811f4:	d63f0080 	blr	x4
   811f8:	f9402be0 	ldr	x0, [sp, #80]
   811fc:	f9400000 	ldr	x0, [x0]
   81200:	f9401405 	ldr	x5, [x0, #40]
   81204:	f9402be6 	ldr	x6, [sp, #80]
   81208:	d0000060 	adrp	x0, 8f000 <_malloc_r+0x818>
   8120c:	9117a000 	add	x0, x0, #0x5e8
   81210:	b9400000 	ldr	w0, [x0]
   81214:	2a0003e0 	mov	w0, w0
   81218:	aa0003e2 	mov	x2, x0
   8121c:	910123e1 	add	x1, sp, #0x48
   81220:	f0ffffe0 	adrp	x0, 80000 <_start>
   81224:	91260000 	add	x0, x0, #0x980
   81228:	aa0103e4 	mov	x4, x1
   8122c:	52802003 	mov	w3, #0x100                 	// #256
   81230:	aa0003e1 	mov	x1, x0
   81234:	aa0603e0 	mov	x0, x6
   81238:	d63f00a0 	blr	x5
   8123c:	f9402be0 	ldr	x0, [sp, #80]
   81240:	f9400000 	ldr	x0, [x0]
   81244:	f9401405 	ldr	x5, [x0, #40]
   81248:	f9402be6 	ldr	x6, [sp, #80]
   8124c:	d0000060 	adrp	x0, 8f000 <_malloc_r+0x818>
   81250:	9117a000 	add	x0, x0, #0x5e8
   81254:	b9400400 	ldr	w0, [x0, #4]
   81258:	2a0003e0 	mov	w0, w0
   8125c:	aa0003e2 	mov	x2, x0
   81260:	910103e1 	add	x1, sp, #0x40
   81264:	f0ffffe0 	adrp	x0, 80000 <_start>
   81268:	912c6000 	add	x0, x0, #0xb18
   8126c:	aa0103e4 	mov	x4, x1
   81270:	52802003 	mov	w3, #0x100                 	// #256
   81274:	aa0003e1 	mov	x1, x0
   81278:	aa0603e0 	mov	x0, x6
   8127c:	d63f00a0 	blr	x5
   81280:	f9402be0 	ldr	x0, [sp, #80]
   81284:	f9400000 	ldr	x0, [x0]
   81288:	f9401405 	ldr	x5, [x0, #40]
   8128c:	f9402be6 	ldr	x6, [sp, #80]
   81290:	d0000060 	adrp	x0, 8f000 <_malloc_r+0x818>
   81294:	9117a000 	add	x0, x0, #0x5e8
   81298:	b9400800 	ldr	w0, [x0, #8]
   8129c:	2a0003e0 	mov	w0, w0
   812a0:	aa0003e2 	mov	x2, x0
   812a4:	9100e3e1 	add	x1, sp, #0x38
   812a8:	f0ffffe0 	adrp	x0, 80000 <_start>
   812ac:	9132c000 	add	x0, x0, #0xcb0
   812b0:	aa0103e4 	mov	x4, x1
   812b4:	52802003 	mov	w3, #0x100                 	// #256
   812b8:	aa0003e1 	mov	x1, x0
   812bc:	aa0603e0 	mov	x0, x6
   812c0:	d63f00a0 	blr	x5
   812c4:	f94037e0 	ldr	x0, [sp, #104]
   812c8:	f9400000 	ldr	x0, [x0]
   812cc:	f9401c05 	ldr	x5, [x0, #56]
   812d0:	f94037e6 	ldr	x6, [sp, #104]
   812d4:	9100a3e2 	add	x2, sp, #0x28
   812d8:	90000240 	adrp	x0, c9000 <g_xCEcoStackTask1List_C761620F+0x37e20>
   812dc:	9116e001 	add	x1, x0, #0x5b8
   812e0:	90000240 	adrp	x0, c9000 <g_xCEcoStackTask1List_C761620F+0x37e20>
   812e4:	91168000 	add	x0, x0, #0x5a0
   812e8:	aa0203e4 	mov	x4, x2
   812ec:	aa0103e3 	mov	x3, x1
   812f0:	d2800002 	mov	x2, #0x0                   	// #0
   812f4:	aa0003e1 	mov	x1, x0
   812f8:	aa0603e0 	mov	x0, x6
   812fc:	d63f00a0 	blr	x5
   81300:	79013fe0 	strh	w0, [sp, #158]
   81304:	79c13fe0 	ldrsh	w0, [sp, #158]
   81308:	7100001f 	cmp	w0, #0x0
   8130c:	540014c1 	b.ne	815a4 <EcoMain+0x75c>  // b.any
   81310:	f94017e0 	ldr	x0, [sp, #40]
   81314:	f100001f 	cmp	x0, #0x0
   81318:	54001460 	b.eq	815a4 <EcoMain+0x75c>  // b.none
   8131c:	f94017e1 	ldr	x1, [sp, #40]
   81320:	90000080 	adrp	x0, 91000 <g_pIVFB>
   81324:	91002000 	add	x0, x0, #0x8
   81328:	f9000001 	str	x1, [x0]
   8132c:	f94017e0 	ldr	x0, [sp, #40]
   81330:	f9400000 	ldr	x0, [x0]
   81334:	f9400003 	ldr	x3, [x0]
   81338:	f94017e4 	ldr	x4, [sp, #40]
   8133c:	910083e1 	add	x1, sp, #0x20
   81340:	90000240 	adrp	x0, c9000 <g_xCEcoStackTask1List_C761620F+0x37e20>
   81344:	91162000 	add	x0, x0, #0x588
   81348:	aa0103e2 	mov	x2, x1
   8134c:	aa0003e1 	mov	x1, x0
   81350:	aa0403e0 	mov	x0, x4
   81354:	d63f0060 	blr	x3
   81358:	79013fe0 	strh	w0, [sp, #158]
   8135c:	79c13fe0 	ldrsh	w0, [sp, #158]
   81360:	7100001f 	cmp	w0, #0x0
   81364:	54001201 	b.ne	815a4 <EcoMain+0x75c>  // b.any
   81368:	f94013e0 	ldr	x0, [sp, #32]
   8136c:	f100001f 	cmp	x0, #0x0
   81370:	540011a0 	b.eq	815a4 <EcoMain+0x75c>  // b.none
   81374:	f94013e0 	ldr	x0, [sp, #32]
   81378:	f9400000 	ldr	x0, [x0]
   8137c:	f9401c01 	ldr	x1, [x0, #56]
   81380:	f94013e0 	ldr	x0, [sp, #32]
   81384:	d63f0020 	blr	x1
   81388:	f94037e0 	ldr	x0, [sp, #104]
   8138c:	f9400000 	ldr	x0, [x0]
   81390:	f9401c05 	ldr	x5, [x0, #56]
   81394:	f94037e6 	ldr	x6, [sp, #104]
   81398:	9100c3e2 	add	x2, sp, #0x30
   8139c:	90000240 	adrp	x0, c9000 <g_xCEcoStackTask1List_C761620F+0x37e20>
   813a0:	911c2001 	add	x1, x0, #0x708
   813a4:	90000240 	adrp	x0, c9000 <g_xCEcoStackTask1List_C761620F+0x37e20>
   813a8:	911c8000 	add	x0, x0, #0x720
   813ac:	aa0203e4 	mov	x4, x2
   813b0:	aa0103e3 	mov	x3, x1
   813b4:	d2800002 	mov	x2, #0x0                   	// #0
   813b8:	aa0003e1 	mov	x1, x0
   813bc:	aa0603e0 	mov	x0, x6
   813c0:	d63f00a0 	blr	x5
   813c4:	79013fe0 	strh	w0, [sp, #158]
   813c8:	79c13fe0 	ldrsh	w0, [sp, #158]
   813cc:	7100001f 	cmp	w0, #0x0
   813d0:	54000ea1 	b.ne	815a4 <EcoMain+0x75c>  // b.any
   813d4:	f9401be0 	ldr	x0, [sp, #48]
   813d8:	f100001f 	cmp	x0, #0x0
   813dc:	54000e40 	b.eq	815a4 <EcoMain+0x75c>  // b.none
   813e0:	f9401be0 	ldr	x0, [sp, #48]
   813e4:	f9400000 	ldr	x0, [x0]
   813e8:	f9403c08 	ldr	x8, [x0, #120]
   813ec:	f9401be9 	ldr	x9, [sp, #48]
   813f0:	90000240 	adrp	x0, c9000 <g_xCEcoStackTask1List_C761620F+0x37e20>
   813f4:	911fc000 	add	x0, x0, #0x7f0
   813f8:	52800127 	mov	w7, #0x9                   	// #9
   813fc:	aa0003e6 	mov	x6, x0
   81400:	528001c5 	mov	w5, #0xe                   	// #14
   81404:	52800024 	mov	w4, #0x1                   	// #1
   81408:	52800003 	mov	w3, #0x0                   	// #0
   8140c:	52800002 	mov	w2, #0x0                   	// #0
   81410:	52800001 	mov	w1, #0x0                   	// #0
   81414:	aa0903e0 	mov	x0, x9
   81418:	d63f0100 	blr	x8
   8141c:	7940efe0 	ldrh	w0, [sp, #118]
   81420:	79013be0 	strh	w0, [sp, #156]
   81424:	1400000c 	b	81454 <EcoMain+0x60c>
   81428:	f9401be0 	ldr	x0, [sp, #48]
   8142c:	f9400000 	ldr	x0, [x0]
   81430:	f9403004 	ldr	x4, [x0, #96]
   81434:	f9401be0 	ldr	x0, [sp, #48]
   81438:	7940ebe3 	ldrh	w3, [sp, #116]
   8143c:	79413be2 	ldrh	w2, [sp, #156]
   81440:	3941c7e1 	ldrb	w1, [sp, #113]
   81444:	d63f0080 	blr	x4
   81448:	79413be0 	ldrh	w0, [sp, #156]
   8144c:	11000400 	add	w0, w0, #0x1
   81450:	79013be0 	strh	w0, [sp, #156]
   81454:	79413be1 	ldrh	w1, [sp, #156]
   81458:	7940e7e0 	ldrh	w0, [sp, #114]
   8145c:	6b00003f 	cmp	w1, w0
   81460:	54fffe49 	b.ls	81428 <EcoMain+0x5e0>  // b.plast
   81464:	f9401be1 	ldr	x1, [sp, #48]
   81468:	90000080 	adrp	x0, 91000 <g_pIVFB>
   8146c:	91000000 	add	x0, x0, #0x0
   81470:	f9000001 	str	x1, [x0]
   81474:	90000080 	adrp	x0, 91000 <g_pIVFB>
   81478:	91000000 	add	x0, x0, #0x0
   8147c:	f9400000 	ldr	x0, [x0]
   81480:	f9400000 	ldr	x0, [x0]
   81484:	f9403c08 	ldr	x8, [x0, #120]
   81488:	90000080 	adrp	x0, 91000 <g_pIVFB>
   8148c:	91000000 	add	x0, x0, #0x0
   81490:	f9400009 	ldr	x9, [x0]
   81494:	90000240 	adrp	x0, c9000 <g_xCEcoStackTask1List_C761620F+0x37e20>
   81498:	91200000 	add	x0, x0, #0x800
   8149c:	52800227 	mov	w7, #0x11                  	// #17
   814a0:	aa0003e6 	mov	x6, x0
   814a4:	52800045 	mov	w5, #0x2                   	// #2
   814a8:	528000c4 	mov	w4, #0x6                   	// #6
   814ac:	52800043 	mov	w3, #0x2                   	// #2
   814b0:	52800002 	mov	w2, #0x0                   	// #0
   814b4:	52800001 	mov	w1, #0x0                   	// #0
   814b8:	aa0903e0 	mov	x0, x9
   814bc:	d63f0100 	blr	x8
   814c0:	90000080 	adrp	x0, 91000 <g_pIVFB>
   814c4:	91000000 	add	x0, x0, #0x0
   814c8:	f9400000 	ldr	x0, [x0]
   814cc:	f9400000 	ldr	x0, [x0]
   814d0:	f9403c08 	ldr	x8, [x0, #120]
   814d4:	90000080 	adrp	x0, 91000 <g_pIVFB>
   814d8:	91000000 	add	x0, x0, #0x0
   814dc:	f9400009 	ldr	x9, [x0]
   814e0:	90000240 	adrp	x0, c9000 <g_xCEcoStackTask1List_C761620F+0x37e20>
   814e4:	91206000 	add	x0, x0, #0x818
   814e8:	52800207 	mov	w7, #0x10                  	// #16
   814ec:	aa0003e6 	mov	x6, x0
   814f0:	52800045 	mov	w5, #0x2                   	// #2
   814f4:	528000e4 	mov	w4, #0x7                   	// #7
   814f8:	52800043 	mov	w3, #0x2                   	// #2
   814fc:	52800002 	mov	w2, #0x0                   	// #0
   81500:	52800001 	mov	w1, #0x0                   	// #0
   81504:	aa0903e0 	mov	x0, x9
   81508:	d63f0100 	blr	x8
   8150c:	90000080 	adrp	x0, 91000 <g_pIVFB>
   81510:	91000000 	add	x0, x0, #0x0
   81514:	f9400000 	ldr	x0, [x0]
   81518:	f9400000 	ldr	x0, [x0]
   8151c:	f9403c08 	ldr	x8, [x0, #120]
   81520:	90000080 	adrp	x0, 91000 <g_pIVFB>
   81524:	91000000 	add	x0, x0, #0x0
   81528:	f9400009 	ldr	x9, [x0]
   8152c:	90000240 	adrp	x0, c9000 <g_xCEcoStackTask1List_C761620F+0x37e20>
   81530:	9120c000 	add	x0, x0, #0x830
   81534:	52800227 	mov	w7, #0x11                  	// #17
   81538:	aa0003e6 	mov	x6, x0
   8153c:	52800045 	mov	w5, #0x2                   	// #2
   81540:	52800104 	mov	w4, #0x8                   	// #8
   81544:	52800043 	mov	w3, #0x2                   	// #2
   81548:	52800002 	mov	w2, #0x0                   	// #0
   8154c:	52800001 	mov	w1, #0x0                   	// #0
   81550:	aa0903e0 	mov	x0, x9
   81554:	d63f0100 	blr	x8
   81558:	f9402be0 	ldr	x0, [sp, #80]
   8155c:	f9400000 	ldr	x0, [x0]
   81560:	f9402c01 	ldr	x1, [x0, #88]
   81564:	f9402be0 	ldr	x0, [sp, #80]
   81568:	d63f0020 	blr	x1
   8156c:	d503201f 	nop
   81570:	17ffffff 	b	8156c <EcoMain+0x724>
   81574:	d503201f 	nop
   81578:	1400000c 	b	815a8 <EcoMain+0x760>
   8157c:	d503201f 	nop
   81580:	1400000a 	b	815a8 <EcoMain+0x760>
   81584:	d503201f 	nop
   81588:	14000008 	b	815a8 <EcoMain+0x760>
   8158c:	d503201f 	nop
   81590:	14000006 	b	815a8 <EcoMain+0x760>
   81594:	d503201f 	nop
   81598:	14000004 	b	815a8 <EcoMain+0x760>
   8159c:	d503201f 	nop
   815a0:	14000002 	b	815a8 <EcoMain+0x760>
   815a4:	d503201f 	nop
   815a8:	f94037e0 	ldr	x0, [sp, #104]
   815ac:	f100001f 	cmp	x0, #0x0
   815b0:	540000c0 	b.eq	815c8 <EcoMain+0x780>  // b.none
   815b4:	f94037e0 	ldr	x0, [sp, #104]
   815b8:	f9400000 	ldr	x0, [x0]
   815bc:	f9400801 	ldr	x1, [x0, #16]
   815c0:	f94037e0 	ldr	x0, [sp, #104]
   815c4:	d63f0020 	blr	x1
   815c8:	f94047e0 	ldr	x0, [sp, #136]
   815cc:	f100001f 	cmp	x0, #0x0
   815d0:	540000c0 	b.eq	815e8 <EcoMain+0x7a0>  // b.none
   815d4:	f94047e0 	ldr	x0, [sp, #136]
   815d8:	f9400000 	ldr	x0, [x0]
   815dc:	f9400801 	ldr	x1, [x0, #16]
   815e0:	f94047e0 	ldr	x0, [sp, #136]
   815e4:	d63f0020 	blr	x1
   815e8:	f9401be0 	ldr	x0, [sp, #48]
   815ec:	f100001f 	cmp	x0, #0x0
   815f0:	540000c0 	b.eq	81608 <EcoMain+0x7c0>  // b.none
   815f4:	f9401be0 	ldr	x0, [sp, #48]
   815f8:	f9400000 	ldr	x0, [x0]
   815fc:	f9400801 	ldr	x1, [x0, #16]
   81600:	f9401be0 	ldr	x0, [sp, #48]
   81604:	d63f0020 	blr	x1
   81608:	f9404be0 	ldr	x0, [sp, #144]
   8160c:	f100001f 	cmp	x0, #0x0
   81610:	540000c0 	b.eq	81628 <EcoMain+0x7e0>  // b.none
   81614:	f9404be0 	ldr	x0, [sp, #144]
   81618:	f9400000 	ldr	x0, [x0]
   8161c:	f9400801 	ldr	x1, [x0, #16]
   81620:	f9404be0 	ldr	x0, [sp, #144]
   81624:	d63f0020 	blr	x1
   81628:	79c13fe0 	ldrsh	w0, [sp, #158]
   8162c:	f84a07fe 	ldr	x30, [sp], #160
   81630:	d65f03c0 	ret
   81634:	00000000 	.inst	0x00000000 ; undefined

0000000000081638 <CoreExecute>:
   81638:	f2401c00 	ands	x0, x0, #0xff
   8163c:	540001a0 	b.eq	81670 <CoreExecuteFail>  // b.none
   81640:	580001c3 	ldr	x3, 81678 <CoreExecuteFail+0x8>
   81644:	b9400062 	ldr	w2, [x3]
   81648:	6b02001f 	cmp	w0, w2
   8164c:	54000122 	b.cs	81670 <CoreExecuteFail>  // b.hs, b.nlast
   81650:	d2800006 	mov	x6, #0x0                   	// #0
   81654:	2a0003e6 	mov	w6, w0
   81658:	d2801b05 	mov	x5, #0xd8                  	// #216
   8165c:	f82678a1 	str	x1, [x5, x6, lsl #3]
   81660:	d5033f9f 	dsb	sy
   81664:	d503209f 	sev
   81668:	d2800020 	mov	x0, #0x1                   	// #1
   8166c:	d65f03c0 	ret

0000000000081670 <CoreExecuteFail>:
   81670:	d2800000 	mov	x0, #0x0                   	// #0
   81674:	d65f03c0 	ret
   81678:	0008f604 	.word	0x0008f604
   8167c:	00000000 	.word	0x00000000

0000000000081680 <PUT32>:
   81680:	b9000001 	str	w1, [x0]
   81684:	d65f03c0 	ret

0000000000081688 <GET32>:
   81688:	b9400000 	ldr	w0, [x0]
   8168c:	d65f03c0 	ret

0000000000081690 <ARMaddrToGPUaddr>:
   81690:	d2b80001 	mov	x1, #0xc0000000            	// #3221225472
   81694:	aa010000 	orr	x0, x0, x1
   81698:	d65f03c0 	ret

000000000008169c <GPUaddrToARMaddr>:
   8169c:	d2b80001 	mov	x1, #0xc0000000            	// #3221225472
   816a0:	8a210000 	bic	x0, x0, x1
   816a4:	d65f03c0 	ret
	...

0000000000081800 <setTimerIrqAddress>:
   81800:	d50342df 	msr	daifset, #0x2
   81804:	580000a1 	ldr	x1, 81818 <setTimerIrqAddress+0x18>
   81808:	f9400022 	ldr	x2, [x1]
   8180c:	f9000020 	str	x0, [x1]
   81810:	aa0203e0 	mov	x0, x2
   81814:	d65f03c0 	ret
   81818:	0008f618 	.word	0x0008f618
   8181c:	00000000 	.word	0x00000000

0000000000081820 <irq_handler_stub>:
   81820:	a9bf7bfd 	stp	x29, x30, [sp, #-16]!
   81824:	a9bf73fb 	stp	x27, x28, [sp, #-16]!
   81828:	a9bf6bf9 	stp	x25, x26, [sp, #-16]!
   8182c:	a9bf63f7 	stp	x23, x24, [sp, #-16]!
   81830:	a9bf5bf5 	stp	x21, x22, [sp, #-16]!
   81834:	a9bf53f3 	stp	x19, x20, [sp, #-16]!
   81838:	a9bf4bf1 	stp	x17, x18, [sp, #-16]!
   8183c:	a9bf43ef 	stp	x15, x16, [sp, #-16]!
   81840:	a9bf3bed 	stp	x13, x14, [sp, #-16]!
   81844:	a9bf33eb 	stp	x11, x12, [sp, #-16]!
   81848:	a9bf2be9 	stp	x9, x10, [sp, #-16]!
   8184c:	a9bf23e7 	stp	x7, x8, [sp, #-16]!
   81850:	a9bf1be5 	stp	x5, x6, [sp, #-16]!
   81854:	a9bf13e3 	stp	x3, x4, [sp, #-16]!
   81858:	a9bf0be1 	stp	x1, x2, [sp, #-16]!
   8185c:	f81f0fe0 	str	x0, [sp, #-16]!
   81860:	58007940 	ldr	x0, 82788 <VectorTable+0x788>
   81864:	f9400000 	ldr	x0, [x0]
   81868:	b4000040 	cbz	x0, 81870 <no_irqset>
   8186c:	d63f0000 	blr	x0

0000000000081870 <no_irqset>:
   81870:	f84107e0 	ldr	x0, [sp], #16
   81874:	a8c10be1 	ldp	x1, x2, [sp], #16
   81878:	a8c113e3 	ldp	x3, x4, [sp], #16
   8187c:	a8c11be5 	ldp	x5, x6, [sp], #16
   81880:	a8c123e7 	ldp	x7, x8, [sp], #16
   81884:	a8c12be9 	ldp	x9, x10, [sp], #16
   81888:	a8c133eb 	ldp	x11, x12, [sp], #16
   8188c:	a8c13bed 	ldp	x13, x14, [sp], #16
   81890:	a8c143ef 	ldp	x15, x16, [sp], #16
   81894:	a8c14bf1 	ldp	x17, x18, [sp], #16
   81898:	a8c153f3 	ldp	x19, x20, [sp], #16
   8189c:	a8c15bf5 	ldp	x21, x22, [sp], #16
   818a0:	a8c163f7 	ldp	x23, x24, [sp], #16
   818a4:	a8c16bf9 	ldp	x25, x26, [sp], #16
   818a8:	a8c173fb 	ldp	x27, x28, [sp], #16
   818ac:	a8c17bfd 	ldp	x29, x30, [sp], #16
   818b0:	d69f03e0 	eret
   818b4:	d503201f 	nop
   818b8:	d503201f 	nop
   818bc:	d503201f 	nop
   818c0:	d503201f 	nop
   818c4:	d503201f 	nop
   818c8:	d503201f 	nop
   818cc:	d503201f 	nop
   818d0:	d503201f 	nop
   818d4:	d503201f 	nop
   818d8:	d503201f 	nop
   818dc:	d503201f 	nop
   818e0:	d503201f 	nop
   818e4:	d503201f 	nop
   818e8:	d503201f 	nop
   818ec:	d503201f 	nop
   818f0:	d503201f 	nop
   818f4:	d503201f 	nop
   818f8:	d503201f 	nop
   818fc:	d503201f 	nop
   81900:	d503201f 	nop
   81904:	d503201f 	nop
   81908:	d503201f 	nop
   8190c:	d503201f 	nop
   81910:	d503201f 	nop
   81914:	d503201f 	nop
   81918:	d503201f 	nop
   8191c:	d503201f 	nop
   81920:	d503201f 	nop
   81924:	d503201f 	nop
   81928:	d503201f 	nop
   8192c:	d503201f 	nop
   81930:	d503201f 	nop
   81934:	d503201f 	nop
   81938:	d503201f 	nop
   8193c:	d503201f 	nop
   81940:	d503201f 	nop
   81944:	d503201f 	nop
   81948:	d503201f 	nop
   8194c:	d503201f 	nop
   81950:	d503201f 	nop
   81954:	d503201f 	nop
   81958:	d503201f 	nop
   8195c:	d503201f 	nop
   81960:	d503201f 	nop
   81964:	d503201f 	nop
   81968:	d503201f 	nop
   8196c:	d503201f 	nop
   81970:	d503201f 	nop
   81974:	d503201f 	nop
   81978:	d503201f 	nop
   8197c:	d503201f 	nop
   81980:	d503201f 	nop
   81984:	d503201f 	nop
   81988:	d503201f 	nop
   8198c:	d503201f 	nop
   81990:	d503201f 	nop
   81994:	d503201f 	nop
   81998:	d503201f 	nop
   8199c:	d503201f 	nop
   819a0:	d503201f 	nop
   819a4:	d503201f 	nop
   819a8:	d503201f 	nop
   819ac:	d503201f 	nop
   819b0:	d503201f 	nop
   819b4:	d503201f 	nop
   819b8:	d503201f 	nop
   819bc:	d503201f 	nop
   819c0:	d503201f 	nop
   819c4:	d503201f 	nop
   819c8:	d503201f 	nop
   819cc:	d503201f 	nop
   819d0:	d503201f 	nop
   819d4:	d503201f 	nop
   819d8:	d503201f 	nop
   819dc:	d503201f 	nop
   819e0:	d503201f 	nop
   819e4:	d503201f 	nop
   819e8:	d503201f 	nop
   819ec:	d503201f 	nop
   819f0:	d503201f 	nop
   819f4:	d503201f 	nop
   819f8:	d503201f 	nop
   819fc:	d503201f 	nop
   81a00:	d503201f 	nop
   81a04:	d503201f 	nop
   81a08:	d503201f 	nop
   81a0c:	d503201f 	nop
   81a10:	d503201f 	nop
   81a14:	d503201f 	nop
   81a18:	d503201f 	nop
   81a1c:	d503201f 	nop
   81a20:	d503201f 	nop
   81a24:	d503201f 	nop
   81a28:	d503201f 	nop
   81a2c:	d503201f 	nop
   81a30:	d503201f 	nop
   81a34:	d503201f 	nop
   81a38:	d503201f 	nop
   81a3c:	d503201f 	nop
   81a40:	d503201f 	nop
   81a44:	d503201f 	nop
   81a48:	d503201f 	nop
   81a4c:	d503201f 	nop
   81a50:	d503201f 	nop
   81a54:	d503201f 	nop
   81a58:	d503201f 	nop
   81a5c:	d503201f 	nop
   81a60:	d503201f 	nop
   81a64:	d503201f 	nop
   81a68:	d503201f 	nop
   81a6c:	d503201f 	nop
   81a70:	d503201f 	nop
   81a74:	d503201f 	nop
   81a78:	d503201f 	nop
   81a7c:	d503201f 	nop
   81a80:	d503201f 	nop
   81a84:	d503201f 	nop
   81a88:	d503201f 	nop
   81a8c:	d503201f 	nop
   81a90:	d503201f 	nop
   81a94:	d503201f 	nop
   81a98:	d503201f 	nop
   81a9c:	d503201f 	nop
   81aa0:	d503201f 	nop
   81aa4:	d503201f 	nop
   81aa8:	d503201f 	nop
   81aac:	d503201f 	nop
   81ab0:	d503201f 	nop
   81ab4:	d503201f 	nop
   81ab8:	d503201f 	nop
   81abc:	d503201f 	nop
   81ac0:	d503201f 	nop
   81ac4:	d503201f 	nop
   81ac8:	d503201f 	nop
   81acc:	d503201f 	nop
   81ad0:	d503201f 	nop
   81ad4:	d503201f 	nop
   81ad8:	d503201f 	nop
   81adc:	d503201f 	nop
   81ae0:	d503201f 	nop
   81ae4:	d503201f 	nop
   81ae8:	d503201f 	nop
   81aec:	d503201f 	nop
   81af0:	d503201f 	nop
   81af4:	d503201f 	nop
   81af8:	d503201f 	nop
   81afc:	d503201f 	nop
   81b00:	d503201f 	nop
   81b04:	d503201f 	nop
   81b08:	d503201f 	nop
   81b0c:	d503201f 	nop
   81b10:	d503201f 	nop
   81b14:	d503201f 	nop
   81b18:	d503201f 	nop
   81b1c:	d503201f 	nop
   81b20:	d503201f 	nop
   81b24:	d503201f 	nop
   81b28:	d503201f 	nop
   81b2c:	d503201f 	nop
   81b30:	d503201f 	nop
   81b34:	d503201f 	nop
   81b38:	d503201f 	nop
   81b3c:	d503201f 	nop
   81b40:	d503201f 	nop
   81b44:	d503201f 	nop
   81b48:	d503201f 	nop
   81b4c:	d503201f 	nop
   81b50:	d503201f 	nop
   81b54:	d503201f 	nop
   81b58:	d503201f 	nop
   81b5c:	d503201f 	nop
   81b60:	d503201f 	nop
   81b64:	d503201f 	nop
   81b68:	d503201f 	nop
   81b6c:	d503201f 	nop
   81b70:	d503201f 	nop
   81b74:	d503201f 	nop
   81b78:	d503201f 	nop
   81b7c:	d503201f 	nop
   81b80:	d503201f 	nop
   81b84:	d503201f 	nop
   81b88:	d503201f 	nop
   81b8c:	d503201f 	nop
   81b90:	d503201f 	nop
   81b94:	d503201f 	nop
   81b98:	d503201f 	nop
   81b9c:	d503201f 	nop
   81ba0:	d503201f 	nop
   81ba4:	d503201f 	nop
   81ba8:	d503201f 	nop
   81bac:	d503201f 	nop
   81bb0:	d503201f 	nop
   81bb4:	d503201f 	nop
   81bb8:	d503201f 	nop
   81bbc:	d503201f 	nop
   81bc0:	d503201f 	nop
   81bc4:	d503201f 	nop
   81bc8:	d503201f 	nop
   81bcc:	d503201f 	nop
   81bd0:	d503201f 	nop
   81bd4:	d503201f 	nop
   81bd8:	d503201f 	nop
   81bdc:	d503201f 	nop
   81be0:	d503201f 	nop
   81be4:	d503201f 	nop
   81be8:	d503201f 	nop
   81bec:	d503201f 	nop
   81bf0:	d503201f 	nop
   81bf4:	d503201f 	nop
   81bf8:	d503201f 	nop
   81bfc:	d503201f 	nop
   81c00:	d503201f 	nop
   81c04:	d503201f 	nop
   81c08:	d503201f 	nop
   81c0c:	d503201f 	nop
   81c10:	d503201f 	nop
   81c14:	d503201f 	nop
   81c18:	d503201f 	nop
   81c1c:	d503201f 	nop
   81c20:	d503201f 	nop
   81c24:	d503201f 	nop
   81c28:	d503201f 	nop
   81c2c:	d503201f 	nop
   81c30:	d503201f 	nop
   81c34:	d503201f 	nop
   81c38:	d503201f 	nop
   81c3c:	d503201f 	nop
   81c40:	d503201f 	nop
   81c44:	d503201f 	nop
   81c48:	d503201f 	nop
   81c4c:	d503201f 	nop
   81c50:	d503201f 	nop
   81c54:	d503201f 	nop
   81c58:	d503201f 	nop
   81c5c:	d503201f 	nop
   81c60:	d503201f 	nop
   81c64:	d503201f 	nop
   81c68:	d503201f 	nop
   81c6c:	d503201f 	nop
   81c70:	d503201f 	nop
   81c74:	d503201f 	nop
   81c78:	d503201f 	nop
   81c7c:	d503201f 	nop
   81c80:	d503201f 	nop
   81c84:	d503201f 	nop
   81c88:	d503201f 	nop
   81c8c:	d503201f 	nop
   81c90:	d503201f 	nop
   81c94:	d503201f 	nop
   81c98:	d503201f 	nop
   81c9c:	d503201f 	nop
   81ca0:	d503201f 	nop
   81ca4:	d503201f 	nop
   81ca8:	d503201f 	nop
   81cac:	d503201f 	nop
   81cb0:	d503201f 	nop
   81cb4:	d503201f 	nop
   81cb8:	d503201f 	nop
   81cbc:	d503201f 	nop
   81cc0:	d503201f 	nop
   81cc4:	d503201f 	nop
   81cc8:	d503201f 	nop
   81ccc:	d503201f 	nop
   81cd0:	d503201f 	nop
   81cd4:	d503201f 	nop
   81cd8:	d503201f 	nop
   81cdc:	d503201f 	nop
   81ce0:	d503201f 	nop
   81ce4:	d503201f 	nop
   81ce8:	d503201f 	nop
   81cec:	d503201f 	nop
   81cf0:	d503201f 	nop
   81cf4:	d503201f 	nop
   81cf8:	d503201f 	nop
   81cfc:	d503201f 	nop
   81d00:	d503201f 	nop
   81d04:	d503201f 	nop
   81d08:	d503201f 	nop
   81d0c:	d503201f 	nop
   81d10:	d503201f 	nop
   81d14:	d503201f 	nop
   81d18:	d503201f 	nop
   81d1c:	d503201f 	nop
   81d20:	d503201f 	nop
   81d24:	d503201f 	nop
   81d28:	d503201f 	nop
   81d2c:	d503201f 	nop
   81d30:	d503201f 	nop
   81d34:	d503201f 	nop
   81d38:	d503201f 	nop
   81d3c:	d503201f 	nop
   81d40:	d503201f 	nop
   81d44:	d503201f 	nop
   81d48:	d503201f 	nop
   81d4c:	d503201f 	nop
   81d50:	d503201f 	nop
   81d54:	d503201f 	nop
   81d58:	d503201f 	nop
   81d5c:	d503201f 	nop
   81d60:	d503201f 	nop
   81d64:	d503201f 	nop
   81d68:	d503201f 	nop
   81d6c:	d503201f 	nop
   81d70:	d503201f 	nop
   81d74:	d503201f 	nop
   81d78:	d503201f 	nop
   81d7c:	d503201f 	nop
   81d80:	d503201f 	nop
   81d84:	d503201f 	nop
   81d88:	d503201f 	nop
   81d8c:	d503201f 	nop
   81d90:	d503201f 	nop
   81d94:	d503201f 	nop
   81d98:	d503201f 	nop
   81d9c:	d503201f 	nop
   81da0:	d503201f 	nop
   81da4:	d503201f 	nop
   81da8:	d503201f 	nop
   81dac:	d503201f 	nop
   81db0:	d503201f 	nop
   81db4:	d503201f 	nop
   81db8:	d503201f 	nop
   81dbc:	d503201f 	nop
   81dc0:	d503201f 	nop
   81dc4:	d503201f 	nop
   81dc8:	d503201f 	nop
   81dcc:	d503201f 	nop
   81dd0:	d503201f 	nop
   81dd4:	d503201f 	nop
   81dd8:	d503201f 	nop
   81ddc:	d503201f 	nop
   81de0:	d503201f 	nop
   81de4:	d503201f 	nop
   81de8:	d503201f 	nop
   81dec:	d503201f 	nop
   81df0:	d503201f 	nop
   81df4:	d503201f 	nop
   81df8:	d503201f 	nop
   81dfc:	d503201f 	nop
   81e00:	d503201f 	nop
   81e04:	d503201f 	nop
   81e08:	d503201f 	nop
   81e0c:	d503201f 	nop
   81e10:	d503201f 	nop
   81e14:	d503201f 	nop
   81e18:	d503201f 	nop
   81e1c:	d503201f 	nop
   81e20:	d503201f 	nop
   81e24:	d503201f 	nop
   81e28:	d503201f 	nop
   81e2c:	d503201f 	nop
   81e30:	d503201f 	nop
   81e34:	d503201f 	nop
   81e38:	d503201f 	nop
   81e3c:	d503201f 	nop
   81e40:	d503201f 	nop
   81e44:	d503201f 	nop
   81e48:	d503201f 	nop
   81e4c:	d503201f 	nop
   81e50:	d503201f 	nop
   81e54:	d503201f 	nop
   81e58:	d503201f 	nop
   81e5c:	d503201f 	nop
   81e60:	d503201f 	nop
   81e64:	d503201f 	nop
   81e68:	d503201f 	nop
   81e6c:	d503201f 	nop
   81e70:	d503201f 	nop
   81e74:	d503201f 	nop
   81e78:	d503201f 	nop
   81e7c:	d503201f 	nop
   81e80:	d503201f 	nop
   81e84:	d503201f 	nop
   81e88:	d503201f 	nop
   81e8c:	d503201f 	nop
   81e90:	d503201f 	nop
   81e94:	d503201f 	nop
   81e98:	d503201f 	nop
   81e9c:	d503201f 	nop
   81ea0:	d503201f 	nop
   81ea4:	d503201f 	nop
   81ea8:	d503201f 	nop
   81eac:	d503201f 	nop
   81eb0:	d503201f 	nop
   81eb4:	d503201f 	nop
   81eb8:	d503201f 	nop
   81ebc:	d503201f 	nop
   81ec0:	d503201f 	nop
   81ec4:	d503201f 	nop
   81ec8:	d503201f 	nop
   81ecc:	d503201f 	nop
   81ed0:	d503201f 	nop
   81ed4:	d503201f 	nop
   81ed8:	d503201f 	nop
   81edc:	d503201f 	nop
   81ee0:	d503201f 	nop
   81ee4:	d503201f 	nop
   81ee8:	d503201f 	nop
   81eec:	d503201f 	nop
   81ef0:	d503201f 	nop
   81ef4:	d503201f 	nop
   81ef8:	d503201f 	nop
   81efc:	d503201f 	nop
   81f00:	d503201f 	nop
   81f04:	d503201f 	nop
   81f08:	d503201f 	nop
   81f0c:	d503201f 	nop
   81f10:	d503201f 	nop
   81f14:	d503201f 	nop
   81f18:	d503201f 	nop
   81f1c:	d503201f 	nop
   81f20:	d503201f 	nop
   81f24:	d503201f 	nop
   81f28:	d503201f 	nop
   81f2c:	d503201f 	nop
   81f30:	d503201f 	nop
   81f34:	d503201f 	nop
   81f38:	d503201f 	nop
   81f3c:	d503201f 	nop
   81f40:	d503201f 	nop
   81f44:	d503201f 	nop
   81f48:	d503201f 	nop
   81f4c:	d503201f 	nop
   81f50:	d503201f 	nop
   81f54:	d503201f 	nop
   81f58:	d503201f 	nop
   81f5c:	d503201f 	nop
   81f60:	d503201f 	nop
   81f64:	d503201f 	nop
   81f68:	d503201f 	nop
   81f6c:	d503201f 	nop
   81f70:	d503201f 	nop
   81f74:	d503201f 	nop
   81f78:	d503201f 	nop
   81f7c:	d503201f 	nop
   81f80:	d503201f 	nop
   81f84:	d503201f 	nop
   81f88:	d503201f 	nop
   81f8c:	d503201f 	nop
   81f90:	d503201f 	nop
   81f94:	d503201f 	nop
   81f98:	d503201f 	nop
   81f9c:	d503201f 	nop
   81fa0:	d503201f 	nop
   81fa4:	d503201f 	nop
   81fa8:	d503201f 	nop
   81fac:	d503201f 	nop
   81fb0:	d503201f 	nop
   81fb4:	d503201f 	nop
   81fb8:	d503201f 	nop
   81fbc:	d503201f 	nop
   81fc0:	d503201f 	nop
   81fc4:	d503201f 	nop
   81fc8:	d503201f 	nop
   81fcc:	d503201f 	nop
   81fd0:	d503201f 	nop
   81fd4:	d503201f 	nop
   81fd8:	d503201f 	nop
   81fdc:	d503201f 	nop
   81fe0:	d503201f 	nop
   81fe4:	d503201f 	nop
   81fe8:	d503201f 	nop
   81fec:	d503201f 	nop
   81ff0:	d503201f 	nop
   81ff4:	d503201f 	nop
   81ff8:	d503201f 	nop
   81ffc:	d503201f 	nop

0000000000082000 <VectorTable>:
   82000:	17fff800 	b	80000 <_start>
   82004:	d503201f 	nop
   82008:	d503201f 	nop
   8200c:	d503201f 	nop
   82010:	d503201f 	nop
   82014:	d503201f 	nop
   82018:	d503201f 	nop
   8201c:	d503201f 	nop
   82020:	d503201f 	nop
   82024:	d503201f 	nop
   82028:	d503201f 	nop
   8202c:	d503201f 	nop
   82030:	d503201f 	nop
   82034:	d503201f 	nop
   82038:	d503201f 	nop
   8203c:	d503201f 	nop
   82040:	d503201f 	nop
   82044:	d503201f 	nop
   82048:	d503201f 	nop
   8204c:	d503201f 	nop
   82050:	d503201f 	nop
   82054:	d503201f 	nop
   82058:	d503201f 	nop
   8205c:	d503201f 	nop
   82060:	d503201f 	nop
   82064:	d503201f 	nop
   82068:	d503201f 	nop
   8206c:	d503201f 	nop
   82070:	d503201f 	nop
   82074:	d503201f 	nop
   82078:	d503201f 	nop
   8207c:	d503201f 	nop
   82080:	17fff84e 	b	801b8 <hang>
   82084:	d503201f 	nop
   82088:	d503201f 	nop
   8208c:	d503201f 	nop
   82090:	d503201f 	nop
   82094:	d503201f 	nop
   82098:	d503201f 	nop
   8209c:	d503201f 	nop
   820a0:	d503201f 	nop
   820a4:	d503201f 	nop
   820a8:	d503201f 	nop
   820ac:	d503201f 	nop
   820b0:	d503201f 	nop
   820b4:	d503201f 	nop
   820b8:	d503201f 	nop
   820bc:	d503201f 	nop
   820c0:	d503201f 	nop
   820c4:	d503201f 	nop
   820c8:	d503201f 	nop
   820cc:	d503201f 	nop
   820d0:	d503201f 	nop
   820d4:	d503201f 	nop
   820d8:	d503201f 	nop
   820dc:	d503201f 	nop
   820e0:	d503201f 	nop
   820e4:	d503201f 	nop
   820e8:	d503201f 	nop
   820ec:	d503201f 	nop
   820f0:	d503201f 	nop
   820f4:	d503201f 	nop
   820f8:	d503201f 	nop
   820fc:	d503201f 	nop
   82100:	17fff82e 	b	801b8 <hang>
   82104:	d503201f 	nop
   82108:	d503201f 	nop
   8210c:	d503201f 	nop
   82110:	d503201f 	nop
   82114:	d503201f 	nop
   82118:	d503201f 	nop
   8211c:	d503201f 	nop
   82120:	d503201f 	nop
   82124:	d503201f 	nop
   82128:	d503201f 	nop
   8212c:	d503201f 	nop
   82130:	d503201f 	nop
   82134:	d503201f 	nop
   82138:	d503201f 	nop
   8213c:	d503201f 	nop
   82140:	d503201f 	nop
   82144:	d503201f 	nop
   82148:	d503201f 	nop
   8214c:	d503201f 	nop
   82150:	d503201f 	nop
   82154:	d503201f 	nop
   82158:	d503201f 	nop
   8215c:	d503201f 	nop
   82160:	d503201f 	nop
   82164:	d503201f 	nop
   82168:	d503201f 	nop
   8216c:	d503201f 	nop
   82170:	d503201f 	nop
   82174:	d503201f 	nop
   82178:	d503201f 	nop
   8217c:	d503201f 	nop
   82180:	17fff80e 	b	801b8 <hang>
   82184:	d503201f 	nop
   82188:	d503201f 	nop
   8218c:	d503201f 	nop
   82190:	d503201f 	nop
   82194:	d503201f 	nop
   82198:	d503201f 	nop
   8219c:	d503201f 	nop
   821a0:	d503201f 	nop
   821a4:	d503201f 	nop
   821a8:	d503201f 	nop
   821ac:	d503201f 	nop
   821b0:	d503201f 	nop
   821b4:	d503201f 	nop
   821b8:	d503201f 	nop
   821bc:	d503201f 	nop
   821c0:	d503201f 	nop
   821c4:	d503201f 	nop
   821c8:	d503201f 	nop
   821cc:	d503201f 	nop
   821d0:	d503201f 	nop
   821d4:	d503201f 	nop
   821d8:	d503201f 	nop
   821dc:	d503201f 	nop
   821e0:	d503201f 	nop
   821e4:	d503201f 	nop
   821e8:	d503201f 	nop
   821ec:	d503201f 	nop
   821f0:	d503201f 	nop
   821f4:	d503201f 	nop
   821f8:	d503201f 	nop
   821fc:	d503201f 	nop
   82200:	17fff7ee 	b	801b8 <hang>
   82204:	d503201f 	nop
   82208:	d503201f 	nop
   8220c:	d503201f 	nop
   82210:	d503201f 	nop
   82214:	d503201f 	nop
   82218:	d503201f 	nop
   8221c:	d503201f 	nop
   82220:	d503201f 	nop
   82224:	d503201f 	nop
   82228:	d503201f 	nop
   8222c:	d503201f 	nop
   82230:	d503201f 	nop
   82234:	d503201f 	nop
   82238:	d503201f 	nop
   8223c:	d503201f 	nop
   82240:	d503201f 	nop
   82244:	d503201f 	nop
   82248:	d503201f 	nop
   8224c:	d503201f 	nop
   82250:	d503201f 	nop
   82254:	d503201f 	nop
   82258:	d503201f 	nop
   8225c:	d503201f 	nop
   82260:	d503201f 	nop
   82264:	d503201f 	nop
   82268:	d503201f 	nop
   8226c:	d503201f 	nop
   82270:	d503201f 	nop
   82274:	d503201f 	nop
   82278:	d503201f 	nop
   8227c:	d503201f 	nop
   82280:	17fffd68 	b	81820 <irq_handler_stub>
   82284:	d503201f 	nop
   82288:	d503201f 	nop
   8228c:	d503201f 	nop
   82290:	d503201f 	nop
   82294:	d503201f 	nop
   82298:	d503201f 	nop
   8229c:	d503201f 	nop
   822a0:	d503201f 	nop
   822a4:	d503201f 	nop
   822a8:	d503201f 	nop
   822ac:	d503201f 	nop
   822b0:	d503201f 	nop
   822b4:	d503201f 	nop
   822b8:	d503201f 	nop
   822bc:	d503201f 	nop
   822c0:	d503201f 	nop
   822c4:	d503201f 	nop
   822c8:	d503201f 	nop
   822cc:	d503201f 	nop
   822d0:	d503201f 	nop
   822d4:	d503201f 	nop
   822d8:	d503201f 	nop
   822dc:	d503201f 	nop
   822e0:	d503201f 	nop
   822e4:	d503201f 	nop
   822e8:	d503201f 	nop
   822ec:	d503201f 	nop
   822f0:	d503201f 	nop
   822f4:	d503201f 	nop
   822f8:	d503201f 	nop
   822fc:	d503201f 	nop
   82300:	17fff7ae 	b	801b8 <hang>
   82304:	d503201f 	nop
   82308:	d503201f 	nop
   8230c:	d503201f 	nop
   82310:	d503201f 	nop
   82314:	d503201f 	nop
   82318:	d503201f 	nop
   8231c:	d503201f 	nop
   82320:	d503201f 	nop
   82324:	d503201f 	nop
   82328:	d503201f 	nop
   8232c:	d503201f 	nop
   82330:	d503201f 	nop
   82334:	d503201f 	nop
   82338:	d503201f 	nop
   8233c:	d503201f 	nop
   82340:	d503201f 	nop
   82344:	d503201f 	nop
   82348:	d503201f 	nop
   8234c:	d503201f 	nop
   82350:	d503201f 	nop
   82354:	d503201f 	nop
   82358:	d503201f 	nop
   8235c:	d503201f 	nop
   82360:	d503201f 	nop
   82364:	d503201f 	nop
   82368:	d503201f 	nop
   8236c:	d503201f 	nop
   82370:	d503201f 	nop
   82374:	d503201f 	nop
   82378:	d503201f 	nop
   8237c:	d503201f 	nop
   82380:	17fff78e 	b	801b8 <hang>
   82384:	d503201f 	nop
   82388:	d503201f 	nop
   8238c:	d503201f 	nop
   82390:	d503201f 	nop
   82394:	d503201f 	nop
   82398:	d503201f 	nop
   8239c:	d503201f 	nop
   823a0:	d503201f 	nop
   823a4:	d503201f 	nop
   823a8:	d503201f 	nop
   823ac:	d503201f 	nop
   823b0:	d503201f 	nop
   823b4:	d503201f 	nop
   823b8:	d503201f 	nop
   823bc:	d503201f 	nop
   823c0:	d503201f 	nop
   823c4:	d503201f 	nop
   823c8:	d503201f 	nop
   823cc:	d503201f 	nop
   823d0:	d503201f 	nop
   823d4:	d503201f 	nop
   823d8:	d503201f 	nop
   823dc:	d503201f 	nop
   823e0:	d503201f 	nop
   823e4:	d503201f 	nop
   823e8:	d503201f 	nop
   823ec:	d503201f 	nop
   823f0:	d503201f 	nop
   823f4:	d503201f 	nop
   823f8:	d503201f 	nop
   823fc:	d503201f 	nop
   82400:	17fff76e 	b	801b8 <hang>
   82404:	d503201f 	nop
   82408:	d503201f 	nop
   8240c:	d503201f 	nop
   82410:	d503201f 	nop
   82414:	d503201f 	nop
   82418:	d503201f 	nop
   8241c:	d503201f 	nop
   82420:	d503201f 	nop
   82424:	d503201f 	nop
   82428:	d503201f 	nop
   8242c:	d503201f 	nop
   82430:	d503201f 	nop
   82434:	d503201f 	nop
   82438:	d503201f 	nop
   8243c:	d503201f 	nop
   82440:	d503201f 	nop
   82444:	d503201f 	nop
   82448:	d503201f 	nop
   8244c:	d503201f 	nop
   82450:	d503201f 	nop
   82454:	d503201f 	nop
   82458:	d503201f 	nop
   8245c:	d503201f 	nop
   82460:	d503201f 	nop
   82464:	d503201f 	nop
   82468:	d503201f 	nop
   8246c:	d503201f 	nop
   82470:	d503201f 	nop
   82474:	d503201f 	nop
   82478:	d503201f 	nop
   8247c:	d503201f 	nop
   82480:	17fff74e 	b	801b8 <hang>
   82484:	d503201f 	nop
   82488:	d503201f 	nop
   8248c:	d503201f 	nop
   82490:	d503201f 	nop
   82494:	d503201f 	nop
   82498:	d503201f 	nop
   8249c:	d503201f 	nop
   824a0:	d503201f 	nop
   824a4:	d503201f 	nop
   824a8:	d503201f 	nop
   824ac:	d503201f 	nop
   824b0:	d503201f 	nop
   824b4:	d503201f 	nop
   824b8:	d503201f 	nop
   824bc:	d503201f 	nop
   824c0:	d503201f 	nop
   824c4:	d503201f 	nop
   824c8:	d503201f 	nop
   824cc:	d503201f 	nop
   824d0:	d503201f 	nop
   824d4:	d503201f 	nop
   824d8:	d503201f 	nop
   824dc:	d503201f 	nop
   824e0:	d503201f 	nop
   824e4:	d503201f 	nop
   824e8:	d503201f 	nop
   824ec:	d503201f 	nop
   824f0:	d503201f 	nop
   824f4:	d503201f 	nop
   824f8:	d503201f 	nop
   824fc:	d503201f 	nop
   82500:	17fff72e 	b	801b8 <hang>
   82504:	d503201f 	nop
   82508:	d503201f 	nop
   8250c:	d503201f 	nop
   82510:	d503201f 	nop
   82514:	d503201f 	nop
   82518:	d503201f 	nop
   8251c:	d503201f 	nop
   82520:	d503201f 	nop
   82524:	d503201f 	nop
   82528:	d503201f 	nop
   8252c:	d503201f 	nop
   82530:	d503201f 	nop
   82534:	d503201f 	nop
   82538:	d503201f 	nop
   8253c:	d503201f 	nop
   82540:	d503201f 	nop
   82544:	d503201f 	nop
   82548:	d503201f 	nop
   8254c:	d503201f 	nop
   82550:	d503201f 	nop
   82554:	d503201f 	nop
   82558:	d503201f 	nop
   8255c:	d503201f 	nop
   82560:	d503201f 	nop
   82564:	d503201f 	nop
   82568:	d503201f 	nop
   8256c:	d503201f 	nop
   82570:	d503201f 	nop
   82574:	d503201f 	nop
   82578:	d503201f 	nop
   8257c:	d503201f 	nop
   82580:	17fff70e 	b	801b8 <hang>
   82584:	d503201f 	nop
   82588:	d503201f 	nop
   8258c:	d503201f 	nop
   82590:	d503201f 	nop
   82594:	d503201f 	nop
   82598:	d503201f 	nop
   8259c:	d503201f 	nop
   825a0:	d503201f 	nop
   825a4:	d503201f 	nop
   825a8:	d503201f 	nop
   825ac:	d503201f 	nop
   825b0:	d503201f 	nop
   825b4:	d503201f 	nop
   825b8:	d503201f 	nop
   825bc:	d503201f 	nop
   825c0:	d503201f 	nop
   825c4:	d503201f 	nop
   825c8:	d503201f 	nop
   825cc:	d503201f 	nop
   825d0:	d503201f 	nop
   825d4:	d503201f 	nop
   825d8:	d503201f 	nop
   825dc:	d503201f 	nop
   825e0:	d503201f 	nop
   825e4:	d503201f 	nop
   825e8:	d503201f 	nop
   825ec:	d503201f 	nop
   825f0:	d503201f 	nop
   825f4:	d503201f 	nop
   825f8:	d503201f 	nop
   825fc:	d503201f 	nop
   82600:	17fff6ee 	b	801b8 <hang>
   82604:	d503201f 	nop
   82608:	d503201f 	nop
   8260c:	d503201f 	nop
   82610:	d503201f 	nop
   82614:	d503201f 	nop
   82618:	d503201f 	nop
   8261c:	d503201f 	nop
   82620:	d503201f 	nop
   82624:	d503201f 	nop
   82628:	d503201f 	nop
   8262c:	d503201f 	nop
   82630:	d503201f 	nop
   82634:	d503201f 	nop
   82638:	d503201f 	nop
   8263c:	d503201f 	nop
   82640:	d503201f 	nop
   82644:	d503201f 	nop
   82648:	d503201f 	nop
   8264c:	d503201f 	nop
   82650:	d503201f 	nop
   82654:	d503201f 	nop
   82658:	d503201f 	nop
   8265c:	d503201f 	nop
   82660:	d503201f 	nop
   82664:	d503201f 	nop
   82668:	d503201f 	nop
   8266c:	d503201f 	nop
   82670:	d503201f 	nop
   82674:	d503201f 	nop
   82678:	d503201f 	nop
   8267c:	d503201f 	nop
   82680:	17fff6ce 	b	801b8 <hang>
   82684:	d503201f 	nop
   82688:	d503201f 	nop
   8268c:	d503201f 	nop
   82690:	d503201f 	nop
   82694:	d503201f 	nop
   82698:	d503201f 	nop
   8269c:	d503201f 	nop
   826a0:	d503201f 	nop
   826a4:	d503201f 	nop
   826a8:	d503201f 	nop
   826ac:	d503201f 	nop
   826b0:	d503201f 	nop
   826b4:	d503201f 	nop
   826b8:	d503201f 	nop
   826bc:	d503201f 	nop
   826c0:	d503201f 	nop
   826c4:	d503201f 	nop
   826c8:	d503201f 	nop
   826cc:	d503201f 	nop
   826d0:	d503201f 	nop
   826d4:	d503201f 	nop
   826d8:	d503201f 	nop
   826dc:	d503201f 	nop
   826e0:	d503201f 	nop
   826e4:	d503201f 	nop
   826e8:	d503201f 	nop
   826ec:	d503201f 	nop
   826f0:	d503201f 	nop
   826f4:	d503201f 	nop
   826f8:	d503201f 	nop
   826fc:	d503201f 	nop
   82700:	17fff6ae 	b	801b8 <hang>
   82704:	d503201f 	nop
   82708:	d503201f 	nop
   8270c:	d503201f 	nop
   82710:	d503201f 	nop
   82714:	d503201f 	nop
   82718:	d503201f 	nop
   8271c:	d503201f 	nop
   82720:	d503201f 	nop
   82724:	d503201f 	nop
   82728:	d503201f 	nop
   8272c:	d503201f 	nop
   82730:	d503201f 	nop
   82734:	d503201f 	nop
   82738:	d503201f 	nop
   8273c:	d503201f 	nop
   82740:	d503201f 	nop
   82744:	d503201f 	nop
   82748:	d503201f 	nop
   8274c:	d503201f 	nop
   82750:	d503201f 	nop
   82754:	d503201f 	nop
   82758:	d503201f 	nop
   8275c:	d503201f 	nop
   82760:	d503201f 	nop
   82764:	d503201f 	nop
   82768:	d503201f 	nop
   8276c:	d503201f 	nop
   82770:	d503201f 	nop
   82774:	d503201f 	nop
   82778:	d503201f 	nop
   8277c:	d503201f 	nop
   82780:	17fff68e 	b	801b8 <hang>
   82784:	00000000 	.inst	0x00000000 ; undefined
   82788:	0008f618 	.word	0x0008f618
   8278c:	00000000 	.word	0x00000000

0000000000082790 <CEcoMemoryManager1_4D656D31Factory_QueryInterface>:
   82790:	a9bd7bfd 	stp	x29, x30, [sp, #-48]!
   82794:	910003fd 	mov	x29, sp
   82798:	f90017a0 	str	x0, [x29, #40]
   8279c:	f90013a1 	str	x1, [x29, #32]
   827a0:	f9000fa2 	str	x2, [x29, #24]
   827a4:	f94013a0 	ldr	x0, [x29, #32]
   827a8:	39400001 	ldrb	w1, [x0]
   827ac:	f0000220 	adrp	x0, c9000 <g_xCEcoStackTask1List_C761620F+0x37e20>
   827b0:	91212000 	add	x0, x0, #0x848
   827b4:	39400000 	ldrb	w0, [x0]
   827b8:	6b00003f 	cmp	w1, w0
   827bc:	54001121 	b.ne	829e0 <CEcoMemoryManager1_4D656D31Factory_QueryInterface+0x250>  // b.any
   827c0:	f94013a0 	ldr	x0, [x29, #32]
   827c4:	91000400 	add	x0, x0, #0x1
   827c8:	39400001 	ldrb	w1, [x0]
   827cc:	f0000220 	adrp	x0, c9000 <g_xCEcoStackTask1List_C761620F+0x37e20>
   827d0:	91212400 	add	x0, x0, #0x849
   827d4:	39400000 	ldrb	w0, [x0]
   827d8:	6b00003f 	cmp	w1, w0
   827dc:	54001021 	b.ne	829e0 <CEcoMemoryManager1_4D656D31Factory_QueryInterface+0x250>  // b.any
   827e0:	f94013a0 	ldr	x0, [x29, #32]
   827e4:	91000800 	add	x0, x0, #0x2
   827e8:	39400001 	ldrb	w1, [x0]
   827ec:	f0000220 	adrp	x0, c9000 <g_xCEcoStackTask1List_C761620F+0x37e20>
   827f0:	91212800 	add	x0, x0, #0x84a
   827f4:	39400000 	ldrb	w0, [x0]
   827f8:	6b00003f 	cmp	w1, w0
   827fc:	54000f21 	b.ne	829e0 <CEcoMemoryManager1_4D656D31Factory_QueryInterface+0x250>  // b.any
   82800:	f94013a0 	ldr	x0, [x29, #32]
   82804:	91000c00 	add	x0, x0, #0x3
   82808:	39400001 	ldrb	w1, [x0]
   8280c:	f0000220 	adrp	x0, c9000 <g_xCEcoStackTask1List_C761620F+0x37e20>
   82810:	91212c00 	add	x0, x0, #0x84b
   82814:	39400000 	ldrb	w0, [x0]
   82818:	6b00003f 	cmp	w1, w0
   8281c:	54000e21 	b.ne	829e0 <CEcoMemoryManager1_4D656D31Factory_QueryInterface+0x250>  // b.any
   82820:	f94013a0 	ldr	x0, [x29, #32]
   82824:	91001000 	add	x0, x0, #0x4
   82828:	39400001 	ldrb	w1, [x0]
   8282c:	f0000220 	adrp	x0, c9000 <g_xCEcoStackTask1List_C761620F+0x37e20>
   82830:	91213000 	add	x0, x0, #0x84c
   82834:	39400000 	ldrb	w0, [x0]
   82838:	6b00003f 	cmp	w1, w0
   8283c:	54000d21 	b.ne	829e0 <CEcoMemoryManager1_4D656D31Factory_QueryInterface+0x250>  // b.any
   82840:	f94013a0 	ldr	x0, [x29, #32]
   82844:	91001400 	add	x0, x0, #0x5
   82848:	39400001 	ldrb	w1, [x0]
   8284c:	f0000220 	adrp	x0, c9000 <g_xCEcoStackTask1List_C761620F+0x37e20>
   82850:	91213400 	add	x0, x0, #0x84d
   82854:	39400000 	ldrb	w0, [x0]
   82858:	6b00003f 	cmp	w1, w0
   8285c:	54000c21 	b.ne	829e0 <CEcoMemoryManager1_4D656D31Factory_QueryInterface+0x250>  // b.any
   82860:	f94013a0 	ldr	x0, [x29, #32]
   82864:	91001800 	add	x0, x0, #0x6
   82868:	39400001 	ldrb	w1, [x0]
   8286c:	f0000220 	adrp	x0, c9000 <g_xCEcoStackTask1List_C761620F+0x37e20>
   82870:	91213800 	add	x0, x0, #0x84e
   82874:	39400000 	ldrb	w0, [x0]
   82878:	6b00003f 	cmp	w1, w0
   8287c:	54000b21 	b.ne	829e0 <CEcoMemoryManager1_4D656D31Factory_QueryInterface+0x250>  // b.any
   82880:	f94013a0 	ldr	x0, [x29, #32]
   82884:	91001c00 	add	x0, x0, #0x7
   82888:	39400001 	ldrb	w1, [x0]
   8288c:	f0000220 	adrp	x0, c9000 <g_xCEcoStackTask1List_C761620F+0x37e20>
   82890:	91213c00 	add	x0, x0, #0x84f
   82894:	39400000 	ldrb	w0, [x0]
   82898:	6b00003f 	cmp	w1, w0
   8289c:	54000a21 	b.ne	829e0 <CEcoMemoryManager1_4D656D31Factory_QueryInterface+0x250>  // b.any
   828a0:	f94013a0 	ldr	x0, [x29, #32]
   828a4:	91002000 	add	x0, x0, #0x8
   828a8:	39400001 	ldrb	w1, [x0]
   828ac:	f0000220 	adrp	x0, c9000 <g_xCEcoStackTask1List_C761620F+0x37e20>
   828b0:	91214000 	add	x0, x0, #0x850
   828b4:	39400000 	ldrb	w0, [x0]
   828b8:	6b00003f 	cmp	w1, w0
   828bc:	54000921 	b.ne	829e0 <CEcoMemoryManager1_4D656D31Factory_QueryInterface+0x250>  // b.any
   828c0:	f94013a0 	ldr	x0, [x29, #32]
   828c4:	91002400 	add	x0, x0, #0x9
   828c8:	39400001 	ldrb	w1, [x0]
   828cc:	f0000220 	adrp	x0, c9000 <g_xCEcoStackTask1List_C761620F+0x37e20>
   828d0:	91214400 	add	x0, x0, #0x851
   828d4:	39400000 	ldrb	w0, [x0]
   828d8:	6b00003f 	cmp	w1, w0
   828dc:	54000821 	b.ne	829e0 <CEcoMemoryManager1_4D656D31Factory_QueryInterface+0x250>  // b.any
   828e0:	f94013a0 	ldr	x0, [x29, #32]
   828e4:	91002800 	add	x0, x0, #0xa
   828e8:	39400001 	ldrb	w1, [x0]
   828ec:	f0000220 	adrp	x0, c9000 <g_xCEcoStackTask1List_C761620F+0x37e20>
   828f0:	91214800 	add	x0, x0, #0x852
   828f4:	39400000 	ldrb	w0, [x0]
   828f8:	6b00003f 	cmp	w1, w0
   828fc:	54000721 	b.ne	829e0 <CEcoMemoryManager1_4D656D31Factory_QueryInterface+0x250>  // b.any
   82900:	f94013a0 	ldr	x0, [x29, #32]
   82904:	91002c00 	add	x0, x0, #0xb
   82908:	39400001 	ldrb	w1, [x0]
   8290c:	f0000220 	adrp	x0, c9000 <g_xCEcoStackTask1List_C761620F+0x37e20>
   82910:	91214c00 	add	x0, x0, #0x853
   82914:	39400000 	ldrb	w0, [x0]
   82918:	6b00003f 	cmp	w1, w0
   8291c:	54000621 	b.ne	829e0 <CEcoMemoryManager1_4D656D31Factory_QueryInterface+0x250>  // b.any
   82920:	f94013a0 	ldr	x0, [x29, #32]
   82924:	91003000 	add	x0, x0, #0xc
   82928:	39400001 	ldrb	w1, [x0]
   8292c:	f0000220 	adrp	x0, c9000 <g_xCEcoStackTask1List_C761620F+0x37e20>
   82930:	91215000 	add	x0, x0, #0x854
   82934:	39400000 	ldrb	w0, [x0]
   82938:	6b00003f 	cmp	w1, w0
   8293c:	54000521 	b.ne	829e0 <CEcoMemoryManager1_4D656D31Factory_QueryInterface+0x250>  // b.any
   82940:	f94013a0 	ldr	x0, [x29, #32]
   82944:	91003400 	add	x0, x0, #0xd
   82948:	39400001 	ldrb	w1, [x0]
   8294c:	f0000220 	adrp	x0, c9000 <g_xCEcoStackTask1List_C761620F+0x37e20>
   82950:	91215400 	add	x0, x0, #0x855
   82954:	39400000 	ldrb	w0, [x0]
   82958:	6b00003f 	cmp	w1, w0
   8295c:	54000421 	b.ne	829e0 <CEcoMemoryManager1_4D656D31Factory_QueryInterface+0x250>  // b.any
   82960:	f94013a0 	ldr	x0, [x29, #32]
   82964:	91003800 	add	x0, x0, #0xe
   82968:	39400001 	ldrb	w1, [x0]
   8296c:	f0000220 	adrp	x0, c9000 <g_xCEcoStackTask1List_C761620F+0x37e20>
   82970:	91215800 	add	x0, x0, #0x856
   82974:	39400000 	ldrb	w0, [x0]
   82978:	6b00003f 	cmp	w1, w0
   8297c:	54000321 	b.ne	829e0 <CEcoMemoryManager1_4D656D31Factory_QueryInterface+0x250>  // b.any
   82980:	f94013a0 	ldr	x0, [x29, #32]
   82984:	91003c00 	add	x0, x0, #0xf
   82988:	39400001 	ldrb	w1, [x0]
   8298c:	f0000220 	adrp	x0, c9000 <g_xCEcoStackTask1List_C761620F+0x37e20>
   82990:	91215c00 	add	x0, x0, #0x857
   82994:	39400000 	ldrb	w0, [x0]
   82998:	6b00003f 	cmp	w1, w0
   8299c:	54000221 	b.ne	829e0 <CEcoMemoryManager1_4D656D31Factory_QueryInterface+0x250>  // b.any
   829a0:	f94013a0 	ldr	x0, [x29, #32]
   829a4:	91004000 	add	x0, x0, #0x10
   829a8:	39400001 	ldrb	w1, [x0]
   829ac:	f0000220 	adrp	x0, c9000 <g_xCEcoStackTask1List_C761620F+0x37e20>
   829b0:	91216000 	add	x0, x0, #0x858
   829b4:	39400000 	ldrb	w0, [x0]
   829b8:	6b00003f 	cmp	w1, w0
   829bc:	54000121 	b.ne	829e0 <CEcoMemoryManager1_4D656D31Factory_QueryInterface+0x250>  // b.any
   829c0:	f94013a0 	ldr	x0, [x29, #32]
   829c4:	91004400 	add	x0, x0, #0x11
   829c8:	39400001 	ldrb	w1, [x0]
   829cc:	f0000220 	adrp	x0, c9000 <g_xCEcoStackTask1List_C761620F+0x37e20>
   829d0:	91216400 	add	x0, x0, #0x859
   829d4:	39400000 	ldrb	w0, [x0]
   829d8:	6b00003f 	cmp	w1, w0
   829dc:	54001200 	b.eq	82c1c <CEcoMemoryManager1_4D656D31Factory_QueryInterface+0x48c>  // b.none
   829e0:	f94013a0 	ldr	x0, [x29, #32]
   829e4:	39400001 	ldrb	w1, [x0]
   829e8:	f0000220 	adrp	x0, c9000 <g_xCEcoStackTask1List_C761620F+0x37e20>
   829ec:	91218000 	add	x0, x0, #0x860
   829f0:	39400000 	ldrb	w0, [x0]
   829f4:	6b00003f 	cmp	w1, w0
   829f8:	540012a1 	b.ne	82c4c <CEcoMemoryManager1_4D656D31Factory_QueryInterface+0x4bc>  // b.any
   829fc:	f94013a0 	ldr	x0, [x29, #32]
   82a00:	91000400 	add	x0, x0, #0x1
   82a04:	39400001 	ldrb	w1, [x0]
   82a08:	f0000220 	adrp	x0, c9000 <g_xCEcoStackTask1List_C761620F+0x37e20>
   82a0c:	91218400 	add	x0, x0, #0x861
   82a10:	39400000 	ldrb	w0, [x0]
   82a14:	6b00003f 	cmp	w1, w0
   82a18:	540011a1 	b.ne	82c4c <CEcoMemoryManager1_4D656D31Factory_QueryInterface+0x4bc>  // b.any
   82a1c:	f94013a0 	ldr	x0, [x29, #32]
   82a20:	91000800 	add	x0, x0, #0x2
   82a24:	39400001 	ldrb	w1, [x0]
   82a28:	f0000220 	adrp	x0, c9000 <g_xCEcoStackTask1List_C761620F+0x37e20>
   82a2c:	91218800 	add	x0, x0, #0x862
   82a30:	39400000 	ldrb	w0, [x0]
   82a34:	6b00003f 	cmp	w1, w0
   82a38:	540010a1 	b.ne	82c4c <CEcoMemoryManager1_4D656D31Factory_QueryInterface+0x4bc>  // b.any
   82a3c:	f94013a0 	ldr	x0, [x29, #32]
   82a40:	91000c00 	add	x0, x0, #0x3
   82a44:	39400001 	ldrb	w1, [x0]
   82a48:	f0000220 	adrp	x0, c9000 <g_xCEcoStackTask1List_C761620F+0x37e20>
   82a4c:	91218c00 	add	x0, x0, #0x863
   82a50:	39400000 	ldrb	w0, [x0]
   82a54:	6b00003f 	cmp	w1, w0
   82a58:	54000fa1 	b.ne	82c4c <CEcoMemoryManager1_4D656D31Factory_QueryInterface+0x4bc>  // b.any
   82a5c:	f94013a0 	ldr	x0, [x29, #32]
   82a60:	91001000 	add	x0, x0, #0x4
   82a64:	39400001 	ldrb	w1, [x0]
   82a68:	f0000220 	adrp	x0, c9000 <g_xCEcoStackTask1List_C761620F+0x37e20>
   82a6c:	91219000 	add	x0, x0, #0x864
   82a70:	39400000 	ldrb	w0, [x0]
   82a74:	6b00003f 	cmp	w1, w0
   82a78:	54000ea1 	b.ne	82c4c <CEcoMemoryManager1_4D656D31Factory_QueryInterface+0x4bc>  // b.any
   82a7c:	f94013a0 	ldr	x0, [x29, #32]
   82a80:	91001400 	add	x0, x0, #0x5
   82a84:	39400001 	ldrb	w1, [x0]
   82a88:	f0000220 	adrp	x0, c9000 <g_xCEcoStackTask1List_C761620F+0x37e20>
   82a8c:	91219400 	add	x0, x0, #0x865
   82a90:	39400000 	ldrb	w0, [x0]
   82a94:	6b00003f 	cmp	w1, w0
   82a98:	54000da1 	b.ne	82c4c <CEcoMemoryManager1_4D656D31Factory_QueryInterface+0x4bc>  // b.any
   82a9c:	f94013a0 	ldr	x0, [x29, #32]
   82aa0:	91001800 	add	x0, x0, #0x6
   82aa4:	39400001 	ldrb	w1, [x0]
   82aa8:	f0000220 	adrp	x0, c9000 <g_xCEcoStackTask1List_C761620F+0x37e20>
   82aac:	91219800 	add	x0, x0, #0x866
   82ab0:	39400000 	ldrb	w0, [x0]
   82ab4:	6b00003f 	cmp	w1, w0
   82ab8:	54000ca1 	b.ne	82c4c <CEcoMemoryManager1_4D656D31Factory_QueryInterface+0x4bc>  // b.any
   82abc:	f94013a0 	ldr	x0, [x29, #32]
   82ac0:	91001c00 	add	x0, x0, #0x7
   82ac4:	39400001 	ldrb	w1, [x0]
   82ac8:	f0000220 	adrp	x0, c9000 <g_xCEcoStackTask1List_C761620F+0x37e20>
   82acc:	91219c00 	add	x0, x0, #0x867
   82ad0:	39400000 	ldrb	w0, [x0]
   82ad4:	6b00003f 	cmp	w1, w0
   82ad8:	54000ba1 	b.ne	82c4c <CEcoMemoryManager1_4D656D31Factory_QueryInterface+0x4bc>  // b.any
   82adc:	f94013a0 	ldr	x0, [x29, #32]
   82ae0:	91002000 	add	x0, x0, #0x8
   82ae4:	39400001 	ldrb	w1, [x0]
   82ae8:	f0000220 	adrp	x0, c9000 <g_xCEcoStackTask1List_C761620F+0x37e20>
   82aec:	9121a000 	add	x0, x0, #0x868
   82af0:	39400000 	ldrb	w0, [x0]
   82af4:	6b00003f 	cmp	w1, w0
   82af8:	54000aa1 	b.ne	82c4c <CEcoMemoryManager1_4D656D31Factory_QueryInterface+0x4bc>  // b.any
   82afc:	f94013a0 	ldr	x0, [x29, #32]
   82b00:	91002400 	add	x0, x0, #0x9
   82b04:	39400001 	ldrb	w1, [x0]
   82b08:	f0000220 	adrp	x0, c9000 <g_xCEcoStackTask1List_C761620F+0x37e20>
   82b0c:	9121a400 	add	x0, x0, #0x869
   82b10:	39400000 	ldrb	w0, [x0]
   82b14:	6b00003f 	cmp	w1, w0
   82b18:	540009a1 	b.ne	82c4c <CEcoMemoryManager1_4D656D31Factory_QueryInterface+0x4bc>  // b.any
   82b1c:	f94013a0 	ldr	x0, [x29, #32]
   82b20:	91002800 	add	x0, x0, #0xa
   82b24:	39400001 	ldrb	w1, [x0]
   82b28:	f0000220 	adrp	x0, c9000 <g_xCEcoStackTask1List_C761620F+0x37e20>
   82b2c:	9121a800 	add	x0, x0, #0x86a
   82b30:	39400000 	ldrb	w0, [x0]
   82b34:	6b00003f 	cmp	w1, w0
   82b38:	540008a1 	b.ne	82c4c <CEcoMemoryManager1_4D656D31Factory_QueryInterface+0x4bc>  // b.any
   82b3c:	f94013a0 	ldr	x0, [x29, #32]
   82b40:	91002c00 	add	x0, x0, #0xb
   82b44:	39400001 	ldrb	w1, [x0]
   82b48:	f0000220 	adrp	x0, c9000 <g_xCEcoStackTask1List_C761620F+0x37e20>
   82b4c:	9121ac00 	add	x0, x0, #0x86b
   82b50:	39400000 	ldrb	w0, [x0]
   82b54:	6b00003f 	cmp	w1, w0
   82b58:	540007a1 	b.ne	82c4c <CEcoMemoryManager1_4D656D31Factory_QueryInterface+0x4bc>  // b.any
   82b5c:	f94013a0 	ldr	x0, [x29, #32]
   82b60:	91003000 	add	x0, x0, #0xc
   82b64:	39400001 	ldrb	w1, [x0]
   82b68:	f0000220 	adrp	x0, c9000 <g_xCEcoStackTask1List_C761620F+0x37e20>
   82b6c:	9121b000 	add	x0, x0, #0x86c
   82b70:	39400000 	ldrb	w0, [x0]
   82b74:	6b00003f 	cmp	w1, w0
   82b78:	540006a1 	b.ne	82c4c <CEcoMemoryManager1_4D656D31Factory_QueryInterface+0x4bc>  // b.any
   82b7c:	f94013a0 	ldr	x0, [x29, #32]
   82b80:	91003400 	add	x0, x0, #0xd
   82b84:	39400001 	ldrb	w1, [x0]
   82b88:	f0000220 	adrp	x0, c9000 <g_xCEcoStackTask1List_C761620F+0x37e20>
   82b8c:	9121b400 	add	x0, x0, #0x86d
   82b90:	39400000 	ldrb	w0, [x0]
   82b94:	6b00003f 	cmp	w1, w0
   82b98:	540005a1 	b.ne	82c4c <CEcoMemoryManager1_4D656D31Factory_QueryInterface+0x4bc>  // b.any
   82b9c:	f94013a0 	ldr	x0, [x29, #32]
   82ba0:	91003800 	add	x0, x0, #0xe
   82ba4:	39400001 	ldrb	w1, [x0]
   82ba8:	f0000220 	adrp	x0, c9000 <g_xCEcoStackTask1List_C761620F+0x37e20>
   82bac:	9121b800 	add	x0, x0, #0x86e
   82bb0:	39400000 	ldrb	w0, [x0]
   82bb4:	6b00003f 	cmp	w1, w0
   82bb8:	540004a1 	b.ne	82c4c <CEcoMemoryManager1_4D656D31Factory_QueryInterface+0x4bc>  // b.any
   82bbc:	f94013a0 	ldr	x0, [x29, #32]
   82bc0:	91003c00 	add	x0, x0, #0xf
   82bc4:	39400001 	ldrb	w1, [x0]
   82bc8:	f0000220 	adrp	x0, c9000 <g_xCEcoStackTask1List_C761620F+0x37e20>
   82bcc:	9121bc00 	add	x0, x0, #0x86f
   82bd0:	39400000 	ldrb	w0, [x0]
   82bd4:	6b00003f 	cmp	w1, w0
   82bd8:	540003a1 	b.ne	82c4c <CEcoMemoryManager1_4D656D31Factory_QueryInterface+0x4bc>  // b.any
   82bdc:	f94013a0 	ldr	x0, [x29, #32]
   82be0:	91004000 	add	x0, x0, #0x10
   82be4:	39400001 	ldrb	w1, [x0]
   82be8:	f0000220 	adrp	x0, c9000 <g_xCEcoStackTask1List_C761620F+0x37e20>
   82bec:	9121c000 	add	x0, x0, #0x870
   82bf0:	39400000 	ldrb	w0, [x0]
   82bf4:	6b00003f 	cmp	w1, w0
   82bf8:	540002a1 	b.ne	82c4c <CEcoMemoryManager1_4D656D31Factory_QueryInterface+0x4bc>  // b.any
   82bfc:	f94013a0 	ldr	x0, [x29, #32]
   82c00:	91004400 	add	x0, x0, #0x11
   82c04:	39400001 	ldrb	w1, [x0]
   82c08:	f0000220 	adrp	x0, c9000 <g_xCEcoStackTask1List_C761620F+0x37e20>
   82c0c:	9121c400 	add	x0, x0, #0x871
   82c10:	39400000 	ldrb	w0, [x0]
   82c14:	6b00003f 	cmp	w1, w0
   82c18:	540001a1 	b.ne	82c4c <CEcoMemoryManager1_4D656D31Factory_QueryInterface+0x4bc>  // b.any
   82c1c:	f9400fa0 	ldr	x0, [x29, #24]
   82c20:	f94017a1 	ldr	x1, [x29, #40]
   82c24:	f9000001 	str	x1, [x0]
   82c28:	f9400fa0 	ldr	x0, [x29, #24]
   82c2c:	f9400000 	ldr	x0, [x0]
   82c30:	f9400000 	ldr	x0, [x0]
   82c34:	f9400401 	ldr	x1, [x0, #8]
   82c38:	f9400fa0 	ldr	x0, [x29, #24]
   82c3c:	f9400000 	ldr	x0, [x0]
   82c40:	d63f0020 	blr	x1
   82c44:	52800000 	mov	w0, #0x0                   	// #0
   82c48:	14000004 	b	82c58 <CEcoMemoryManager1_4D656D31Factory_QueryInterface+0x4c8>
   82c4c:	f9400fa0 	ldr	x0, [x29, #24]
   82c50:	f900001f 	str	xzr, [x0]
   82c54:	12800000 	mov	w0, #0xffffffff            	// #-1
   82c58:	a8c37bfd 	ldp	x29, x30, [sp], #48
   82c5c:	d65f03c0 	ret

0000000000082c60 <CEcoMemoryManager1_4D656D31Factory_AddRef>:
   82c60:	d10083ff 	sub	sp, sp, #0x20
   82c64:	f90007e0 	str	x0, [sp, #8]
   82c68:	f94007e0 	ldr	x0, [sp, #8]
   82c6c:	f9000fe0 	str	x0, [sp, #24]
   82c70:	f94007e0 	ldr	x0, [sp, #8]
   82c74:	f100001f 	cmp	x0, #0x0
   82c78:	54000061 	b.ne	82c84 <CEcoMemoryManager1_4D656D31Factory_AddRef+0x24>  // b.any
   82c7c:	12800000 	mov	w0, #0xffffffff            	// #-1
   82c80:	14000007 	b	82c9c <CEcoMemoryManager1_4D656D31Factory_AddRef+0x3c>
   82c84:	f9400fe0 	ldr	x0, [sp, #24]
   82c88:	b9400800 	ldr	w0, [x0, #8]
   82c8c:	11000402 	add	w2, w0, #0x1
   82c90:	f9400fe1 	ldr	x1, [sp, #24]
   82c94:	b9000822 	str	w2, [x1, #8]
   82c98:	d503201f 	nop
   82c9c:	910083ff 	add	sp, sp, #0x20
   82ca0:	d65f03c0 	ret

0000000000082ca4 <CEcoMemoryManager1_4D656D31Factory_Release>:
   82ca4:	d10083ff 	sub	sp, sp, #0x20
   82ca8:	f90007e0 	str	x0, [sp, #8]
   82cac:	f94007e0 	ldr	x0, [sp, #8]
   82cb0:	f9000fe0 	str	x0, [sp, #24]
   82cb4:	f94007e0 	ldr	x0, [sp, #8]
   82cb8:	f100001f 	cmp	x0, #0x0
   82cbc:	54000061 	b.ne	82cc8 <CEcoMemoryManager1_4D656D31Factory_Release+0x24>  // b.any
   82cc0:	12800000 	mov	w0, #0xffffffff            	// #-1
   82cc4:	1400000e 	b	82cfc <CEcoMemoryManager1_4D656D31Factory_Release+0x58>
   82cc8:	f9400fe0 	ldr	x0, [sp, #24]
   82ccc:	b9400800 	ldr	w0, [x0, #8]
   82cd0:	51000401 	sub	w1, w0, #0x1
   82cd4:	f9400fe0 	ldr	x0, [sp, #24]
   82cd8:	b9000801 	str	w1, [x0, #8]
   82cdc:	f9400fe0 	ldr	x0, [sp, #24]
   82ce0:	b9400800 	ldr	w0, [x0, #8]
   82ce4:	7100001f 	cmp	w0, #0x0
   82ce8:	54000061 	b.ne	82cf4 <CEcoMemoryManager1_4D656D31Factory_Release+0x50>  // b.any
   82cec:	52800000 	mov	w0, #0x0                   	// #0
   82cf0:	14000003 	b	82cfc <CEcoMemoryManager1_4D656D31Factory_Release+0x58>
   82cf4:	f9400fe0 	ldr	x0, [sp, #24]
   82cf8:	b9400800 	ldr	w0, [x0, #8]
   82cfc:	910083ff 	add	sp, sp, #0x20
   82d00:	d65f03c0 	ret

0000000000082d04 <CEcoMemoryManager1_4D656D31Factory_Init>:
   82d04:	d100c3ff 	sub	sp, sp, #0x30
   82d08:	f9000fe0 	str	x0, [sp, #24]
   82d0c:	f9000be1 	str	x1, [sp, #16]
   82d10:	f90007e2 	str	x2, [sp, #8]
   82d14:	12800000 	mov	w0, #0xffffffff            	// #-1
   82d18:	79005fe0 	strh	w0, [sp, #46]
   82d1c:	f9400fe0 	ldr	x0, [sp, #24]
   82d20:	f100001f 	cmp	x0, #0x0
   82d24:	54000061 	b.ne	82d30 <CEcoMemoryManager1_4D656D31Factory_Init+0x2c>  // b.any
   82d28:	12800000 	mov	w0, #0xffffffff            	// #-1
   82d2c:	14000002 	b	82d34 <CEcoMemoryManager1_4D656D31Factory_Init+0x30>
   82d30:	79c05fe0 	ldrsh	w0, [sp, #46]
   82d34:	9100c3ff 	add	sp, sp, #0x30
   82d38:	d65f03c0 	ret

0000000000082d3c <CEcoMemoryManager1_4D656D31Factory_Alloc>:
   82d3c:	a9ba7bfd 	stp	x29, x30, [sp, #-96]!
   82d40:	910003fd 	mov	x29, sp
   82d44:	f9001fa0 	str	x0, [x29, #56]
   82d48:	f9001ba1 	str	x1, [x29, #48]
   82d4c:	f90017a2 	str	x2, [x29, #40]
   82d50:	f90013a3 	str	x3, [x29, #32]
   82d54:	f9000fa4 	str	x4, [x29, #24]
   82d58:	f9401fa0 	ldr	x0, [x29, #56]
   82d5c:	f9002fa0 	str	x0, [x29, #88]
   82d60:	f90027bf 	str	xzr, [x29, #72]
   82d64:	12800000 	mov	w0, #0xffffffff            	// #-1
   82d68:	7900afa0 	strh	w0, [x29, #86]
   82d6c:	f9401fa0 	ldr	x0, [x29, #56]
   82d70:	f100001f 	cmp	x0, #0x0
   82d74:	54000061 	b.ne	82d80 <CEcoMemoryManager1_4D656D31Factory_Alloc+0x44>  // b.any
   82d78:	12800000 	mov	w0, #0xffffffff            	// #-1
   82d7c:	140000b3 	b	83048 <CEcoMemoryManager1_4D656D31Factory_Alloc+0x30c>
   82d80:	f94017a0 	ldr	x0, [x29, #40]
   82d84:	f100001f 	cmp	x0, #0x0
   82d88:	54001240 	b.eq	82fd0 <CEcoMemoryManager1_4D656D31Factory_Alloc+0x294>  // b.none
   82d8c:	f94013a0 	ldr	x0, [x29, #32]
   82d90:	39400001 	ldrb	w1, [x0]
   82d94:	f0000220 	adrp	x0, c9000 <g_xCEcoStackTask1List_C761620F+0x37e20>
   82d98:	91212000 	add	x0, x0, #0x848
   82d9c:	39400000 	ldrb	w0, [x0]
   82da0:	6b00003f 	cmp	w1, w0
   82da4:	54001121 	b.ne	82fc8 <CEcoMemoryManager1_4D656D31Factory_Alloc+0x28c>  // b.any
   82da8:	f94013a0 	ldr	x0, [x29, #32]
   82dac:	91000400 	add	x0, x0, #0x1
   82db0:	39400001 	ldrb	w1, [x0]
   82db4:	f0000220 	adrp	x0, c9000 <g_xCEcoStackTask1List_C761620F+0x37e20>
   82db8:	91212400 	add	x0, x0, #0x849
   82dbc:	39400000 	ldrb	w0, [x0]
   82dc0:	6b00003f 	cmp	w1, w0
   82dc4:	54001021 	b.ne	82fc8 <CEcoMemoryManager1_4D656D31Factory_Alloc+0x28c>  // b.any
   82dc8:	f94013a0 	ldr	x0, [x29, #32]
   82dcc:	91000800 	add	x0, x0, #0x2
   82dd0:	39400001 	ldrb	w1, [x0]
   82dd4:	f0000220 	adrp	x0, c9000 <g_xCEcoStackTask1List_C761620F+0x37e20>
   82dd8:	91212800 	add	x0, x0, #0x84a
   82ddc:	39400000 	ldrb	w0, [x0]
   82de0:	6b00003f 	cmp	w1, w0
   82de4:	54000f21 	b.ne	82fc8 <CEcoMemoryManager1_4D656D31Factory_Alloc+0x28c>  // b.any
   82de8:	f94013a0 	ldr	x0, [x29, #32]
   82dec:	91000c00 	add	x0, x0, #0x3
   82df0:	39400001 	ldrb	w1, [x0]
   82df4:	f0000220 	adrp	x0, c9000 <g_xCEcoStackTask1List_C761620F+0x37e20>
   82df8:	91212c00 	add	x0, x0, #0x84b
   82dfc:	39400000 	ldrb	w0, [x0]
   82e00:	6b00003f 	cmp	w1, w0
   82e04:	54000e21 	b.ne	82fc8 <CEcoMemoryManager1_4D656D31Factory_Alloc+0x28c>  // b.any
   82e08:	f94013a0 	ldr	x0, [x29, #32]
   82e0c:	91001000 	add	x0, x0, #0x4
   82e10:	39400001 	ldrb	w1, [x0]
   82e14:	f0000220 	adrp	x0, c9000 <g_xCEcoStackTask1List_C761620F+0x37e20>
   82e18:	91213000 	add	x0, x0, #0x84c
   82e1c:	39400000 	ldrb	w0, [x0]
   82e20:	6b00003f 	cmp	w1, w0
   82e24:	54000d21 	b.ne	82fc8 <CEcoMemoryManager1_4D656D31Factory_Alloc+0x28c>  // b.any
   82e28:	f94013a0 	ldr	x0, [x29, #32]
   82e2c:	91001400 	add	x0, x0, #0x5
   82e30:	39400001 	ldrb	w1, [x0]
   82e34:	f0000220 	adrp	x0, c9000 <g_xCEcoStackTask1List_C761620F+0x37e20>
   82e38:	91213400 	add	x0, x0, #0x84d
   82e3c:	39400000 	ldrb	w0, [x0]
   82e40:	6b00003f 	cmp	w1, w0
   82e44:	54000c21 	b.ne	82fc8 <CEcoMemoryManager1_4D656D31Factory_Alloc+0x28c>  // b.any
   82e48:	f94013a0 	ldr	x0, [x29, #32]
   82e4c:	91001800 	add	x0, x0, #0x6
   82e50:	39400001 	ldrb	w1, [x0]
   82e54:	f0000220 	adrp	x0, c9000 <g_xCEcoStackTask1List_C761620F+0x37e20>
   82e58:	91213800 	add	x0, x0, #0x84e
   82e5c:	39400000 	ldrb	w0, [x0]
   82e60:	6b00003f 	cmp	w1, w0
   82e64:	54000b21 	b.ne	82fc8 <CEcoMemoryManager1_4D656D31Factory_Alloc+0x28c>  // b.any
   82e68:	f94013a0 	ldr	x0, [x29, #32]
   82e6c:	91001c00 	add	x0, x0, #0x7
   82e70:	39400001 	ldrb	w1, [x0]
   82e74:	f0000220 	adrp	x0, c9000 <g_xCEcoStackTask1List_C761620F+0x37e20>
   82e78:	91213c00 	add	x0, x0, #0x84f
   82e7c:	39400000 	ldrb	w0, [x0]
   82e80:	6b00003f 	cmp	w1, w0
   82e84:	54000a21 	b.ne	82fc8 <CEcoMemoryManager1_4D656D31Factory_Alloc+0x28c>  // b.any
   82e88:	f94013a0 	ldr	x0, [x29, #32]
   82e8c:	91002000 	add	x0, x0, #0x8
   82e90:	39400001 	ldrb	w1, [x0]
   82e94:	f0000220 	adrp	x0, c9000 <g_xCEcoStackTask1List_C761620F+0x37e20>
   82e98:	91214000 	add	x0, x0, #0x850
   82e9c:	39400000 	ldrb	w0, [x0]
   82ea0:	6b00003f 	cmp	w1, w0
   82ea4:	54000921 	b.ne	82fc8 <CEcoMemoryManager1_4D656D31Factory_Alloc+0x28c>  // b.any
   82ea8:	f94013a0 	ldr	x0, [x29, #32]
   82eac:	91002400 	add	x0, x0, #0x9
   82eb0:	39400001 	ldrb	w1, [x0]
   82eb4:	f0000220 	adrp	x0, c9000 <g_xCEcoStackTask1List_C761620F+0x37e20>
   82eb8:	91214400 	add	x0, x0, #0x851
   82ebc:	39400000 	ldrb	w0, [x0]
   82ec0:	6b00003f 	cmp	w1, w0
   82ec4:	54000821 	b.ne	82fc8 <CEcoMemoryManager1_4D656D31Factory_Alloc+0x28c>  // b.any
   82ec8:	f94013a0 	ldr	x0, [x29, #32]
   82ecc:	91002800 	add	x0, x0, #0xa
   82ed0:	39400001 	ldrb	w1, [x0]
   82ed4:	f0000220 	adrp	x0, c9000 <g_xCEcoStackTask1List_C761620F+0x37e20>
   82ed8:	91214800 	add	x0, x0, #0x852
   82edc:	39400000 	ldrb	w0, [x0]
   82ee0:	6b00003f 	cmp	w1, w0
   82ee4:	54000721 	b.ne	82fc8 <CEcoMemoryManager1_4D656D31Factory_Alloc+0x28c>  // b.any
   82ee8:	f94013a0 	ldr	x0, [x29, #32]
   82eec:	91002c00 	add	x0, x0, #0xb
   82ef0:	39400001 	ldrb	w1, [x0]
   82ef4:	f0000220 	adrp	x0, c9000 <g_xCEcoStackTask1List_C761620F+0x37e20>
   82ef8:	91214c00 	add	x0, x0, #0x853
   82efc:	39400000 	ldrb	w0, [x0]
   82f00:	6b00003f 	cmp	w1, w0
   82f04:	54000621 	b.ne	82fc8 <CEcoMemoryManager1_4D656D31Factory_Alloc+0x28c>  // b.any
   82f08:	f94013a0 	ldr	x0, [x29, #32]
   82f0c:	91003000 	add	x0, x0, #0xc
   82f10:	39400001 	ldrb	w1, [x0]
   82f14:	f0000220 	adrp	x0, c9000 <g_xCEcoStackTask1List_C761620F+0x37e20>
   82f18:	91215000 	add	x0, x0, #0x854
   82f1c:	39400000 	ldrb	w0, [x0]
   82f20:	6b00003f 	cmp	w1, w0
   82f24:	54000521 	b.ne	82fc8 <CEcoMemoryManager1_4D656D31Factory_Alloc+0x28c>  // b.any
   82f28:	f94013a0 	ldr	x0, [x29, #32]
   82f2c:	91003400 	add	x0, x0, #0xd
   82f30:	39400001 	ldrb	w1, [x0]
   82f34:	f0000220 	adrp	x0, c9000 <g_xCEcoStackTask1List_C761620F+0x37e20>
   82f38:	91215400 	add	x0, x0, #0x855
   82f3c:	39400000 	ldrb	w0, [x0]
   82f40:	6b00003f 	cmp	w1, w0
   82f44:	54000421 	b.ne	82fc8 <CEcoMemoryManager1_4D656D31Factory_Alloc+0x28c>  // b.any
   82f48:	f94013a0 	ldr	x0, [x29, #32]
   82f4c:	91003800 	add	x0, x0, #0xe
   82f50:	39400001 	ldrb	w1, [x0]
   82f54:	f0000220 	adrp	x0, c9000 <g_xCEcoStackTask1List_C761620F+0x37e20>
   82f58:	91215800 	add	x0, x0, #0x856
   82f5c:	39400000 	ldrb	w0, [x0]
   82f60:	6b00003f 	cmp	w1, w0
   82f64:	54000321 	b.ne	82fc8 <CEcoMemoryManager1_4D656D31Factory_Alloc+0x28c>  // b.any
   82f68:	f94013a0 	ldr	x0, [x29, #32]
   82f6c:	91003c00 	add	x0, x0, #0xf
   82f70:	39400001 	ldrb	w1, [x0]
   82f74:	f0000220 	adrp	x0, c9000 <g_xCEcoStackTask1List_C761620F+0x37e20>
   82f78:	91215c00 	add	x0, x0, #0x857
   82f7c:	39400000 	ldrb	w0, [x0]
   82f80:	6b00003f 	cmp	w1, w0
   82f84:	54000221 	b.ne	82fc8 <CEcoMemoryManager1_4D656D31Factory_Alloc+0x28c>  // b.any
   82f88:	f94013a0 	ldr	x0, [x29, #32]
   82f8c:	91004000 	add	x0, x0, #0x10
   82f90:	39400001 	ldrb	w1, [x0]
   82f94:	f0000220 	adrp	x0, c9000 <g_xCEcoStackTask1List_C761620F+0x37e20>
   82f98:	91216000 	add	x0, x0, #0x858
   82f9c:	39400000 	ldrb	w0, [x0]
   82fa0:	6b00003f 	cmp	w1, w0
   82fa4:	54000121 	b.ne	82fc8 <CEcoMemoryManager1_4D656D31Factory_Alloc+0x28c>  // b.any
   82fa8:	f94013a0 	ldr	x0, [x29, #32]
   82fac:	91004400 	add	x0, x0, #0x11
   82fb0:	39400001 	ldrb	w1, [x0]
   82fb4:	f0000220 	adrp	x0, c9000 <g_xCEcoStackTask1List_C761620F+0x37e20>
   82fb8:	91216400 	add	x0, x0, #0x859
   82fbc:	39400000 	ldrb	w0, [x0]
   82fc0:	6b00003f 	cmp	w1, w0
   82fc4:	54000060 	b.eq	82fd0 <CEcoMemoryManager1_4D656D31Factory_Alloc+0x294>  // b.none
   82fc8:	12800000 	mov	w0, #0xffffffff            	// #-1
   82fcc:	1400001f 	b	83048 <CEcoMemoryManager1_4D656D31Factory_Alloc+0x30c>
   82fd0:	f9402fa0 	ldr	x0, [x29, #88]
   82fd4:	f9400803 	ldr	x3, [x0, #16]
   82fd8:	910123a0 	add	x0, x29, #0x48
   82fdc:	aa0003e2 	mov	x2, x0
   82fe0:	f94017a1 	ldr	x1, [x29, #40]
   82fe4:	f9401ba0 	ldr	x0, [x29, #48]
   82fe8:	d63f0060 	blr	x3
   82fec:	7900afa0 	strh	w0, [x29, #86]
   82ff0:	79c0afa0 	ldrsh	w0, [x29, #86]
   82ff4:	7100001f 	cmp	w0, #0x0
   82ff8:	54000081 	b.ne	83008 <CEcoMemoryManager1_4D656D31Factory_Alloc+0x2cc>  // b.any
   82ffc:	f94027a0 	ldr	x0, [x29, #72]
   83000:	f100001f 	cmp	x0, #0x0
   83004:	54000061 	b.ne	83010 <CEcoMemoryManager1_4D656D31Factory_Alloc+0x2d4>  // b.any
   83008:	12800000 	mov	w0, #0xffffffff            	// #-1
   8300c:	1400000f 	b	83048 <CEcoMemoryManager1_4D656D31Factory_Alloc+0x30c>
   83010:	f94027a0 	ldr	x0, [x29, #72]
   83014:	f9400000 	ldr	x0, [x0]
   83018:	f9400003 	ldr	x3, [x0]
   8301c:	f94027a0 	ldr	x0, [x29, #72]
   83020:	f9400fa2 	ldr	x2, [x29, #24]
   83024:	f94013a1 	ldr	x1, [x29, #32]
   83028:	d63f0060 	blr	x3
   8302c:	7900afa0 	strh	w0, [x29, #86]
   83030:	f94027a0 	ldr	x0, [x29, #72]
   83034:	f9400000 	ldr	x0, [x0]
   83038:	f9400801 	ldr	x1, [x0, #16]
   8303c:	f94027a0 	ldr	x0, [x29, #72]
   83040:	d63f0020 	blr	x1
   83044:	79c0afa0 	ldrsh	w0, [x29, #86]
   83048:	a8c67bfd 	ldp	x29, x30, [sp], #96
   8304c:	d65f03c0 	ret

0000000000083050 <CEcoMemoryManager1_4D656D31Factory_get_Name>:
   83050:	d10083ff 	sub	sp, sp, #0x20
   83054:	f90007e0 	str	x0, [sp, #8]
   83058:	f94007e0 	ldr	x0, [sp, #8]
   8305c:	f9000fe0 	str	x0, [sp, #24]
   83060:	f94007e0 	ldr	x0, [sp, #8]
   83064:	f100001f 	cmp	x0, #0x0
   83068:	54000061 	b.ne	83074 <CEcoMemoryManager1_4D656D31Factory_get_Name+0x24>  // b.any
   8306c:	d2800000 	mov	x0, #0x0                   	// #0
   83070:	14000003 	b	8307c <CEcoMemoryManager1_4D656D31Factory_get_Name+0x2c>
   83074:	f9400fe0 	ldr	x0, [sp, #24]
   83078:	91008000 	add	x0, x0, #0x20
   8307c:	910083ff 	add	sp, sp, #0x20
   83080:	d65f03c0 	ret

0000000000083084 <CEcoMemoryManager1_4D656D31Factory_get_Version>:
   83084:	d10083ff 	sub	sp, sp, #0x20
   83088:	f90007e0 	str	x0, [sp, #8]
   8308c:	f94007e0 	ldr	x0, [sp, #8]
   83090:	f9000fe0 	str	x0, [sp, #24]
   83094:	f94007e0 	ldr	x0, [sp, #8]
   83098:	f100001f 	cmp	x0, #0x0
   8309c:	54000061 	b.ne	830a8 <CEcoMemoryManager1_4D656D31Factory_get_Version+0x24>  // b.any
   830a0:	d2800000 	mov	x0, #0x0                   	// #0
   830a4:	14000003 	b	830b0 <CEcoMemoryManager1_4D656D31Factory_get_Version+0x2c>
   830a8:	f9400fe0 	ldr	x0, [sp, #24]
   830ac:	91018000 	add	x0, x0, #0x60
   830b0:	910083ff 	add	sp, sp, #0x20
   830b4:	d65f03c0 	ret

00000000000830b8 <CEcoMemoryManager1_4D656D31Factory_get_Manufacturer>:
   830b8:	d10083ff 	sub	sp, sp, #0x20
   830bc:	f90007e0 	str	x0, [sp, #8]
   830c0:	f94007e0 	ldr	x0, [sp, #8]
   830c4:	f9000fe0 	str	x0, [sp, #24]
   830c8:	f94007e0 	ldr	x0, [sp, #8]
   830cc:	f100001f 	cmp	x0, #0x0
   830d0:	54000061 	b.ne	830dc <CEcoMemoryManager1_4D656D31Factory_get_Manufacturer+0x24>  // b.any
   830d4:	d2800000 	mov	x0, #0x0                   	// #0
   830d8:	14000003 	b	830e4 <CEcoMemoryManager1_4D656D31Factory_get_Manufacturer+0x2c>
   830dc:	f9400fe0 	ldr	x0, [sp, #24]
   830e0:	9101c000 	add	x0, x0, #0x70
   830e4:	910083ff 	add	sp, sp, #0x20
   830e8:	d65f03c0 	ret

00000000000830ec <CEcoMemoryManager1_4D656D31_QueryInterface>:
   830ec:	a9bc7bfd 	stp	x29, x30, [sp, #-64]!
   830f0:	910003fd 	mov	x29, sp
   830f4:	f90017a0 	str	x0, [x29, #40]
   830f8:	f90013a1 	str	x1, [x29, #32]
   830fc:	f9000fa2 	str	x2, [x29, #24]
   83100:	f94017a0 	ldr	x0, [x29, #40]
   83104:	f9001fa0 	str	x0, [x29, #56]
   83108:	f94017a0 	ldr	x0, [x29, #40]
   8310c:	f100001f 	cmp	x0, #0x0
   83110:	54000080 	b.eq	83120 <CEcoMemoryManager1_4D656D31_QueryInterface+0x34>  // b.none
   83114:	f9400fa0 	ldr	x0, [x29, #24]
   83118:	f100001f 	cmp	x0, #0x0
   8311c:	54000061 	b.ne	83128 <CEcoMemoryManager1_4D656D31_QueryInterface+0x3c>  // b.any
   83120:	12800000 	mov	w0, #0xffffffff            	// #-1
   83124:	140001cf 	b	83860 <CEcoMemoryManager1_4D656D31_QueryInterface+0x774>
   83128:	f94013a0 	ldr	x0, [x29, #32]
   8312c:	39400001 	ldrb	w1, [x0]
   83130:	d0000220 	adrp	x0, c9000 <g_xCEcoStackTask1List_C761620F+0x37e20>
   83134:	9124e000 	add	x0, x0, #0x938
   83138:	39400000 	ldrb	w0, [x0]
   8313c:	6b00003f 	cmp	w1, w0
   83140:	54001241 	b.ne	83388 <CEcoMemoryManager1_4D656D31_QueryInterface+0x29c>  // b.any
   83144:	f94013a0 	ldr	x0, [x29, #32]
   83148:	91000400 	add	x0, x0, #0x1
   8314c:	39400001 	ldrb	w1, [x0]
   83150:	d0000220 	adrp	x0, c9000 <g_xCEcoStackTask1List_C761620F+0x37e20>
   83154:	9124e400 	add	x0, x0, #0x939
   83158:	39400000 	ldrb	w0, [x0]
   8315c:	6b00003f 	cmp	w1, w0
   83160:	54001141 	b.ne	83388 <CEcoMemoryManager1_4D656D31_QueryInterface+0x29c>  // b.any
   83164:	f94013a0 	ldr	x0, [x29, #32]
   83168:	91000800 	add	x0, x0, #0x2
   8316c:	39400001 	ldrb	w1, [x0]
   83170:	d0000220 	adrp	x0, c9000 <g_xCEcoStackTask1List_C761620F+0x37e20>
   83174:	9124e800 	add	x0, x0, #0x93a
   83178:	39400000 	ldrb	w0, [x0]
   8317c:	6b00003f 	cmp	w1, w0
   83180:	54001041 	b.ne	83388 <CEcoMemoryManager1_4D656D31_QueryInterface+0x29c>  // b.any
   83184:	f94013a0 	ldr	x0, [x29, #32]
   83188:	91000c00 	add	x0, x0, #0x3
   8318c:	39400001 	ldrb	w1, [x0]
   83190:	d0000220 	adrp	x0, c9000 <g_xCEcoStackTask1List_C761620F+0x37e20>
   83194:	9124ec00 	add	x0, x0, #0x93b
   83198:	39400000 	ldrb	w0, [x0]
   8319c:	6b00003f 	cmp	w1, w0
   831a0:	54000f41 	b.ne	83388 <CEcoMemoryManager1_4D656D31_QueryInterface+0x29c>  // b.any
   831a4:	f94013a0 	ldr	x0, [x29, #32]
   831a8:	91001000 	add	x0, x0, #0x4
   831ac:	39400001 	ldrb	w1, [x0]
   831b0:	d0000220 	adrp	x0, c9000 <g_xCEcoStackTask1List_C761620F+0x37e20>
   831b4:	9124f000 	add	x0, x0, #0x93c
   831b8:	39400000 	ldrb	w0, [x0]
   831bc:	6b00003f 	cmp	w1, w0
   831c0:	54000e41 	b.ne	83388 <CEcoMemoryManager1_4D656D31_QueryInterface+0x29c>  // b.any
   831c4:	f94013a0 	ldr	x0, [x29, #32]
   831c8:	91001400 	add	x0, x0, #0x5
   831cc:	39400001 	ldrb	w1, [x0]
   831d0:	d0000220 	adrp	x0, c9000 <g_xCEcoStackTask1List_C761620F+0x37e20>
   831d4:	9124f400 	add	x0, x0, #0x93d
   831d8:	39400000 	ldrb	w0, [x0]
   831dc:	6b00003f 	cmp	w1, w0
   831e0:	54000d41 	b.ne	83388 <CEcoMemoryManager1_4D656D31_QueryInterface+0x29c>  // b.any
   831e4:	f94013a0 	ldr	x0, [x29, #32]
   831e8:	91001800 	add	x0, x0, #0x6
   831ec:	39400001 	ldrb	w1, [x0]
   831f0:	d0000220 	adrp	x0, c9000 <g_xCEcoStackTask1List_C761620F+0x37e20>
   831f4:	9124f800 	add	x0, x0, #0x93e
   831f8:	39400000 	ldrb	w0, [x0]
   831fc:	6b00003f 	cmp	w1, w0
   83200:	54000c41 	b.ne	83388 <CEcoMemoryManager1_4D656D31_QueryInterface+0x29c>  // b.any
   83204:	f94013a0 	ldr	x0, [x29, #32]
   83208:	91001c00 	add	x0, x0, #0x7
   8320c:	39400001 	ldrb	w1, [x0]
   83210:	d0000220 	adrp	x0, c9000 <g_xCEcoStackTask1List_C761620F+0x37e20>
   83214:	9124fc00 	add	x0, x0, #0x93f
   83218:	39400000 	ldrb	w0, [x0]
   8321c:	6b00003f 	cmp	w1, w0
   83220:	54000b41 	b.ne	83388 <CEcoMemoryManager1_4D656D31_QueryInterface+0x29c>  // b.any
   83224:	f94013a0 	ldr	x0, [x29, #32]
   83228:	91002000 	add	x0, x0, #0x8
   8322c:	39400001 	ldrb	w1, [x0]
   83230:	d0000220 	adrp	x0, c9000 <g_xCEcoStackTask1List_C761620F+0x37e20>
   83234:	91250000 	add	x0, x0, #0x940
   83238:	39400000 	ldrb	w0, [x0]
   8323c:	6b00003f 	cmp	w1, w0
   83240:	54000a41 	b.ne	83388 <CEcoMemoryManager1_4D656D31_QueryInterface+0x29c>  // b.any
   83244:	f94013a0 	ldr	x0, [x29, #32]
   83248:	91002400 	add	x0, x0, #0x9
   8324c:	39400001 	ldrb	w1, [x0]
   83250:	d0000220 	adrp	x0, c9000 <g_xCEcoStackTask1List_C761620F+0x37e20>
   83254:	91250400 	add	x0, x0, #0x941
   83258:	39400000 	ldrb	w0, [x0]
   8325c:	6b00003f 	cmp	w1, w0
   83260:	54000941 	b.ne	83388 <CEcoMemoryManager1_4D656D31_QueryInterface+0x29c>  // b.any
   83264:	f94013a0 	ldr	x0, [x29, #32]
   83268:	91002800 	add	x0, x0, #0xa
   8326c:	39400001 	ldrb	w1, [x0]
   83270:	d0000220 	adrp	x0, c9000 <g_xCEcoStackTask1List_C761620F+0x37e20>
   83274:	91250800 	add	x0, x0, #0x942
   83278:	39400000 	ldrb	w0, [x0]
   8327c:	6b00003f 	cmp	w1, w0
   83280:	54000841 	b.ne	83388 <CEcoMemoryManager1_4D656D31_QueryInterface+0x29c>  // b.any
   83284:	f94013a0 	ldr	x0, [x29, #32]
   83288:	91002c00 	add	x0, x0, #0xb
   8328c:	39400001 	ldrb	w1, [x0]
   83290:	d0000220 	adrp	x0, c9000 <g_xCEcoStackTask1List_C761620F+0x37e20>
   83294:	91250c00 	add	x0, x0, #0x943
   83298:	39400000 	ldrb	w0, [x0]
   8329c:	6b00003f 	cmp	w1, w0
   832a0:	54000741 	b.ne	83388 <CEcoMemoryManager1_4D656D31_QueryInterface+0x29c>  // b.any
   832a4:	f94013a0 	ldr	x0, [x29, #32]
   832a8:	91003000 	add	x0, x0, #0xc
   832ac:	39400001 	ldrb	w1, [x0]
   832b0:	d0000220 	adrp	x0, c9000 <g_xCEcoStackTask1List_C761620F+0x37e20>
   832b4:	91251000 	add	x0, x0, #0x944
   832b8:	39400000 	ldrb	w0, [x0]
   832bc:	6b00003f 	cmp	w1, w0
   832c0:	54000641 	b.ne	83388 <CEcoMemoryManager1_4D656D31_QueryInterface+0x29c>  // b.any
   832c4:	f94013a0 	ldr	x0, [x29, #32]
   832c8:	91003400 	add	x0, x0, #0xd
   832cc:	39400001 	ldrb	w1, [x0]
   832d0:	d0000220 	adrp	x0, c9000 <g_xCEcoStackTask1List_C761620F+0x37e20>
   832d4:	91251400 	add	x0, x0, #0x945
   832d8:	39400000 	ldrb	w0, [x0]
   832dc:	6b00003f 	cmp	w1, w0
   832e0:	54000541 	b.ne	83388 <CEcoMemoryManager1_4D656D31_QueryInterface+0x29c>  // b.any
   832e4:	f94013a0 	ldr	x0, [x29, #32]
   832e8:	91003800 	add	x0, x0, #0xe
   832ec:	39400001 	ldrb	w1, [x0]
   832f0:	d0000220 	adrp	x0, c9000 <g_xCEcoStackTask1List_C761620F+0x37e20>
   832f4:	91251800 	add	x0, x0, #0x946
   832f8:	39400000 	ldrb	w0, [x0]
   832fc:	6b00003f 	cmp	w1, w0
   83300:	54000441 	b.ne	83388 <CEcoMemoryManager1_4D656D31_QueryInterface+0x29c>  // b.any
   83304:	f94013a0 	ldr	x0, [x29, #32]
   83308:	91003c00 	add	x0, x0, #0xf
   8330c:	39400001 	ldrb	w1, [x0]
   83310:	d0000220 	adrp	x0, c9000 <g_xCEcoStackTask1List_C761620F+0x37e20>
   83314:	91251c00 	add	x0, x0, #0x947
   83318:	39400000 	ldrb	w0, [x0]
   8331c:	6b00003f 	cmp	w1, w0
   83320:	54000341 	b.ne	83388 <CEcoMemoryManager1_4D656D31_QueryInterface+0x29c>  // b.any
   83324:	f94013a0 	ldr	x0, [x29, #32]
   83328:	91004000 	add	x0, x0, #0x10
   8332c:	39400001 	ldrb	w1, [x0]
   83330:	d0000220 	adrp	x0, c9000 <g_xCEcoStackTask1List_C761620F+0x37e20>
   83334:	91252000 	add	x0, x0, #0x948
   83338:	39400000 	ldrb	w0, [x0]
   8333c:	6b00003f 	cmp	w1, w0
   83340:	54000241 	b.ne	83388 <CEcoMemoryManager1_4D656D31_QueryInterface+0x29c>  // b.any
   83344:	f94013a0 	ldr	x0, [x29, #32]
   83348:	91004400 	add	x0, x0, #0x11
   8334c:	39400001 	ldrb	w1, [x0]
   83350:	d0000220 	adrp	x0, c9000 <g_xCEcoStackTask1List_C761620F+0x37e20>
   83354:	91252400 	add	x0, x0, #0x949
   83358:	39400000 	ldrb	w0, [x0]
   8335c:	6b00003f 	cmp	w1, w0
   83360:	54000141 	b.ne	83388 <CEcoMemoryManager1_4D656D31_QueryInterface+0x29c>  // b.any
   83364:	f9401fa1 	ldr	x1, [x29, #56]
   83368:	f9400fa0 	ldr	x0, [x29, #24]
   8336c:	f9000001 	str	x1, [x0]
   83370:	f9401fa0 	ldr	x0, [x29, #56]
   83374:	f9400000 	ldr	x0, [x0]
   83378:	f9400401 	ldr	x1, [x0, #8]
   8337c:	f9401fa0 	ldr	x0, [x29, #56]
   83380:	d63f0020 	blr	x1
   83384:	14000136 	b	8385c <CEcoMemoryManager1_4D656D31_QueryInterface+0x770>
   83388:	f94013a0 	ldr	x0, [x29, #32]
   8338c:	39400001 	ldrb	w1, [x0]
   83390:	d0000220 	adrp	x0, c9000 <g_xCEcoStackTask1List_C761620F+0x37e20>
   83394:	91248000 	add	x0, x0, #0x920
   83398:	39400000 	ldrb	w0, [x0]
   8339c:	6b00003f 	cmp	w1, w0
   833a0:	54001261 	b.ne	835ec <CEcoMemoryManager1_4D656D31_QueryInterface+0x500>  // b.any
   833a4:	f94013a0 	ldr	x0, [x29, #32]
   833a8:	91000400 	add	x0, x0, #0x1
   833ac:	39400001 	ldrb	w1, [x0]
   833b0:	d0000220 	adrp	x0, c9000 <g_xCEcoStackTask1List_C761620F+0x37e20>
   833b4:	91248400 	add	x0, x0, #0x921
   833b8:	39400000 	ldrb	w0, [x0]
   833bc:	6b00003f 	cmp	w1, w0
   833c0:	54001161 	b.ne	835ec <CEcoMemoryManager1_4D656D31_QueryInterface+0x500>  // b.any
   833c4:	f94013a0 	ldr	x0, [x29, #32]
   833c8:	91000800 	add	x0, x0, #0x2
   833cc:	39400001 	ldrb	w1, [x0]
   833d0:	d0000220 	adrp	x0, c9000 <g_xCEcoStackTask1List_C761620F+0x37e20>
   833d4:	91248800 	add	x0, x0, #0x922
   833d8:	39400000 	ldrb	w0, [x0]
   833dc:	6b00003f 	cmp	w1, w0
   833e0:	54001061 	b.ne	835ec <CEcoMemoryManager1_4D656D31_QueryInterface+0x500>  // b.any
   833e4:	f94013a0 	ldr	x0, [x29, #32]
   833e8:	91000c00 	add	x0, x0, #0x3
   833ec:	39400001 	ldrb	w1, [x0]
   833f0:	d0000220 	adrp	x0, c9000 <g_xCEcoStackTask1List_C761620F+0x37e20>
   833f4:	91248c00 	add	x0, x0, #0x923
   833f8:	39400000 	ldrb	w0, [x0]
   833fc:	6b00003f 	cmp	w1, w0
   83400:	54000f61 	b.ne	835ec <CEcoMemoryManager1_4D656D31_QueryInterface+0x500>  // b.any
   83404:	f94013a0 	ldr	x0, [x29, #32]
   83408:	91001000 	add	x0, x0, #0x4
   8340c:	39400001 	ldrb	w1, [x0]
   83410:	d0000220 	adrp	x0, c9000 <g_xCEcoStackTask1List_C761620F+0x37e20>
   83414:	91249000 	add	x0, x0, #0x924
   83418:	39400000 	ldrb	w0, [x0]
   8341c:	6b00003f 	cmp	w1, w0
   83420:	54000e61 	b.ne	835ec <CEcoMemoryManager1_4D656D31_QueryInterface+0x500>  // b.any
   83424:	f94013a0 	ldr	x0, [x29, #32]
   83428:	91001400 	add	x0, x0, #0x5
   8342c:	39400001 	ldrb	w1, [x0]
   83430:	d0000220 	adrp	x0, c9000 <g_xCEcoStackTask1List_C761620F+0x37e20>
   83434:	91249400 	add	x0, x0, #0x925
   83438:	39400000 	ldrb	w0, [x0]
   8343c:	6b00003f 	cmp	w1, w0
   83440:	54000d61 	b.ne	835ec <CEcoMemoryManager1_4D656D31_QueryInterface+0x500>  // b.any
   83444:	f94013a0 	ldr	x0, [x29, #32]
   83448:	91001800 	add	x0, x0, #0x6
   8344c:	39400001 	ldrb	w1, [x0]
   83450:	d0000220 	adrp	x0, c9000 <g_xCEcoStackTask1List_C761620F+0x37e20>
   83454:	91249800 	add	x0, x0, #0x926
   83458:	39400000 	ldrb	w0, [x0]
   8345c:	6b00003f 	cmp	w1, w0
   83460:	54000c61 	b.ne	835ec <CEcoMemoryManager1_4D656D31_QueryInterface+0x500>  // b.any
   83464:	f94013a0 	ldr	x0, [x29, #32]
   83468:	91001c00 	add	x0, x0, #0x7
   8346c:	39400001 	ldrb	w1, [x0]
   83470:	d0000220 	adrp	x0, c9000 <g_xCEcoStackTask1List_C761620F+0x37e20>
   83474:	91249c00 	add	x0, x0, #0x927
   83478:	39400000 	ldrb	w0, [x0]
   8347c:	6b00003f 	cmp	w1, w0
   83480:	54000b61 	b.ne	835ec <CEcoMemoryManager1_4D656D31_QueryInterface+0x500>  // b.any
   83484:	f94013a0 	ldr	x0, [x29, #32]
   83488:	91002000 	add	x0, x0, #0x8
   8348c:	39400001 	ldrb	w1, [x0]
   83490:	d0000220 	adrp	x0, c9000 <g_xCEcoStackTask1List_C761620F+0x37e20>
   83494:	9124a000 	add	x0, x0, #0x928
   83498:	39400000 	ldrb	w0, [x0]
   8349c:	6b00003f 	cmp	w1, w0
   834a0:	54000a61 	b.ne	835ec <CEcoMemoryManager1_4D656D31_QueryInterface+0x500>  // b.any
   834a4:	f94013a0 	ldr	x0, [x29, #32]
   834a8:	91002400 	add	x0, x0, #0x9
   834ac:	39400001 	ldrb	w1, [x0]
   834b0:	d0000220 	adrp	x0, c9000 <g_xCEcoStackTask1List_C761620F+0x37e20>
   834b4:	9124a400 	add	x0, x0, #0x929
   834b8:	39400000 	ldrb	w0, [x0]
   834bc:	6b00003f 	cmp	w1, w0
   834c0:	54000961 	b.ne	835ec <CEcoMemoryManager1_4D656D31_QueryInterface+0x500>  // b.any
   834c4:	f94013a0 	ldr	x0, [x29, #32]
   834c8:	91002800 	add	x0, x0, #0xa
   834cc:	39400001 	ldrb	w1, [x0]
   834d0:	d0000220 	adrp	x0, c9000 <g_xCEcoStackTask1List_C761620F+0x37e20>
   834d4:	9124a800 	add	x0, x0, #0x92a
   834d8:	39400000 	ldrb	w0, [x0]
   834dc:	6b00003f 	cmp	w1, w0
   834e0:	54000861 	b.ne	835ec <CEcoMemoryManager1_4D656D31_QueryInterface+0x500>  // b.any
   834e4:	f94013a0 	ldr	x0, [x29, #32]
   834e8:	91002c00 	add	x0, x0, #0xb
   834ec:	39400001 	ldrb	w1, [x0]
   834f0:	d0000220 	adrp	x0, c9000 <g_xCEcoStackTask1List_C761620F+0x37e20>
   834f4:	9124ac00 	add	x0, x0, #0x92b
   834f8:	39400000 	ldrb	w0, [x0]
   834fc:	6b00003f 	cmp	w1, w0
   83500:	54000761 	b.ne	835ec <CEcoMemoryManager1_4D656D31_QueryInterface+0x500>  // b.any
   83504:	f94013a0 	ldr	x0, [x29, #32]
   83508:	91003000 	add	x0, x0, #0xc
   8350c:	39400001 	ldrb	w1, [x0]
   83510:	d0000220 	adrp	x0, c9000 <g_xCEcoStackTask1List_C761620F+0x37e20>
   83514:	9124b000 	add	x0, x0, #0x92c
   83518:	39400000 	ldrb	w0, [x0]
   8351c:	6b00003f 	cmp	w1, w0
   83520:	54000661 	b.ne	835ec <CEcoMemoryManager1_4D656D31_QueryInterface+0x500>  // b.any
   83524:	f94013a0 	ldr	x0, [x29, #32]
   83528:	91003400 	add	x0, x0, #0xd
   8352c:	39400001 	ldrb	w1, [x0]
   83530:	d0000220 	adrp	x0, c9000 <g_xCEcoStackTask1List_C761620F+0x37e20>
   83534:	9124b400 	add	x0, x0, #0x92d
   83538:	39400000 	ldrb	w0, [x0]
   8353c:	6b00003f 	cmp	w1, w0
   83540:	54000561 	b.ne	835ec <CEcoMemoryManager1_4D656D31_QueryInterface+0x500>  // b.any
   83544:	f94013a0 	ldr	x0, [x29, #32]
   83548:	91003800 	add	x0, x0, #0xe
   8354c:	39400001 	ldrb	w1, [x0]
   83550:	d0000220 	adrp	x0, c9000 <g_xCEcoStackTask1List_C761620F+0x37e20>
   83554:	9124b800 	add	x0, x0, #0x92e
   83558:	39400000 	ldrb	w0, [x0]
   8355c:	6b00003f 	cmp	w1, w0
   83560:	54000461 	b.ne	835ec <CEcoMemoryManager1_4D656D31_QueryInterface+0x500>  // b.any
   83564:	f94013a0 	ldr	x0, [x29, #32]
   83568:	91003c00 	add	x0, x0, #0xf
   8356c:	39400001 	ldrb	w1, [x0]
   83570:	d0000220 	adrp	x0, c9000 <g_xCEcoStackTask1List_C761620F+0x37e20>
   83574:	9124bc00 	add	x0, x0, #0x92f
   83578:	39400000 	ldrb	w0, [x0]
   8357c:	6b00003f 	cmp	w1, w0
   83580:	54000361 	b.ne	835ec <CEcoMemoryManager1_4D656D31_QueryInterface+0x500>  // b.any
   83584:	f94013a0 	ldr	x0, [x29, #32]
   83588:	91004000 	add	x0, x0, #0x10
   8358c:	39400001 	ldrb	w1, [x0]
   83590:	d0000220 	adrp	x0, c9000 <g_xCEcoStackTask1List_C761620F+0x37e20>
   83594:	9124c000 	add	x0, x0, #0x930
   83598:	39400000 	ldrb	w0, [x0]
   8359c:	6b00003f 	cmp	w1, w0
   835a0:	54000261 	b.ne	835ec <CEcoMemoryManager1_4D656D31_QueryInterface+0x500>  // b.any
   835a4:	f94013a0 	ldr	x0, [x29, #32]
   835a8:	91004400 	add	x0, x0, #0x11
   835ac:	39400001 	ldrb	w1, [x0]
   835b0:	d0000220 	adrp	x0, c9000 <g_xCEcoStackTask1List_C761620F+0x37e20>
   835b4:	9124c400 	add	x0, x0, #0x931
   835b8:	39400000 	ldrb	w0, [x0]
   835bc:	6b00003f 	cmp	w1, w0
   835c0:	54000161 	b.ne	835ec <CEcoMemoryManager1_4D656D31_QueryInterface+0x500>  // b.any
   835c4:	f9401fa0 	ldr	x0, [x29, #56]
   835c8:	91002001 	add	x1, x0, #0x8
   835cc:	f9400fa0 	ldr	x0, [x29, #24]
   835d0:	f9000001 	str	x1, [x0]
   835d4:	f9401fa0 	ldr	x0, [x29, #56]
   835d8:	f9400000 	ldr	x0, [x0]
   835dc:	f9400401 	ldr	x1, [x0, #8]
   835e0:	f9401fa0 	ldr	x0, [x29, #56]
   835e4:	d63f0020 	blr	x1
   835e8:	1400009d 	b	8385c <CEcoMemoryManager1_4D656D31_QueryInterface+0x770>
   835ec:	f94013a0 	ldr	x0, [x29, #32]
   835f0:	39400001 	ldrb	w1, [x0]
   835f4:	d0000220 	adrp	x0, c9000 <g_xCEcoStackTask1List_C761620F+0x37e20>
   835f8:	91230000 	add	x0, x0, #0x8c0
   835fc:	39400000 	ldrb	w0, [x0]
   83600:	6b00003f 	cmp	w1, w0
   83604:	54001241 	b.ne	8384c <CEcoMemoryManager1_4D656D31_QueryInterface+0x760>  // b.any
   83608:	f94013a0 	ldr	x0, [x29, #32]
   8360c:	91000400 	add	x0, x0, #0x1
   83610:	39400001 	ldrb	w1, [x0]
   83614:	d0000220 	adrp	x0, c9000 <g_xCEcoStackTask1List_C761620F+0x37e20>
   83618:	91230400 	add	x0, x0, #0x8c1
   8361c:	39400000 	ldrb	w0, [x0]
   83620:	6b00003f 	cmp	w1, w0
   83624:	54001141 	b.ne	8384c <CEcoMemoryManager1_4D656D31_QueryInterface+0x760>  // b.any
   83628:	f94013a0 	ldr	x0, [x29, #32]
   8362c:	91000800 	add	x0, x0, #0x2
   83630:	39400001 	ldrb	w1, [x0]
   83634:	d0000220 	adrp	x0, c9000 <g_xCEcoStackTask1List_C761620F+0x37e20>
   83638:	91230800 	add	x0, x0, #0x8c2
   8363c:	39400000 	ldrb	w0, [x0]
   83640:	6b00003f 	cmp	w1, w0
   83644:	54001041 	b.ne	8384c <CEcoMemoryManager1_4D656D31_QueryInterface+0x760>  // b.any
   83648:	f94013a0 	ldr	x0, [x29, #32]
   8364c:	91000c00 	add	x0, x0, #0x3
   83650:	39400001 	ldrb	w1, [x0]
   83654:	d0000220 	adrp	x0, c9000 <g_xCEcoStackTask1List_C761620F+0x37e20>
   83658:	91230c00 	add	x0, x0, #0x8c3
   8365c:	39400000 	ldrb	w0, [x0]
   83660:	6b00003f 	cmp	w1, w0
   83664:	54000f41 	b.ne	8384c <CEcoMemoryManager1_4D656D31_QueryInterface+0x760>  // b.any
   83668:	f94013a0 	ldr	x0, [x29, #32]
   8366c:	91001000 	add	x0, x0, #0x4
   83670:	39400001 	ldrb	w1, [x0]
   83674:	d0000220 	adrp	x0, c9000 <g_xCEcoStackTask1List_C761620F+0x37e20>
   83678:	91231000 	add	x0, x0, #0x8c4
   8367c:	39400000 	ldrb	w0, [x0]
   83680:	6b00003f 	cmp	w1, w0
   83684:	54000e41 	b.ne	8384c <CEcoMemoryManager1_4D656D31_QueryInterface+0x760>  // b.any
   83688:	f94013a0 	ldr	x0, [x29, #32]
   8368c:	91001400 	add	x0, x0, #0x5
   83690:	39400001 	ldrb	w1, [x0]
   83694:	d0000220 	adrp	x0, c9000 <g_xCEcoStackTask1List_C761620F+0x37e20>
   83698:	91231400 	add	x0, x0, #0x8c5
   8369c:	39400000 	ldrb	w0, [x0]
   836a0:	6b00003f 	cmp	w1, w0
   836a4:	54000d41 	b.ne	8384c <CEcoMemoryManager1_4D656D31_QueryInterface+0x760>  // b.any
   836a8:	f94013a0 	ldr	x0, [x29, #32]
   836ac:	91001800 	add	x0, x0, #0x6
   836b0:	39400001 	ldrb	w1, [x0]
   836b4:	d0000220 	adrp	x0, c9000 <g_xCEcoStackTask1List_C761620F+0x37e20>
   836b8:	91231800 	add	x0, x0, #0x8c6
   836bc:	39400000 	ldrb	w0, [x0]
   836c0:	6b00003f 	cmp	w1, w0
   836c4:	54000c41 	b.ne	8384c <CEcoMemoryManager1_4D656D31_QueryInterface+0x760>  // b.any
   836c8:	f94013a0 	ldr	x0, [x29, #32]
   836cc:	91001c00 	add	x0, x0, #0x7
   836d0:	39400001 	ldrb	w1, [x0]
   836d4:	d0000220 	adrp	x0, c9000 <g_xCEcoStackTask1List_C761620F+0x37e20>
   836d8:	91231c00 	add	x0, x0, #0x8c7
   836dc:	39400000 	ldrb	w0, [x0]
   836e0:	6b00003f 	cmp	w1, w0
   836e4:	54000b41 	b.ne	8384c <CEcoMemoryManager1_4D656D31_QueryInterface+0x760>  // b.any
   836e8:	f94013a0 	ldr	x0, [x29, #32]
   836ec:	91002000 	add	x0, x0, #0x8
   836f0:	39400001 	ldrb	w1, [x0]
   836f4:	d0000220 	adrp	x0, c9000 <g_xCEcoStackTask1List_C761620F+0x37e20>
   836f8:	91232000 	add	x0, x0, #0x8c8
   836fc:	39400000 	ldrb	w0, [x0]
   83700:	6b00003f 	cmp	w1, w0
   83704:	54000a41 	b.ne	8384c <CEcoMemoryManager1_4D656D31_QueryInterface+0x760>  // b.any
   83708:	f94013a0 	ldr	x0, [x29, #32]
   8370c:	91002400 	add	x0, x0, #0x9
   83710:	39400001 	ldrb	w1, [x0]
   83714:	d0000220 	adrp	x0, c9000 <g_xCEcoStackTask1List_C761620F+0x37e20>
   83718:	91232400 	add	x0, x0, #0x8c9
   8371c:	39400000 	ldrb	w0, [x0]
   83720:	6b00003f 	cmp	w1, w0
   83724:	54000941 	b.ne	8384c <CEcoMemoryManager1_4D656D31_QueryInterface+0x760>  // b.any
   83728:	f94013a0 	ldr	x0, [x29, #32]
   8372c:	91002800 	add	x0, x0, #0xa
   83730:	39400001 	ldrb	w1, [x0]
   83734:	d0000220 	adrp	x0, c9000 <g_xCEcoStackTask1List_C761620F+0x37e20>
   83738:	91232800 	add	x0, x0, #0x8ca
   8373c:	39400000 	ldrb	w0, [x0]
   83740:	6b00003f 	cmp	w1, w0
   83744:	54000841 	b.ne	8384c <CEcoMemoryManager1_4D656D31_QueryInterface+0x760>  // b.any
   83748:	f94013a0 	ldr	x0, [x29, #32]
   8374c:	91002c00 	add	x0, x0, #0xb
   83750:	39400001 	ldrb	w1, [x0]
   83754:	d0000220 	adrp	x0, c9000 <g_xCEcoStackTask1List_C761620F+0x37e20>
   83758:	91232c00 	add	x0, x0, #0x8cb
   8375c:	39400000 	ldrb	w0, [x0]
   83760:	6b00003f 	cmp	w1, w0
   83764:	54000741 	b.ne	8384c <CEcoMemoryManager1_4D656D31_QueryInterface+0x760>  // b.any
   83768:	f94013a0 	ldr	x0, [x29, #32]
   8376c:	91003000 	add	x0, x0, #0xc
   83770:	39400001 	ldrb	w1, [x0]
   83774:	d0000220 	adrp	x0, c9000 <g_xCEcoStackTask1List_C761620F+0x37e20>
   83778:	91233000 	add	x0, x0, #0x8cc
   8377c:	39400000 	ldrb	w0, [x0]
   83780:	6b00003f 	cmp	w1, w0
   83784:	54000641 	b.ne	8384c <CEcoMemoryManager1_4D656D31_QueryInterface+0x760>  // b.any
   83788:	f94013a0 	ldr	x0, [x29, #32]
   8378c:	91003400 	add	x0, x0, #0xd
   83790:	39400001 	ldrb	w1, [x0]
   83794:	d0000220 	adrp	x0, c9000 <g_xCEcoStackTask1List_C761620F+0x37e20>
   83798:	91233400 	add	x0, x0, #0x8cd
   8379c:	39400000 	ldrb	w0, [x0]
   837a0:	6b00003f 	cmp	w1, w0
   837a4:	54000541 	b.ne	8384c <CEcoMemoryManager1_4D656D31_QueryInterface+0x760>  // b.any
   837a8:	f94013a0 	ldr	x0, [x29, #32]
   837ac:	91003800 	add	x0, x0, #0xe
   837b0:	39400001 	ldrb	w1, [x0]
   837b4:	d0000220 	adrp	x0, c9000 <g_xCEcoStackTask1List_C761620F+0x37e20>
   837b8:	91233800 	add	x0, x0, #0x8ce
   837bc:	39400000 	ldrb	w0, [x0]
   837c0:	6b00003f 	cmp	w1, w0
   837c4:	54000441 	b.ne	8384c <CEcoMemoryManager1_4D656D31_QueryInterface+0x760>  // b.any
   837c8:	f94013a0 	ldr	x0, [x29, #32]
   837cc:	91003c00 	add	x0, x0, #0xf
   837d0:	39400001 	ldrb	w1, [x0]
   837d4:	d0000220 	adrp	x0, c9000 <g_xCEcoStackTask1List_C761620F+0x37e20>
   837d8:	91233c00 	add	x0, x0, #0x8cf
   837dc:	39400000 	ldrb	w0, [x0]
   837e0:	6b00003f 	cmp	w1, w0
   837e4:	54000341 	b.ne	8384c <CEcoMemoryManager1_4D656D31_QueryInterface+0x760>  // b.any
   837e8:	f94013a0 	ldr	x0, [x29, #32]
   837ec:	91004000 	add	x0, x0, #0x10
   837f0:	39400001 	ldrb	w1, [x0]
   837f4:	d0000220 	adrp	x0, c9000 <g_xCEcoStackTask1List_C761620F+0x37e20>
   837f8:	91234000 	add	x0, x0, #0x8d0
   837fc:	39400000 	ldrb	w0, [x0]
   83800:	6b00003f 	cmp	w1, w0
   83804:	54000241 	b.ne	8384c <CEcoMemoryManager1_4D656D31_QueryInterface+0x760>  // b.any
   83808:	f94013a0 	ldr	x0, [x29, #32]
   8380c:	91004400 	add	x0, x0, #0x11
   83810:	39400001 	ldrb	w1, [x0]
   83814:	d0000220 	adrp	x0, c9000 <g_xCEcoStackTask1List_C761620F+0x37e20>
   83818:	91234400 	add	x0, x0, #0x8d1
   8381c:	39400000 	ldrb	w0, [x0]
   83820:	6b00003f 	cmp	w1, w0
   83824:	54000141 	b.ne	8384c <CEcoMemoryManager1_4D656D31_QueryInterface+0x760>  // b.any
   83828:	f9401fa1 	ldr	x1, [x29, #56]
   8382c:	f9400fa0 	ldr	x0, [x29, #24]
   83830:	f9000001 	str	x1, [x0]
   83834:	f9401fa0 	ldr	x0, [x29, #56]
   83838:	f9400000 	ldr	x0, [x0]
   8383c:	f9400401 	ldr	x1, [x0, #8]
   83840:	f9401fa0 	ldr	x0, [x29, #56]
   83844:	d63f0020 	blr	x1
   83848:	14000005 	b	8385c <CEcoMemoryManager1_4D656D31_QueryInterface+0x770>
   8384c:	f9400fa0 	ldr	x0, [x29, #24]
   83850:	f900001f 	str	xzr, [x0]
   83854:	12800000 	mov	w0, #0xffffffff            	// #-1
   83858:	14000002 	b	83860 <CEcoMemoryManager1_4D656D31_QueryInterface+0x774>
   8385c:	52800000 	mov	w0, #0x0                   	// #0
   83860:	a8c47bfd 	ldp	x29, x30, [sp], #64
   83864:	d65f03c0 	ret

0000000000083868 <CEcoMemoryManager1_4D656D31_AddRef>:
   83868:	d10083ff 	sub	sp, sp, #0x20
   8386c:	f90007e0 	str	x0, [sp, #8]
   83870:	f94007e0 	ldr	x0, [sp, #8]
   83874:	f9000fe0 	str	x0, [sp, #24]
   83878:	f94007e0 	ldr	x0, [sp, #8]
   8387c:	f100001f 	cmp	x0, #0x0
   83880:	54000061 	b.ne	8388c <CEcoMemoryManager1_4D656D31_AddRef+0x24>  // b.any
   83884:	12800000 	mov	w0, #0xffffffff            	// #-1
   83888:	14000007 	b	838a4 <CEcoMemoryManager1_4D656D31_AddRef+0x3c>
   8388c:	f9400fe0 	ldr	x0, [sp, #24]
   83890:	b9401000 	ldr	w0, [x0, #16]
   83894:	11000402 	add	w2, w0, #0x1
   83898:	f9400fe1 	ldr	x1, [sp, #24]
   8389c:	b9001022 	str	w2, [x1, #16]
   838a0:	d503201f 	nop
   838a4:	910083ff 	add	sp, sp, #0x20
   838a8:	d65f03c0 	ret

00000000000838ac <CEcoMemoryManager1_4D656D31_Release>:
   838ac:	a9bd7bfd 	stp	x29, x30, [sp, #-48]!
   838b0:	910003fd 	mov	x29, sp
   838b4:	f9000fa0 	str	x0, [x29, #24]
   838b8:	f9400fa0 	ldr	x0, [x29, #24]
   838bc:	f90017a0 	str	x0, [x29, #40]
   838c0:	f9400fa0 	ldr	x0, [x29, #24]
   838c4:	f100001f 	cmp	x0, #0x0
   838c8:	54000061 	b.ne	838d4 <CEcoMemoryManager1_4D656D31_Release+0x28>  // b.any
   838cc:	12800000 	mov	w0, #0xffffffff            	// #-1
   838d0:	14000010 	b	83910 <CEcoMemoryManager1_4D656D31_Release+0x64>
   838d4:	f94017a0 	ldr	x0, [x29, #40]
   838d8:	b9401000 	ldr	w0, [x0, #16]
   838dc:	51000401 	sub	w1, w0, #0x1
   838e0:	f94017a0 	ldr	x0, [x29, #40]
   838e4:	b9001001 	str	w1, [x0, #16]
   838e8:	f94017a0 	ldr	x0, [x29, #40]
   838ec:	b9401000 	ldr	w0, [x0, #16]
   838f0:	7100001f 	cmp	w0, #0x0
   838f4:	540000a1 	b.ne	83908 <CEcoMemoryManager1_4D656D31_Release+0x5c>  // b.any
   838f8:	f94017a0 	ldr	x0, [x29, #40]
   838fc:	940000aa 	bl	83ba4 <deleteCEcoMemoryManager1_4D656D31>
   83900:	52800000 	mov	w0, #0x0                   	// #0
   83904:	14000003 	b	83910 <CEcoMemoryManager1_4D656D31_Release+0x64>
   83908:	f94017a0 	ldr	x0, [x29, #40]
   8390c:	b9401000 	ldr	w0, [x0, #16]
   83910:	a8c37bfd 	ldp	x29, x30, [sp], #48
   83914:	d65f03c0 	ret

0000000000083918 <CEcoMemoryManager1_4D656D31_Init>:
   83918:	d100c3ff 	sub	sp, sp, #0x30
   8391c:	f9000fe0 	str	x0, [sp, #24]
   83920:	f9000be1 	str	x1, [sp, #16]
   83924:	b9000fe2 	str	w2, [sp, #12]
   83928:	f9400fe0 	ldr	x0, [sp, #24]
   8392c:	f90017e0 	str	x0, [sp, #40]
   83930:	f9400fe0 	ldr	x0, [sp, #24]
   83934:	f100001f 	cmp	x0, #0x0
   83938:	54000061 	b.ne	83944 <CEcoMemoryManager1_4D656D31_Init+0x2c>  // b.any
   8393c:	12800000 	mov	w0, #0xffffffff            	// #-1
   83940:	1400000e 	b	83978 <CEcoMemoryManager1_4D656D31_Init+0x60>
   83944:	f94017e0 	ldr	x0, [sp, #40]
   83948:	f9400be1 	ldr	x1, [sp, #16]
   8394c:	f9002001 	str	x1, [x0, #64]
   83950:	f94017e0 	ldr	x0, [sp, #40]
   83954:	b9400fe1 	ldr	w1, [sp, #12]
   83958:	b9003401 	str	w1, [x0, #52]
   8395c:	b9400fe1 	ldr	w1, [sp, #12]
   83960:	f9400be0 	ldr	x0, [sp, #16]
   83964:	8b000020 	add	x0, x1, x0
   83968:	aa0003e1 	mov	x1, x0
   8396c:	f94017e0 	ldr	x0, [sp, #40]
   83970:	f9002801 	str	x1, [x0, #80]
   83974:	52800000 	mov	w0, #0x0                   	// #0
   83978:	9100c3ff 	add	sp, sp, #0x30
   8397c:	d65f03c0 	ret

0000000000083980 <CEcoMemoryManager1_4D656D31_get_Status>:
   83980:	d10083ff 	sub	sp, sp, #0x20
   83984:	f90007e0 	str	x0, [sp, #8]
   83988:	f90003e1 	str	x1, [sp]
   8398c:	f94007e0 	ldr	x0, [sp, #8]
   83990:	f9000fe0 	str	x0, [sp, #24]
   83994:	f94007e0 	ldr	x0, [sp, #8]
   83998:	f100001f 	cmp	x0, #0x0
   8399c:	54000080 	b.eq	839ac <CEcoMemoryManager1_4D656D31_get_Status+0x2c>  // b.none
   839a0:	f94003e0 	ldr	x0, [sp]
   839a4:	f100001f 	cmp	x0, #0x0
   839a8:	54000061 	b.ne	839b4 <CEcoMemoryManager1_4D656D31_get_Status+0x34>  // b.any
   839ac:	52800000 	mov	w0, #0x0                   	// #0
   839b0:	1400001c 	b	83a20 <CEcoMemoryManager1_4D656D31_get_Status+0xa0>
   839b4:	f9400fe0 	ldr	x0, [sp, #24]
   839b8:	f9402000 	ldr	x0, [x0, #64]
   839bc:	2a0003e1 	mov	w1, w0
   839c0:	f94003e0 	ldr	x0, [sp]
   839c4:	b9000001 	str	w1, [x0]
   839c8:	f9400fe0 	ldr	x0, [sp, #24]
   839cc:	f9402000 	ldr	x0, [x0, #64]
   839d0:	d360fc00 	lsr	x0, x0, #32
   839d4:	2a0003e1 	mov	w1, w0
   839d8:	f94003e0 	ldr	x0, [sp]
   839dc:	b9000401 	str	w1, [x0, #4]
   839e0:	f9400fe0 	ldr	x0, [sp, #24]
   839e4:	b9403401 	ldr	w1, [x0, #52]
   839e8:	f94003e0 	ldr	x0, [sp]
   839ec:	b9000801 	str	w1, [x0, #8]
   839f0:	f94003e0 	ldr	x0, [sp]
   839f4:	b9400801 	ldr	w1, [x0, #8]
   839f8:	f9400fe0 	ldr	x0, [sp, #24]
   839fc:	b9403800 	ldr	w0, [x0, #56]
   83a00:	4b000021 	sub	w1, w1, w0
   83a04:	f94003e0 	ldr	x0, [sp]
   83a08:	b9000c01 	str	w1, [x0, #12]
   83a0c:	f9400fe0 	ldr	x0, [sp, #24]
   83a10:	b9403001 	ldr	w1, [x0, #48]
   83a14:	f94003e0 	ldr	x0, [sp]
   83a18:	b9001001 	str	w1, [x0, #16]
   83a1c:	52800020 	mov	w0, #0x1                   	// #1
   83a20:	910083ff 	add	sp, sp, #0x20
   83a24:	d65f03c0 	ret

0000000000083a28 <CEcoMemoryManager1_4D656D31_get_UsedBlocks>:
   83a28:	d10083ff 	sub	sp, sp, #0x20
   83a2c:	f9000fe0 	str	x0, [sp, #24]
   83a30:	f9000be1 	str	x1, [sp, #16]
   83a34:	f90007e2 	str	x2, [sp, #8]
   83a38:	f9400fe0 	ldr	x0, [sp, #24]
   83a3c:	f100001f 	cmp	x0, #0x0
   83a40:	54000061 	b.ne	83a4c <CEcoMemoryManager1_4D656D31_get_UsedBlocks+0x24>  // b.any
   83a44:	52801fe0 	mov	w0, #0xff                  	// #255
   83a48:	14000002 	b	83a50 <CEcoMemoryManager1_4D656D31_get_UsedBlocks+0x28>
   83a4c:	52800000 	mov	w0, #0x0                   	// #0
   83a50:	910083ff 	add	sp, sp, #0x20
   83a54:	d65f03c0 	ret

0000000000083a58 <initCEcoMemoryManager1_4D656D31>:
   83a58:	d10083ff 	sub	sp, sp, #0x20
   83a5c:	f90007e0 	str	x0, [sp, #8]
   83a60:	f90003e1 	str	x1, [sp]
   83a64:	f94007e0 	ldr	x0, [sp, #8]
   83a68:	f9000fe0 	str	x0, [sp, #24]
   83a6c:	12800000 	mov	w0, #0xffffffff            	// #-1
   83a70:	79002fe0 	strh	w0, [sp, #22]
   83a74:	f94007e0 	ldr	x0, [sp, #8]
   83a78:	f100001f 	cmp	x0, #0x0
   83a7c:	54000061 	b.ne	83a88 <initCEcoMemoryManager1_4D656D31+0x30>  // b.any
   83a80:	79c02fe0 	ldrsh	w0, [sp, #22]
   83a84:	14000009 	b	83aa8 <initCEcoMemoryManager1_4D656D31+0x50>
   83a88:	f9400fe0 	ldr	x0, [sp, #24]
   83a8c:	f9402000 	ldr	x0, [x0, #64]
   83a90:	f100001f 	cmp	x0, #0x0
   83a94:	54000081 	b.ne	83aa4 <initCEcoMemoryManager1_4D656D31+0x4c>  // b.any
   83a98:	f9400fe0 	ldr	x0, [sp, #24]
   83a9c:	b9403400 	ldr	w0, [x0, #52]
   83aa0:	7100001f 	cmp	w0, #0x0
   83aa4:	52800000 	mov	w0, #0x0                   	// #0
   83aa8:	910083ff 	add	sp, sp, #0x20
   83aac:	d65f03c0 	ret

0000000000083ab0 <createCEcoMemoryManager1_4D656D31>:
   83ab0:	d100c3ff 	sub	sp, sp, #0x30
   83ab4:	f9000fe0 	str	x0, [sp, #24]
   83ab8:	f9000be1 	str	x1, [sp, #16]
   83abc:	f90007e2 	str	x2, [sp, #8]
   83ac0:	f90017ff 	str	xzr, [sp, #40]
   83ac4:	12800000 	mov	w0, #0xffffffff            	// #-1
   83ac8:	79004fe0 	strh	w0, [sp, #38]
   83acc:	f94007e0 	ldr	x0, [sp, #8]
   83ad0:	f100001f 	cmp	x0, #0x0
   83ad4:	54000061 	b.ne	83ae0 <createCEcoMemoryManager1_4D656D31+0x30>  // b.any
   83ad8:	79c04fe0 	ldrsh	w0, [sp, #38]
   83adc:	14000030 	b	83b9c <createCEcoMemoryManager1_4D656D31+0xec>
   83ae0:	d0000060 	adrp	x0, 91000 <g_pIVFB>
   83ae4:	91006000 	add	x0, x0, #0x18
   83ae8:	f90017e0 	str	x0, [sp, #40]
   83aec:	f94017e0 	ldr	x0, [sp, #40]
   83af0:	b9401000 	ldr	w0, [x0, #16]
   83af4:	7100001f 	cmp	w0, #0x0
   83af8:	54000401 	b.ne	83b78 <createCEcoMemoryManager1_4D656D31+0xc8>  // b.any
   83afc:	f94017e0 	ldr	x0, [sp, #40]
   83b00:	52800021 	mov	w1, #0x1                   	// #1
   83b04:	b9001001 	str	w1, [x0, #16]
   83b08:	f94017e0 	ldr	x0, [sp, #40]
   83b0c:	f9400fe1 	ldr	x1, [sp, #24]
   83b10:	f9001001 	str	x1, [x0, #32]
   83b14:	f94017e0 	ldr	x0, [sp, #40]
   83b18:	90000061 	adrp	x1, 8f000 <_malloc_r+0x818>
   83b1c:	911c6021 	add	x1, x1, #0x718
   83b20:	f9000001 	str	x1, [x0]
   83b24:	f94017e0 	ldr	x0, [sp, #40]
   83b28:	90000061 	adrp	x1, 8f000 <_malloc_r+0x818>
   83b2c:	911d2021 	add	x1, x1, #0x748
   83b30:	f9000401 	str	x1, [x0, #8]
   83b34:	f94017e0 	ldr	x0, [sp, #40]
   83b38:	f900141f 	str	xzr, [x0, #40]
   83b3c:	f94017e0 	ldr	x0, [sp, #40]
   83b40:	b900301f 	str	wzr, [x0, #48]
   83b44:	f94017e0 	ldr	x0, [sp, #40]
   83b48:	b900341f 	str	wzr, [x0, #52]
   83b4c:	f94017e0 	ldr	x0, [sp, #40]
   83b50:	b900381f 	str	wzr, [x0, #56]
   83b54:	f94017e0 	ldr	x0, [sp, #40]
   83b58:	f900201f 	str	xzr, [x0, #64]
   83b5c:	f94017e0 	ldr	x0, [sp, #40]
   83b60:	f900241f 	str	xzr, [x0, #72]
   83b64:	f94017e0 	ldr	x0, [sp, #40]
   83b68:	f900281f 	str	xzr, [x0, #80]
   83b6c:	f94017e0 	ldr	x0, [sp, #40]
   83b70:	3901601f 	strb	wzr, [x0, #88]
   83b74:	14000006 	b	83b8c <createCEcoMemoryManager1_4D656D31+0xdc>
   83b78:	f94017e0 	ldr	x0, [sp, #40]
   83b7c:	b9401000 	ldr	w0, [x0, #16]
   83b80:	11000401 	add	w1, w0, #0x1
   83b84:	f94017e0 	ldr	x0, [sp, #40]
   83b88:	b9001001 	str	w1, [x0, #16]
   83b8c:	f94007e0 	ldr	x0, [sp, #8]
   83b90:	f94017e1 	ldr	x1, [sp, #40]
   83b94:	f9000001 	str	x1, [x0]
   83b98:	52800000 	mov	w0, #0x0                   	// #0
   83b9c:	9100c3ff 	add	sp, sp, #0x30
   83ba0:	d65f03c0 	ret

0000000000083ba4 <deleteCEcoMemoryManager1_4D656D31>:
   83ba4:	d10083ff 	sub	sp, sp, #0x20
   83ba8:	f90007e0 	str	x0, [sp, #8]
   83bac:	f94007e0 	ldr	x0, [sp, #8]
   83bb0:	f9000fe0 	str	x0, [sp, #24]
   83bb4:	f94007e0 	ldr	x0, [sp, #8]
   83bb8:	f100001f 	cmp	x0, #0x0
   83bbc:	540000e0 	b.eq	83bd8 <deleteCEcoMemoryManager1_4D656D31+0x34>  // b.none
   83bc0:	f9400fe0 	ldr	x0, [sp, #24]
   83bc4:	f900201f 	str	xzr, [x0, #64]
   83bc8:	f9400fe0 	ldr	x0, [sp, #24]
   83bcc:	b900341f 	str	wzr, [x0, #52]
   83bd0:	f9400fe0 	ldr	x0, [sp, #24]
   83bd4:	f900281f 	str	xzr, [x0, #80]
   83bd8:	d503201f 	nop
   83bdc:	910083ff 	add	sp, sp, #0x20
   83be0:	d65f03c0 	ret

0000000000083be4 <_sbrk>:
   83be4:	d10083ff 	sub	sp, sp, #0x20
   83be8:	b9000fe0 	str	w0, [sp, #12]
   83bec:	d0000060 	adrp	x0, 91000 <g_pIVFB>
   83bf0:	91022000 	add	x0, x0, #0x88
   83bf4:	f9400000 	ldr	x0, [x0]
   83bf8:	f100001f 	cmp	x0, #0x0
   83bfc:	540000c1 	b.ne	83c14 <_sbrk+0x30>  // b.any
   83c00:	d0000060 	adrp	x0, 91000 <g_pIVFB>
   83c04:	91022000 	add	x0, x0, #0x88
   83c08:	900002c1 	adrp	x1, db000 <__heap_start__+0xc30>
   83c0c:	910f4021 	add	x1, x1, #0x3d0
   83c10:	f9000001 	str	x1, [x0]
   83c14:	d0000060 	adrp	x0, 91000 <g_pIVFB>
   83c18:	91022000 	add	x0, x0, #0x88
   83c1c:	f9400000 	ldr	x0, [x0]
   83c20:	f9000fe0 	str	x0, [sp, #24]
   83c24:	d0000060 	adrp	x0, 91000 <g_pIVFB>
   83c28:	91022000 	add	x0, x0, #0x88
   83c2c:	f9400001 	ldr	x1, [x0]
   83c30:	b9800fe0 	ldrsw	x0, [sp, #12]
   83c34:	8b000021 	add	x1, x1, x0
   83c38:	d0000060 	adrp	x0, 91000 <g_pIVFB>
   83c3c:	91022000 	add	x0, x0, #0x88
   83c40:	f9000001 	str	x1, [x0]
   83c44:	f9400fe0 	ldr	x0, [sp, #24]
   83c48:	910083ff 	add	sp, sp, #0x20
   83c4c:	d65f03c0 	ret

0000000000083c50 <CEcoMemoryAllocator1_4D656D31_QueryInterface>:
   83c50:	a9bc7bfd 	stp	x29, x30, [sp, #-64]!
   83c54:	910003fd 	mov	x29, sp
   83c58:	f90017a0 	str	x0, [x29, #40]
   83c5c:	f90013a1 	str	x1, [x29, #32]
   83c60:	f9000fa2 	str	x2, [x29, #24]
   83c64:	f94017a0 	ldr	x0, [x29, #40]
   83c68:	d1002000 	sub	x0, x0, #0x8
   83c6c:	f9001fa0 	str	x0, [x29, #56]
   83c70:	f94017a0 	ldr	x0, [x29, #40]
   83c74:	f100001f 	cmp	x0, #0x0
   83c78:	54000080 	b.eq	83c88 <CEcoMemoryAllocator1_4D656D31_QueryInterface+0x38>  // b.none
   83c7c:	f9400fa0 	ldr	x0, [x29, #24]
   83c80:	f100001f 	cmp	x0, #0x0
   83c84:	54000061 	b.ne	83c90 <CEcoMemoryAllocator1_4D656D31_QueryInterface+0x40>  // b.any
   83c88:	12800000 	mov	w0, #0xffffffff            	// #-1
   83c8c:	140001cf 	b	843c8 <CEcoMemoryAllocator1_4D656D31_QueryInterface+0x778>
   83c90:	f94013a0 	ldr	x0, [x29, #32]
   83c94:	39400001 	ldrb	w1, [x0]
   83c98:	d0000220 	adrp	x0, c9000 <g_xCEcoStackTask1List_C761620F+0x37e20>
   83c9c:	91266000 	add	x0, x0, #0x998
   83ca0:	39400000 	ldrb	w0, [x0]
   83ca4:	6b00003f 	cmp	w1, w0
   83ca8:	54001261 	b.ne	83ef4 <CEcoMemoryAllocator1_4D656D31_QueryInterface+0x2a4>  // b.any
   83cac:	f94013a0 	ldr	x0, [x29, #32]
   83cb0:	91000400 	add	x0, x0, #0x1
   83cb4:	39400001 	ldrb	w1, [x0]
   83cb8:	d0000220 	adrp	x0, c9000 <g_xCEcoStackTask1List_C761620F+0x37e20>
   83cbc:	91266400 	add	x0, x0, #0x999
   83cc0:	39400000 	ldrb	w0, [x0]
   83cc4:	6b00003f 	cmp	w1, w0
   83cc8:	54001161 	b.ne	83ef4 <CEcoMemoryAllocator1_4D656D31_QueryInterface+0x2a4>  // b.any
   83ccc:	f94013a0 	ldr	x0, [x29, #32]
   83cd0:	91000800 	add	x0, x0, #0x2
   83cd4:	39400001 	ldrb	w1, [x0]
   83cd8:	d0000220 	adrp	x0, c9000 <g_xCEcoStackTask1List_C761620F+0x37e20>
   83cdc:	91266800 	add	x0, x0, #0x99a
   83ce0:	39400000 	ldrb	w0, [x0]
   83ce4:	6b00003f 	cmp	w1, w0
   83ce8:	54001061 	b.ne	83ef4 <CEcoMemoryAllocator1_4D656D31_QueryInterface+0x2a4>  // b.any
   83cec:	f94013a0 	ldr	x0, [x29, #32]
   83cf0:	91000c00 	add	x0, x0, #0x3
   83cf4:	39400001 	ldrb	w1, [x0]
   83cf8:	d0000220 	adrp	x0, c9000 <g_xCEcoStackTask1List_C761620F+0x37e20>
   83cfc:	91266c00 	add	x0, x0, #0x99b
   83d00:	39400000 	ldrb	w0, [x0]
   83d04:	6b00003f 	cmp	w1, w0
   83d08:	54000f61 	b.ne	83ef4 <CEcoMemoryAllocator1_4D656D31_QueryInterface+0x2a4>  // b.any
   83d0c:	f94013a0 	ldr	x0, [x29, #32]
   83d10:	91001000 	add	x0, x0, #0x4
   83d14:	39400001 	ldrb	w1, [x0]
   83d18:	d0000220 	adrp	x0, c9000 <g_xCEcoStackTask1List_C761620F+0x37e20>
   83d1c:	91267000 	add	x0, x0, #0x99c
   83d20:	39400000 	ldrb	w0, [x0]
   83d24:	6b00003f 	cmp	w1, w0
   83d28:	54000e61 	b.ne	83ef4 <CEcoMemoryAllocator1_4D656D31_QueryInterface+0x2a4>  // b.any
   83d2c:	f94013a0 	ldr	x0, [x29, #32]
   83d30:	91001400 	add	x0, x0, #0x5
   83d34:	39400001 	ldrb	w1, [x0]
   83d38:	d0000220 	adrp	x0, c9000 <g_xCEcoStackTask1List_C761620F+0x37e20>
   83d3c:	91267400 	add	x0, x0, #0x99d
   83d40:	39400000 	ldrb	w0, [x0]
   83d44:	6b00003f 	cmp	w1, w0
   83d48:	54000d61 	b.ne	83ef4 <CEcoMemoryAllocator1_4D656D31_QueryInterface+0x2a4>  // b.any
   83d4c:	f94013a0 	ldr	x0, [x29, #32]
   83d50:	91001800 	add	x0, x0, #0x6
   83d54:	39400001 	ldrb	w1, [x0]
   83d58:	d0000220 	adrp	x0, c9000 <g_xCEcoStackTask1List_C761620F+0x37e20>
   83d5c:	91267800 	add	x0, x0, #0x99e
   83d60:	39400000 	ldrb	w0, [x0]
   83d64:	6b00003f 	cmp	w1, w0
   83d68:	54000c61 	b.ne	83ef4 <CEcoMemoryAllocator1_4D656D31_QueryInterface+0x2a4>  // b.any
   83d6c:	f94013a0 	ldr	x0, [x29, #32]
   83d70:	91001c00 	add	x0, x0, #0x7
   83d74:	39400001 	ldrb	w1, [x0]
   83d78:	d0000220 	adrp	x0, c9000 <g_xCEcoStackTask1List_C761620F+0x37e20>
   83d7c:	91267c00 	add	x0, x0, #0x99f
   83d80:	39400000 	ldrb	w0, [x0]
   83d84:	6b00003f 	cmp	w1, w0
   83d88:	54000b61 	b.ne	83ef4 <CEcoMemoryAllocator1_4D656D31_QueryInterface+0x2a4>  // b.any
   83d8c:	f94013a0 	ldr	x0, [x29, #32]
   83d90:	91002000 	add	x0, x0, #0x8
   83d94:	39400001 	ldrb	w1, [x0]
   83d98:	d0000220 	adrp	x0, c9000 <g_xCEcoStackTask1List_C761620F+0x37e20>
   83d9c:	91268000 	add	x0, x0, #0x9a0
   83da0:	39400000 	ldrb	w0, [x0]
   83da4:	6b00003f 	cmp	w1, w0
   83da8:	54000a61 	b.ne	83ef4 <CEcoMemoryAllocator1_4D656D31_QueryInterface+0x2a4>  // b.any
   83dac:	f94013a0 	ldr	x0, [x29, #32]
   83db0:	91002400 	add	x0, x0, #0x9
   83db4:	39400001 	ldrb	w1, [x0]
   83db8:	d0000220 	adrp	x0, c9000 <g_xCEcoStackTask1List_C761620F+0x37e20>
   83dbc:	91268400 	add	x0, x0, #0x9a1
   83dc0:	39400000 	ldrb	w0, [x0]
   83dc4:	6b00003f 	cmp	w1, w0
   83dc8:	54000961 	b.ne	83ef4 <CEcoMemoryAllocator1_4D656D31_QueryInterface+0x2a4>  // b.any
   83dcc:	f94013a0 	ldr	x0, [x29, #32]
   83dd0:	91002800 	add	x0, x0, #0xa
   83dd4:	39400001 	ldrb	w1, [x0]
   83dd8:	d0000220 	adrp	x0, c9000 <g_xCEcoStackTask1List_C761620F+0x37e20>
   83ddc:	91268800 	add	x0, x0, #0x9a2
   83de0:	39400000 	ldrb	w0, [x0]
   83de4:	6b00003f 	cmp	w1, w0
   83de8:	54000861 	b.ne	83ef4 <CEcoMemoryAllocator1_4D656D31_QueryInterface+0x2a4>  // b.any
   83dec:	f94013a0 	ldr	x0, [x29, #32]
   83df0:	91002c00 	add	x0, x0, #0xb
   83df4:	39400001 	ldrb	w1, [x0]
   83df8:	d0000220 	adrp	x0, c9000 <g_xCEcoStackTask1List_C761620F+0x37e20>
   83dfc:	91268c00 	add	x0, x0, #0x9a3
   83e00:	39400000 	ldrb	w0, [x0]
   83e04:	6b00003f 	cmp	w1, w0
   83e08:	54000761 	b.ne	83ef4 <CEcoMemoryAllocator1_4D656D31_QueryInterface+0x2a4>  // b.any
   83e0c:	f94013a0 	ldr	x0, [x29, #32]
   83e10:	91003000 	add	x0, x0, #0xc
   83e14:	39400001 	ldrb	w1, [x0]
   83e18:	d0000220 	adrp	x0, c9000 <g_xCEcoStackTask1List_C761620F+0x37e20>
   83e1c:	91269000 	add	x0, x0, #0x9a4
   83e20:	39400000 	ldrb	w0, [x0]
   83e24:	6b00003f 	cmp	w1, w0
   83e28:	54000661 	b.ne	83ef4 <CEcoMemoryAllocator1_4D656D31_QueryInterface+0x2a4>  // b.any
   83e2c:	f94013a0 	ldr	x0, [x29, #32]
   83e30:	91003400 	add	x0, x0, #0xd
   83e34:	39400001 	ldrb	w1, [x0]
   83e38:	d0000220 	adrp	x0, c9000 <g_xCEcoStackTask1List_C761620F+0x37e20>
   83e3c:	91269400 	add	x0, x0, #0x9a5
   83e40:	39400000 	ldrb	w0, [x0]
   83e44:	6b00003f 	cmp	w1, w0
   83e48:	54000561 	b.ne	83ef4 <CEcoMemoryAllocator1_4D656D31_QueryInterface+0x2a4>  // b.any
   83e4c:	f94013a0 	ldr	x0, [x29, #32]
   83e50:	91003800 	add	x0, x0, #0xe
   83e54:	39400001 	ldrb	w1, [x0]
   83e58:	d0000220 	adrp	x0, c9000 <g_xCEcoStackTask1List_C761620F+0x37e20>
   83e5c:	91269800 	add	x0, x0, #0x9a6
   83e60:	39400000 	ldrb	w0, [x0]
   83e64:	6b00003f 	cmp	w1, w0
   83e68:	54000461 	b.ne	83ef4 <CEcoMemoryAllocator1_4D656D31_QueryInterface+0x2a4>  // b.any
   83e6c:	f94013a0 	ldr	x0, [x29, #32]
   83e70:	91003c00 	add	x0, x0, #0xf
   83e74:	39400001 	ldrb	w1, [x0]
   83e78:	d0000220 	adrp	x0, c9000 <g_xCEcoStackTask1List_C761620F+0x37e20>
   83e7c:	91269c00 	add	x0, x0, #0x9a7
   83e80:	39400000 	ldrb	w0, [x0]
   83e84:	6b00003f 	cmp	w1, w0
   83e88:	54000361 	b.ne	83ef4 <CEcoMemoryAllocator1_4D656D31_QueryInterface+0x2a4>  // b.any
   83e8c:	f94013a0 	ldr	x0, [x29, #32]
   83e90:	91004000 	add	x0, x0, #0x10
   83e94:	39400001 	ldrb	w1, [x0]
   83e98:	d0000220 	adrp	x0, c9000 <g_xCEcoStackTask1List_C761620F+0x37e20>
   83e9c:	9126a000 	add	x0, x0, #0x9a8
   83ea0:	39400000 	ldrb	w0, [x0]
   83ea4:	6b00003f 	cmp	w1, w0
   83ea8:	54000261 	b.ne	83ef4 <CEcoMemoryAllocator1_4D656D31_QueryInterface+0x2a4>  // b.any
   83eac:	f94013a0 	ldr	x0, [x29, #32]
   83eb0:	91004400 	add	x0, x0, #0x11
   83eb4:	39400001 	ldrb	w1, [x0]
   83eb8:	d0000220 	adrp	x0, c9000 <g_xCEcoStackTask1List_C761620F+0x37e20>
   83ebc:	9126a400 	add	x0, x0, #0x9a9
   83ec0:	39400000 	ldrb	w0, [x0]
   83ec4:	6b00003f 	cmp	w1, w0
   83ec8:	54000161 	b.ne	83ef4 <CEcoMemoryAllocator1_4D656D31_QueryInterface+0x2a4>  // b.any
   83ecc:	f9401fa0 	ldr	x0, [x29, #56]
   83ed0:	91002001 	add	x1, x0, #0x8
   83ed4:	f9400fa0 	ldr	x0, [x29, #24]
   83ed8:	f9000001 	str	x1, [x0]
   83edc:	f9401fa0 	ldr	x0, [x29, #56]
   83ee0:	f9400000 	ldr	x0, [x0]
   83ee4:	f9400401 	ldr	x1, [x0, #8]
   83ee8:	f9401fa0 	ldr	x0, [x29, #56]
   83eec:	d63f0020 	blr	x1
   83ef0:	14000135 	b	843c4 <CEcoMemoryAllocator1_4D656D31_QueryInterface+0x774>
   83ef4:	f94013a0 	ldr	x0, [x29, #32]
   83ef8:	39400001 	ldrb	w1, [x0]
   83efc:	d0000220 	adrp	x0, c9000 <g_xCEcoStackTask1List_C761620F+0x37e20>
   83f00:	9126c000 	add	x0, x0, #0x9b0
   83f04:	39400000 	ldrb	w0, [x0]
   83f08:	6b00003f 	cmp	w1, w0
   83f0c:	54001241 	b.ne	84154 <CEcoMemoryAllocator1_4D656D31_QueryInterface+0x504>  // b.any
   83f10:	f94013a0 	ldr	x0, [x29, #32]
   83f14:	91000400 	add	x0, x0, #0x1
   83f18:	39400001 	ldrb	w1, [x0]
   83f1c:	d0000220 	adrp	x0, c9000 <g_xCEcoStackTask1List_C761620F+0x37e20>
   83f20:	9126c400 	add	x0, x0, #0x9b1
   83f24:	39400000 	ldrb	w0, [x0]
   83f28:	6b00003f 	cmp	w1, w0
   83f2c:	54001141 	b.ne	84154 <CEcoMemoryAllocator1_4D656D31_QueryInterface+0x504>  // b.any
   83f30:	f94013a0 	ldr	x0, [x29, #32]
   83f34:	91000800 	add	x0, x0, #0x2
   83f38:	39400001 	ldrb	w1, [x0]
   83f3c:	d0000220 	adrp	x0, c9000 <g_xCEcoStackTask1List_C761620F+0x37e20>
   83f40:	9126c800 	add	x0, x0, #0x9b2
   83f44:	39400000 	ldrb	w0, [x0]
   83f48:	6b00003f 	cmp	w1, w0
   83f4c:	54001041 	b.ne	84154 <CEcoMemoryAllocator1_4D656D31_QueryInterface+0x504>  // b.any
   83f50:	f94013a0 	ldr	x0, [x29, #32]
   83f54:	91000c00 	add	x0, x0, #0x3
   83f58:	39400001 	ldrb	w1, [x0]
   83f5c:	d0000220 	adrp	x0, c9000 <g_xCEcoStackTask1List_C761620F+0x37e20>
   83f60:	9126cc00 	add	x0, x0, #0x9b3
   83f64:	39400000 	ldrb	w0, [x0]
   83f68:	6b00003f 	cmp	w1, w0
   83f6c:	54000f41 	b.ne	84154 <CEcoMemoryAllocator1_4D656D31_QueryInterface+0x504>  // b.any
   83f70:	f94013a0 	ldr	x0, [x29, #32]
   83f74:	91001000 	add	x0, x0, #0x4
   83f78:	39400001 	ldrb	w1, [x0]
   83f7c:	d0000220 	adrp	x0, c9000 <g_xCEcoStackTask1List_C761620F+0x37e20>
   83f80:	9126d000 	add	x0, x0, #0x9b4
   83f84:	39400000 	ldrb	w0, [x0]
   83f88:	6b00003f 	cmp	w1, w0
   83f8c:	54000e41 	b.ne	84154 <CEcoMemoryAllocator1_4D656D31_QueryInterface+0x504>  // b.any
   83f90:	f94013a0 	ldr	x0, [x29, #32]
   83f94:	91001400 	add	x0, x0, #0x5
   83f98:	39400001 	ldrb	w1, [x0]
   83f9c:	d0000220 	adrp	x0, c9000 <g_xCEcoStackTask1List_C761620F+0x37e20>
   83fa0:	9126d400 	add	x0, x0, #0x9b5
   83fa4:	39400000 	ldrb	w0, [x0]
   83fa8:	6b00003f 	cmp	w1, w0
   83fac:	54000d41 	b.ne	84154 <CEcoMemoryAllocator1_4D656D31_QueryInterface+0x504>  // b.any
   83fb0:	f94013a0 	ldr	x0, [x29, #32]
   83fb4:	91001800 	add	x0, x0, #0x6
   83fb8:	39400001 	ldrb	w1, [x0]
   83fbc:	d0000220 	adrp	x0, c9000 <g_xCEcoStackTask1List_C761620F+0x37e20>
   83fc0:	9126d800 	add	x0, x0, #0x9b6
   83fc4:	39400000 	ldrb	w0, [x0]
   83fc8:	6b00003f 	cmp	w1, w0
   83fcc:	54000c41 	b.ne	84154 <CEcoMemoryAllocator1_4D656D31_QueryInterface+0x504>  // b.any
   83fd0:	f94013a0 	ldr	x0, [x29, #32]
   83fd4:	91001c00 	add	x0, x0, #0x7
   83fd8:	39400001 	ldrb	w1, [x0]
   83fdc:	d0000220 	adrp	x0, c9000 <g_xCEcoStackTask1List_C761620F+0x37e20>
   83fe0:	9126dc00 	add	x0, x0, #0x9b7
   83fe4:	39400000 	ldrb	w0, [x0]
   83fe8:	6b00003f 	cmp	w1, w0
   83fec:	54000b41 	b.ne	84154 <CEcoMemoryAllocator1_4D656D31_QueryInterface+0x504>  // b.any
   83ff0:	f94013a0 	ldr	x0, [x29, #32]
   83ff4:	91002000 	add	x0, x0, #0x8
   83ff8:	39400001 	ldrb	w1, [x0]
   83ffc:	d0000220 	adrp	x0, c9000 <g_xCEcoStackTask1List_C761620F+0x37e20>
   84000:	9126e000 	add	x0, x0, #0x9b8
   84004:	39400000 	ldrb	w0, [x0]
   84008:	6b00003f 	cmp	w1, w0
   8400c:	54000a41 	b.ne	84154 <CEcoMemoryAllocator1_4D656D31_QueryInterface+0x504>  // b.any
   84010:	f94013a0 	ldr	x0, [x29, #32]
   84014:	91002400 	add	x0, x0, #0x9
   84018:	39400001 	ldrb	w1, [x0]
   8401c:	b0000220 	adrp	x0, c9000 <g_xCEcoStackTask1List_C761620F+0x37e20>
   84020:	9126e400 	add	x0, x0, #0x9b9
   84024:	39400000 	ldrb	w0, [x0]
   84028:	6b00003f 	cmp	w1, w0
   8402c:	54000941 	b.ne	84154 <CEcoMemoryAllocator1_4D656D31_QueryInterface+0x504>  // b.any
   84030:	f94013a0 	ldr	x0, [x29, #32]
   84034:	91002800 	add	x0, x0, #0xa
   84038:	39400001 	ldrb	w1, [x0]
   8403c:	b0000220 	adrp	x0, c9000 <g_xCEcoStackTask1List_C761620F+0x37e20>
   84040:	9126e800 	add	x0, x0, #0x9ba
   84044:	39400000 	ldrb	w0, [x0]
   84048:	6b00003f 	cmp	w1, w0
   8404c:	54000841 	b.ne	84154 <CEcoMemoryAllocator1_4D656D31_QueryInterface+0x504>  // b.any
   84050:	f94013a0 	ldr	x0, [x29, #32]
   84054:	91002c00 	add	x0, x0, #0xb
   84058:	39400001 	ldrb	w1, [x0]
   8405c:	b0000220 	adrp	x0, c9000 <g_xCEcoStackTask1List_C761620F+0x37e20>
   84060:	9126ec00 	add	x0, x0, #0x9bb
   84064:	39400000 	ldrb	w0, [x0]
   84068:	6b00003f 	cmp	w1, w0
   8406c:	54000741 	b.ne	84154 <CEcoMemoryAllocator1_4D656D31_QueryInterface+0x504>  // b.any
   84070:	f94013a0 	ldr	x0, [x29, #32]
   84074:	91003000 	add	x0, x0, #0xc
   84078:	39400001 	ldrb	w1, [x0]
   8407c:	b0000220 	adrp	x0, c9000 <g_xCEcoStackTask1List_C761620F+0x37e20>
   84080:	9126f000 	add	x0, x0, #0x9bc
   84084:	39400000 	ldrb	w0, [x0]
   84088:	6b00003f 	cmp	w1, w0
   8408c:	54000641 	b.ne	84154 <CEcoMemoryAllocator1_4D656D31_QueryInterface+0x504>  // b.any
   84090:	f94013a0 	ldr	x0, [x29, #32]
   84094:	91003400 	add	x0, x0, #0xd
   84098:	39400001 	ldrb	w1, [x0]
   8409c:	b0000220 	adrp	x0, c9000 <g_xCEcoStackTask1List_C761620F+0x37e20>
   840a0:	9126f400 	add	x0, x0, #0x9bd
   840a4:	39400000 	ldrb	w0, [x0]
   840a8:	6b00003f 	cmp	w1, w0
   840ac:	54000541 	b.ne	84154 <CEcoMemoryAllocator1_4D656D31_QueryInterface+0x504>  // b.any
   840b0:	f94013a0 	ldr	x0, [x29, #32]
   840b4:	91003800 	add	x0, x0, #0xe
   840b8:	39400001 	ldrb	w1, [x0]
   840bc:	b0000220 	adrp	x0, c9000 <g_xCEcoStackTask1List_C761620F+0x37e20>
   840c0:	9126f800 	add	x0, x0, #0x9be
   840c4:	39400000 	ldrb	w0, [x0]
   840c8:	6b00003f 	cmp	w1, w0
   840cc:	54000441 	b.ne	84154 <CEcoMemoryAllocator1_4D656D31_QueryInterface+0x504>  // b.any
   840d0:	f94013a0 	ldr	x0, [x29, #32]
   840d4:	91003c00 	add	x0, x0, #0xf
   840d8:	39400001 	ldrb	w1, [x0]
   840dc:	b0000220 	adrp	x0, c9000 <g_xCEcoStackTask1List_C761620F+0x37e20>
   840e0:	9126fc00 	add	x0, x0, #0x9bf
   840e4:	39400000 	ldrb	w0, [x0]
   840e8:	6b00003f 	cmp	w1, w0
   840ec:	54000341 	b.ne	84154 <CEcoMemoryAllocator1_4D656D31_QueryInterface+0x504>  // b.any
   840f0:	f94013a0 	ldr	x0, [x29, #32]
   840f4:	91004000 	add	x0, x0, #0x10
   840f8:	39400001 	ldrb	w1, [x0]
   840fc:	b0000220 	adrp	x0, c9000 <g_xCEcoStackTask1List_C761620F+0x37e20>
   84100:	91270000 	add	x0, x0, #0x9c0
   84104:	39400000 	ldrb	w0, [x0]
   84108:	6b00003f 	cmp	w1, w0
   8410c:	54000241 	b.ne	84154 <CEcoMemoryAllocator1_4D656D31_QueryInterface+0x504>  // b.any
   84110:	f94013a0 	ldr	x0, [x29, #32]
   84114:	91004400 	add	x0, x0, #0x11
   84118:	39400001 	ldrb	w1, [x0]
   8411c:	b0000220 	adrp	x0, c9000 <g_xCEcoStackTask1List_C761620F+0x37e20>
   84120:	91270400 	add	x0, x0, #0x9c1
   84124:	39400000 	ldrb	w0, [x0]
   84128:	6b00003f 	cmp	w1, w0
   8412c:	54000141 	b.ne	84154 <CEcoMemoryAllocator1_4D656D31_QueryInterface+0x504>  // b.any
   84130:	f9401fa1 	ldr	x1, [x29, #56]
   84134:	f9400fa0 	ldr	x0, [x29, #24]
   84138:	f9000001 	str	x1, [x0]
   8413c:	f9401fa0 	ldr	x0, [x29, #56]
   84140:	f9400000 	ldr	x0, [x0]
   84144:	f9400401 	ldr	x1, [x0, #8]
   84148:	f9401fa0 	ldr	x0, [x29, #56]
   8414c:	d63f0020 	blr	x1
   84150:	1400009d 	b	843c4 <CEcoMemoryAllocator1_4D656D31_QueryInterface+0x774>
   84154:	f94013a0 	ldr	x0, [x29, #32]
   84158:	39400001 	ldrb	w1, [x0]
   8415c:	b0000220 	adrp	x0, c9000 <g_xCEcoStackTask1List_C761620F+0x37e20>
   84160:	91254000 	add	x0, x0, #0x950
   84164:	39400000 	ldrb	w0, [x0]
   84168:	6b00003f 	cmp	w1, w0
   8416c:	54001241 	b.ne	843b4 <CEcoMemoryAllocator1_4D656D31_QueryInterface+0x764>  // b.any
   84170:	f94013a0 	ldr	x0, [x29, #32]
   84174:	91000400 	add	x0, x0, #0x1
   84178:	39400001 	ldrb	w1, [x0]
   8417c:	b0000220 	adrp	x0, c9000 <g_xCEcoStackTask1List_C761620F+0x37e20>
   84180:	91254400 	add	x0, x0, #0x951
   84184:	39400000 	ldrb	w0, [x0]
   84188:	6b00003f 	cmp	w1, w0
   8418c:	54001141 	b.ne	843b4 <CEcoMemoryAllocator1_4D656D31_QueryInterface+0x764>  // b.any
   84190:	f94013a0 	ldr	x0, [x29, #32]
   84194:	91000800 	add	x0, x0, #0x2
   84198:	39400001 	ldrb	w1, [x0]
   8419c:	b0000220 	adrp	x0, c9000 <g_xCEcoStackTask1List_C761620F+0x37e20>
   841a0:	91254800 	add	x0, x0, #0x952
   841a4:	39400000 	ldrb	w0, [x0]
   841a8:	6b00003f 	cmp	w1, w0
   841ac:	54001041 	b.ne	843b4 <CEcoMemoryAllocator1_4D656D31_QueryInterface+0x764>  // b.any
   841b0:	f94013a0 	ldr	x0, [x29, #32]
   841b4:	91000c00 	add	x0, x0, #0x3
   841b8:	39400001 	ldrb	w1, [x0]
   841bc:	b0000220 	adrp	x0, c9000 <g_xCEcoStackTask1List_C761620F+0x37e20>
   841c0:	91254c00 	add	x0, x0, #0x953
   841c4:	39400000 	ldrb	w0, [x0]
   841c8:	6b00003f 	cmp	w1, w0
   841cc:	54000f41 	b.ne	843b4 <CEcoMemoryAllocator1_4D656D31_QueryInterface+0x764>  // b.any
   841d0:	f94013a0 	ldr	x0, [x29, #32]
   841d4:	91001000 	add	x0, x0, #0x4
   841d8:	39400001 	ldrb	w1, [x0]
   841dc:	b0000220 	adrp	x0, c9000 <g_xCEcoStackTask1List_C761620F+0x37e20>
   841e0:	91255000 	add	x0, x0, #0x954
   841e4:	39400000 	ldrb	w0, [x0]
   841e8:	6b00003f 	cmp	w1, w0
   841ec:	54000e41 	b.ne	843b4 <CEcoMemoryAllocator1_4D656D31_QueryInterface+0x764>  // b.any
   841f0:	f94013a0 	ldr	x0, [x29, #32]
   841f4:	91001400 	add	x0, x0, #0x5
   841f8:	39400001 	ldrb	w1, [x0]
   841fc:	b0000220 	adrp	x0, c9000 <g_xCEcoStackTask1List_C761620F+0x37e20>
   84200:	91255400 	add	x0, x0, #0x955
   84204:	39400000 	ldrb	w0, [x0]
   84208:	6b00003f 	cmp	w1, w0
   8420c:	54000d41 	b.ne	843b4 <CEcoMemoryAllocator1_4D656D31_QueryInterface+0x764>  // b.any
   84210:	f94013a0 	ldr	x0, [x29, #32]
   84214:	91001800 	add	x0, x0, #0x6
   84218:	39400001 	ldrb	w1, [x0]
   8421c:	b0000220 	adrp	x0, c9000 <g_xCEcoStackTask1List_C761620F+0x37e20>
   84220:	91255800 	add	x0, x0, #0x956
   84224:	39400000 	ldrb	w0, [x0]
   84228:	6b00003f 	cmp	w1, w0
   8422c:	54000c41 	b.ne	843b4 <CEcoMemoryAllocator1_4D656D31_QueryInterface+0x764>  // b.any
   84230:	f94013a0 	ldr	x0, [x29, #32]
   84234:	91001c00 	add	x0, x0, #0x7
   84238:	39400001 	ldrb	w1, [x0]
   8423c:	b0000220 	adrp	x0, c9000 <g_xCEcoStackTask1List_C761620F+0x37e20>
   84240:	91255c00 	add	x0, x0, #0x957
   84244:	39400000 	ldrb	w0, [x0]
   84248:	6b00003f 	cmp	w1, w0
   8424c:	54000b41 	b.ne	843b4 <CEcoMemoryAllocator1_4D656D31_QueryInterface+0x764>  // b.any
   84250:	f94013a0 	ldr	x0, [x29, #32]
   84254:	91002000 	add	x0, x0, #0x8
   84258:	39400001 	ldrb	w1, [x0]
   8425c:	b0000220 	adrp	x0, c9000 <g_xCEcoStackTask1List_C761620F+0x37e20>
   84260:	91256000 	add	x0, x0, #0x958
   84264:	39400000 	ldrb	w0, [x0]
   84268:	6b00003f 	cmp	w1, w0
   8426c:	54000a41 	b.ne	843b4 <CEcoMemoryAllocator1_4D656D31_QueryInterface+0x764>  // b.any
   84270:	f94013a0 	ldr	x0, [x29, #32]
   84274:	91002400 	add	x0, x0, #0x9
   84278:	39400001 	ldrb	w1, [x0]
   8427c:	b0000220 	adrp	x0, c9000 <g_xCEcoStackTask1List_C761620F+0x37e20>
   84280:	91256400 	add	x0, x0, #0x959
   84284:	39400000 	ldrb	w0, [x0]
   84288:	6b00003f 	cmp	w1, w0
   8428c:	54000941 	b.ne	843b4 <CEcoMemoryAllocator1_4D656D31_QueryInterface+0x764>  // b.any
   84290:	f94013a0 	ldr	x0, [x29, #32]
   84294:	91002800 	add	x0, x0, #0xa
   84298:	39400001 	ldrb	w1, [x0]
   8429c:	b0000220 	adrp	x0, c9000 <g_xCEcoStackTask1List_C761620F+0x37e20>
   842a0:	91256800 	add	x0, x0, #0x95a
   842a4:	39400000 	ldrb	w0, [x0]
   842a8:	6b00003f 	cmp	w1, w0
   842ac:	54000841 	b.ne	843b4 <CEcoMemoryAllocator1_4D656D31_QueryInterface+0x764>  // b.any
   842b0:	f94013a0 	ldr	x0, [x29, #32]
   842b4:	91002c00 	add	x0, x0, #0xb
   842b8:	39400001 	ldrb	w1, [x0]
   842bc:	b0000220 	adrp	x0, c9000 <g_xCEcoStackTask1List_C761620F+0x37e20>
   842c0:	91256c00 	add	x0, x0, #0x95b
   842c4:	39400000 	ldrb	w0, [x0]
   842c8:	6b00003f 	cmp	w1, w0
   842cc:	54000741 	b.ne	843b4 <CEcoMemoryAllocator1_4D656D31_QueryInterface+0x764>  // b.any
   842d0:	f94013a0 	ldr	x0, [x29, #32]
   842d4:	91003000 	add	x0, x0, #0xc
   842d8:	39400001 	ldrb	w1, [x0]
   842dc:	b0000220 	adrp	x0, c9000 <g_xCEcoStackTask1List_C761620F+0x37e20>
   842e0:	91257000 	add	x0, x0, #0x95c
   842e4:	39400000 	ldrb	w0, [x0]
   842e8:	6b00003f 	cmp	w1, w0
   842ec:	54000641 	b.ne	843b4 <CEcoMemoryAllocator1_4D656D31_QueryInterface+0x764>  // b.any
   842f0:	f94013a0 	ldr	x0, [x29, #32]
   842f4:	91003400 	add	x0, x0, #0xd
   842f8:	39400001 	ldrb	w1, [x0]
   842fc:	b0000220 	adrp	x0, c9000 <g_xCEcoStackTask1List_C761620F+0x37e20>
   84300:	91257400 	add	x0, x0, #0x95d
   84304:	39400000 	ldrb	w0, [x0]
   84308:	6b00003f 	cmp	w1, w0
   8430c:	54000541 	b.ne	843b4 <CEcoMemoryAllocator1_4D656D31_QueryInterface+0x764>  // b.any
   84310:	f94013a0 	ldr	x0, [x29, #32]
   84314:	91003800 	add	x0, x0, #0xe
   84318:	39400001 	ldrb	w1, [x0]
   8431c:	b0000220 	adrp	x0, c9000 <g_xCEcoStackTask1List_C761620F+0x37e20>
   84320:	91257800 	add	x0, x0, #0x95e
   84324:	39400000 	ldrb	w0, [x0]
   84328:	6b00003f 	cmp	w1, w0
   8432c:	54000441 	b.ne	843b4 <CEcoMemoryAllocator1_4D656D31_QueryInterface+0x764>  // b.any
   84330:	f94013a0 	ldr	x0, [x29, #32]
   84334:	91003c00 	add	x0, x0, #0xf
   84338:	39400001 	ldrb	w1, [x0]
   8433c:	b0000220 	adrp	x0, c9000 <g_xCEcoStackTask1List_C761620F+0x37e20>
   84340:	91257c00 	add	x0, x0, #0x95f
   84344:	39400000 	ldrb	w0, [x0]
   84348:	6b00003f 	cmp	w1, w0
   8434c:	54000341 	b.ne	843b4 <CEcoMemoryAllocator1_4D656D31_QueryInterface+0x764>  // b.any
   84350:	f94013a0 	ldr	x0, [x29, #32]
   84354:	91004000 	add	x0, x0, #0x10
   84358:	39400001 	ldrb	w1, [x0]
   8435c:	b0000220 	adrp	x0, c9000 <g_xCEcoStackTask1List_C761620F+0x37e20>
   84360:	91258000 	add	x0, x0, #0x960
   84364:	39400000 	ldrb	w0, [x0]
   84368:	6b00003f 	cmp	w1, w0
   8436c:	54000241 	b.ne	843b4 <CEcoMemoryAllocator1_4D656D31_QueryInterface+0x764>  // b.any
   84370:	f94013a0 	ldr	x0, [x29, #32]
   84374:	91004400 	add	x0, x0, #0x11
   84378:	39400001 	ldrb	w1, [x0]
   8437c:	b0000220 	adrp	x0, c9000 <g_xCEcoStackTask1List_C761620F+0x37e20>
   84380:	91258400 	add	x0, x0, #0x961
   84384:	39400000 	ldrb	w0, [x0]
   84388:	6b00003f 	cmp	w1, w0
   8438c:	54000141 	b.ne	843b4 <CEcoMemoryAllocator1_4D656D31_QueryInterface+0x764>  // b.any
   84390:	f9401fa1 	ldr	x1, [x29, #56]
   84394:	f9400fa0 	ldr	x0, [x29, #24]
   84398:	f9000001 	str	x1, [x0]
   8439c:	f9401fa0 	ldr	x0, [x29, #56]
   843a0:	f9400000 	ldr	x0, [x0]
   843a4:	f9400401 	ldr	x1, [x0, #8]
   843a8:	f9401fa0 	ldr	x0, [x29, #56]
   843ac:	d63f0020 	blr	x1
   843b0:	14000005 	b	843c4 <CEcoMemoryAllocator1_4D656D31_QueryInterface+0x774>
   843b4:	f9400fa0 	ldr	x0, [x29, #24]
   843b8:	f900001f 	str	xzr, [x0]
   843bc:	12800000 	mov	w0, #0xffffffff            	// #-1
   843c0:	14000002 	b	843c8 <CEcoMemoryAllocator1_4D656D31_QueryInterface+0x778>
   843c4:	52800000 	mov	w0, #0x0                   	// #0
   843c8:	a8c47bfd 	ldp	x29, x30, [sp], #64
   843cc:	d65f03c0 	ret

00000000000843d0 <CEcoMemoryAllocator1_4D656D31_AddRef>:
   843d0:	d10083ff 	sub	sp, sp, #0x20
   843d4:	f90007e0 	str	x0, [sp, #8]
   843d8:	f94007e0 	ldr	x0, [sp, #8]
   843dc:	d1002000 	sub	x0, x0, #0x8
   843e0:	f9000fe0 	str	x0, [sp, #24]
   843e4:	f94007e0 	ldr	x0, [sp, #8]
   843e8:	f100001f 	cmp	x0, #0x0
   843ec:	54000061 	b.ne	843f8 <CEcoMemoryAllocator1_4D656D31_AddRef+0x28>  // b.any
   843f0:	12800000 	mov	w0, #0xffffffff            	// #-1
   843f4:	14000008 	b	84414 <CEcoMemoryAllocator1_4D656D31_AddRef+0x44>
   843f8:	f9400fe0 	ldr	x0, [sp, #24]
   843fc:	b9401000 	ldr	w0, [x0, #16]
   84400:	11000401 	add	w1, w0, #0x1
   84404:	f9400fe0 	ldr	x0, [sp, #24]
   84408:	b9001001 	str	w1, [x0, #16]
   8440c:	f9400fe0 	ldr	x0, [sp, #24]
   84410:	b9401000 	ldr	w0, [x0, #16]
   84414:	910083ff 	add	sp, sp, #0x20
   84418:	d65f03c0 	ret

000000000008441c <CEcoMemoryAllocator1_4D656D31_Release>:
   8441c:	a9bd7bfd 	stp	x29, x30, [sp, #-48]!
   84420:	910003fd 	mov	x29, sp
   84424:	f9000fa0 	str	x0, [x29, #24]
   84428:	f9400fa0 	ldr	x0, [x29, #24]
   8442c:	d1002000 	sub	x0, x0, #0x8
   84430:	f90017a0 	str	x0, [x29, #40]
   84434:	f9400fa0 	ldr	x0, [x29, #24]
   84438:	f100001f 	cmp	x0, #0x0
   8443c:	54000061 	b.ne	84448 <CEcoMemoryAllocator1_4D656D31_Release+0x2c>  // b.any
   84440:	12800000 	mov	w0, #0xffffffff            	// #-1
   84444:	14000010 	b	84484 <CEcoMemoryAllocator1_4D656D31_Release+0x68>
   84448:	f94017a0 	ldr	x0, [x29, #40]
   8444c:	b9401000 	ldr	w0, [x0, #16]
   84450:	51000401 	sub	w1, w0, #0x1
   84454:	f94017a0 	ldr	x0, [x29, #40]
   84458:	b9001001 	str	w1, [x0, #16]
   8445c:	f94017a0 	ldr	x0, [x29, #40]
   84460:	b9401000 	ldr	w0, [x0, #16]
   84464:	7100001f 	cmp	w0, #0x0
   84468:	540000a1 	b.ne	8447c <CEcoMemoryAllocator1_4D656D31_Release+0x60>  // b.any
   8446c:	f94017a0 	ldr	x0, [x29, #40]
   84470:	97fffdcd 	bl	83ba4 <deleteCEcoMemoryManager1_4D656D31>
   84474:	52800000 	mov	w0, #0x0                   	// #0
   84478:	14000003 	b	84484 <CEcoMemoryAllocator1_4D656D31_Release+0x68>
   8447c:	f94017a0 	ldr	x0, [x29, #40]
   84480:	b9401000 	ldr	w0, [x0, #16]
   84484:	a8c37bfd 	ldp	x29, x30, [sp], #48
   84488:	d65f03c0 	ret

000000000008448c <CEcoMemoryAllocator1_4D656D31_Alloc>:
   8448c:	a9bd7bfd 	stp	x29, x30, [sp, #-48]!
   84490:	910003fd 	mov	x29, sp
   84494:	f9000fa0 	str	x0, [x29, #24]
   84498:	b90017a1 	str	w1, [x29, #20]
   8449c:	f9400fa0 	ldr	x0, [x29, #24]
   844a0:	d1002000 	sub	x0, x0, #0x8
   844a4:	f90017a0 	str	x0, [x29, #40]
   844a8:	f90013bf 	str	xzr, [x29, #32]
   844ac:	b94017a0 	ldr	w0, [x29, #20]
   844b0:	940028c6 	bl	8e7c8 <malloc>
   844b4:	f90013a0 	str	x0, [x29, #32]
   844b8:	f94017a0 	ldr	x0, [x29, #40]
   844bc:	b9403000 	ldr	w0, [x0, #48]
   844c0:	11000401 	add	w1, w0, #0x1
   844c4:	f94017a0 	ldr	x0, [x29, #40]
   844c8:	b9003001 	str	w1, [x0, #48]
   844cc:	f94013a0 	ldr	x0, [x29, #32]
   844d0:	a8c37bfd 	ldp	x29, x30, [sp], #48
   844d4:	d65f03c0 	ret

00000000000844d8 <CEcoMemoryAllocator1_4D656D31_Free>:
   844d8:	a9bd7bfd 	stp	x29, x30, [sp, #-48]!
   844dc:	910003fd 	mov	x29, sp
   844e0:	f9000fa0 	str	x0, [x29, #24]
   844e4:	f9000ba1 	str	x1, [x29, #16]
   844e8:	f9400fa0 	ldr	x0, [x29, #24]
   844ec:	d1002000 	sub	x0, x0, #0x8
   844f0:	f90017a0 	str	x0, [x29, #40]
   844f4:	f94017a0 	ldr	x0, [x29, #40]
   844f8:	b9403000 	ldr	w0, [x0, #48]
   844fc:	51000401 	sub	w1, w0, #0x1
   84500:	f94017a0 	ldr	x0, [x29, #40]
   84504:	b9003001 	str	w1, [x0, #48]
   84508:	f9400ba0 	ldr	x0, [x29, #16]
   8450c:	940028b3 	bl	8e7d8 <free>
   84510:	d503201f 	nop
   84514:	a8c37bfd 	ldp	x29, x30, [sp], #48
   84518:	d65f03c0 	ret

000000000008451c <CEcoMemoryAllocator1_4D656D31_Realloc>:
   8451c:	a9bb7bfd 	stp	x29, x30, [sp, #-80]!
   84520:	910003fd 	mov	x29, sp
   84524:	f90017a0 	str	x0, [x29, #40]
   84528:	f90013a1 	str	x1, [x29, #32]
   8452c:	b9001fa2 	str	w2, [x29, #28]
   84530:	f90027bf 	str	xzr, [x29, #72]
   84534:	b90047bf 	str	wzr, [x29, #68]
   84538:	f94013a0 	ldr	x0, [x29, #32]
   8453c:	f9001fa0 	str	x0, [x29, #56]
   84540:	f9401fa0 	ldr	x0, [x29, #56]
   84544:	d1001000 	sub	x0, x0, #0x4
   84548:	f9001fa0 	str	x0, [x29, #56]
   8454c:	f9401fa0 	ldr	x0, [x29, #56]
   84550:	f9001ba0 	str	x0, [x29, #48]
   84554:	f9401ba0 	ldr	x0, [x29, #48]
   84558:	b9400000 	ldr	w0, [x0]
   8455c:	b90047a0 	str	w0, [x29, #68]
   84560:	f94017a0 	ldr	x0, [x29, #40]
   84564:	f100001f 	cmp	x0, #0x0
   84568:	540004c0 	b.eq	84600 <CEcoMemoryAllocator1_4D656D31_Realloc+0xe4>  // b.none
   8456c:	f94017a0 	ldr	x0, [x29, #40]
   84570:	f9400000 	ldr	x0, [x0]
   84574:	f9400c02 	ldr	x2, [x0, #24]
   84578:	b9401fa1 	ldr	w1, [x29, #28]
   8457c:	f94017a0 	ldr	x0, [x29, #40]
   84580:	d63f0040 	blr	x2
   84584:	f90027a0 	str	x0, [x29, #72]
   84588:	f94027a0 	ldr	x0, [x29, #72]
   8458c:	f100001f 	cmp	x0, #0x0
   84590:	54000380 	b.eq	84600 <CEcoMemoryAllocator1_4D656D31_Realloc+0xe4>  // b.none
   84594:	b94047a1 	ldr	w1, [x29, #68]
   84598:	b9401fa0 	ldr	w0, [x29, #28]
   8459c:	6b00003f 	cmp	w1, w0
   845a0:	54000142 	b.cs	845c8 <CEcoMemoryAllocator1_4D656D31_Realloc+0xac>  // b.hs, b.nlast
   845a4:	f94017a0 	ldr	x0, [x29, #40]
   845a8:	f9400000 	ldr	x0, [x0]
   845ac:	f9401804 	ldr	x4, [x0, #48]
   845b0:	b94047a3 	ldr	w3, [x29, #68]
   845b4:	f94013a2 	ldr	x2, [x29, #32]
   845b8:	f94027a1 	ldr	x1, [x29, #72]
   845bc:	f94017a0 	ldr	x0, [x29, #40]
   845c0:	d63f0080 	blr	x4
   845c4:	14000009 	b	845e8 <CEcoMemoryAllocator1_4D656D31_Realloc+0xcc>
   845c8:	f94017a0 	ldr	x0, [x29, #40]
   845cc:	f9400000 	ldr	x0, [x0]
   845d0:	f9401804 	ldr	x4, [x0, #48]
   845d4:	b9401fa3 	ldr	w3, [x29, #28]
   845d8:	f94013a2 	ldr	x2, [x29, #32]
   845dc:	f94027a1 	ldr	x1, [x29, #72]
   845e0:	f94017a0 	ldr	x0, [x29, #40]
   845e4:	d63f0080 	blr	x4
   845e8:	f94017a0 	ldr	x0, [x29, #40]
   845ec:	f9400000 	ldr	x0, [x0]
   845f0:	f9401002 	ldr	x2, [x0, #32]
   845f4:	f94013a1 	ldr	x1, [x29, #32]
   845f8:	f94017a0 	ldr	x0, [x29, #40]
   845fc:	d63f0040 	blr	x2
   84600:	f94027a0 	ldr	x0, [x29, #72]
   84604:	a8c57bfd 	ldp	x29, x30, [sp], #80
   84608:	d65f03c0 	ret

000000000008460c <CEcoMemoryAllocator1_4D656D31_Copy>:
   8460c:	d100c3ff 	sub	sp, sp, #0x30
   84610:	f9000fe0 	str	x0, [sp, #24]
   84614:	f9000be1 	str	x1, [sp, #16]
   84618:	f90007e2 	str	x2, [sp, #8]
   8461c:	b90007e3 	str	w3, [sp, #4]
   84620:	b9002fff 	str	wzr, [sp, #44]
   84624:	f9400fe0 	ldr	x0, [sp, #24]
   84628:	f100001f 	cmp	x0, #0x0
   8462c:	54000240 	b.eq	84674 <CEcoMemoryAllocator1_4D656D31_Copy+0x68>  // b.none
   84630:	b9002fff 	str	wzr, [sp, #44]
   84634:	1400000c 	b	84664 <CEcoMemoryAllocator1_4D656D31_Copy+0x58>
   84638:	b9402fe0 	ldr	w0, [sp, #44]
   8463c:	f94007e1 	ldr	x1, [sp, #8]
   84640:	8b000021 	add	x1, x1, x0
   84644:	b9402fe0 	ldr	w0, [sp, #44]
   84648:	f9400be2 	ldr	x2, [sp, #16]
   8464c:	8b000040 	add	x0, x2, x0
   84650:	39400021 	ldrb	w1, [x1]
   84654:	39000001 	strb	w1, [x0]
   84658:	b9402fe0 	ldr	w0, [sp, #44]
   8465c:	11000400 	add	w0, w0, #0x1
   84660:	b9002fe0 	str	w0, [sp, #44]
   84664:	b9402fe1 	ldr	w1, [sp, #44]
   84668:	b94007e0 	ldr	w0, [sp, #4]
   8466c:	6b00003f 	cmp	w1, w0
   84670:	54fffe43 	b.cc	84638 <CEcoMemoryAllocator1_4D656D31_Copy+0x2c>  // b.lo, b.ul, b.last
   84674:	f9400be0 	ldr	x0, [sp, #16]
   84678:	9100c3ff 	add	sp, sp, #0x30
   8467c:	d65f03c0 	ret

0000000000084680 <CEcoMemoryAllocator1_4D656D31_Fill>:
   84680:	d100c3ff 	sub	sp, sp, #0x30
   84684:	f9000fe0 	str	x0, [sp, #24]
   84688:	f9000be1 	str	x1, [sp, #16]
   8468c:	39003fe2 	strb	w2, [sp, #15]
   84690:	b9000be3 	str	w3, [sp, #8]
   84694:	b9002fff 	str	wzr, [sp, #44]
   84698:	f9400fe0 	ldr	x0, [sp, #24]
   8469c:	f100001f 	cmp	x0, #0x0
   846a0:	540001e0 	b.eq	846dc <CEcoMemoryAllocator1_4D656D31_Fill+0x5c>  // b.none
   846a4:	b9002fff 	str	wzr, [sp, #44]
   846a8:	14000009 	b	846cc <CEcoMemoryAllocator1_4D656D31_Fill+0x4c>
   846ac:	b9402fe0 	ldr	w0, [sp, #44]
   846b0:	f9400be1 	ldr	x1, [sp, #16]
   846b4:	8b000020 	add	x0, x1, x0
   846b8:	39403fe1 	ldrb	w1, [sp, #15]
   846bc:	39000001 	strb	w1, [x0]
   846c0:	b9402fe0 	ldr	w0, [sp, #44]
   846c4:	11000400 	add	w0, w0, #0x1
   846c8:	b9002fe0 	str	w0, [sp, #44]
   846cc:	b9402fe1 	ldr	w1, [sp, #44]
   846d0:	b9400be0 	ldr	w0, [sp, #8]
   846d4:	6b00003f 	cmp	w1, w0
   846d8:	54fffea3 	b.cc	846ac <CEcoMemoryAllocator1_4D656D31_Fill+0x2c>  // b.lo, b.ul, b.last
   846dc:	f9400be0 	ldr	x0, [sp, #16]
   846e0:	9100c3ff 	add	sp, sp, #0x30
   846e4:	d65f03c0 	ret

00000000000846e8 <CEcoMemoryAllocator1_4D656D31_Compare>:
   846e8:	d100c3ff 	sub	sp, sp, #0x30
   846ec:	f9000fe0 	str	x0, [sp, #24]
   846f0:	f9000be1 	str	x1, [sp, #16]
   846f4:	f90007e2 	str	x2, [sp, #8]
   846f8:	b90007e3 	str	w3, [sp, #4]
   846fc:	12800000 	mov	w0, #0xffffffff            	// #-1
   84700:	79005fe0 	strh	w0, [sp, #46]
   84704:	b9002bff 	str	wzr, [sp, #40]
   84708:	f9400fe0 	ldr	x0, [sp, #24]
   8470c:	f100001f 	cmp	x0, #0x0
   84710:	540005e0 	b.eq	847cc <CEcoMemoryAllocator1_4D656D31_Compare+0xe4>  // b.none
   84714:	b9002bff 	str	wzr, [sp, #40]
   84718:	14000029 	b	847bc <CEcoMemoryAllocator1_4D656D31_Compare+0xd4>
   8471c:	b9402be0 	ldr	w0, [sp, #40]
   84720:	f9400be1 	ldr	x1, [sp, #16]
   84724:	8b000020 	add	x0, x1, x0
   84728:	39400001 	ldrb	w1, [x0]
   8472c:	b9402be0 	ldr	w0, [sp, #40]
   84730:	f94007e2 	ldr	x2, [sp, #8]
   84734:	8b000040 	add	x0, x2, x0
   84738:	39400000 	ldrb	w0, [x0]
   8473c:	6b00003f 	cmp	w1, w0
   84740:	54000082 	b.cs	84750 <CEcoMemoryAllocator1_4D656D31_Compare+0x68>  // b.hs, b.nlast
   84744:	12800000 	mov	w0, #0xffffffff            	// #-1
   84748:	79005fe0 	strh	w0, [sp, #46]
   8474c:	14000020 	b	847cc <CEcoMemoryAllocator1_4D656D31_Compare+0xe4>
   84750:	b9402be0 	ldr	w0, [sp, #40]
   84754:	f9400be1 	ldr	x1, [sp, #16]
   84758:	8b000020 	add	x0, x1, x0
   8475c:	39400001 	ldrb	w1, [x0]
   84760:	b9402be0 	ldr	w0, [sp, #40]
   84764:	f94007e2 	ldr	x2, [sp, #8]
   84768:	8b000040 	add	x0, x2, x0
   8476c:	39400000 	ldrb	w0, [x0]
   84770:	6b00003f 	cmp	w1, w0
   84774:	54000089 	b.ls	84784 <CEcoMemoryAllocator1_4D656D31_Compare+0x9c>  // b.plast
   84778:	52800020 	mov	w0, #0x1                   	// #1
   8477c:	79005fe0 	strh	w0, [sp, #46]
   84780:	14000013 	b	847cc <CEcoMemoryAllocator1_4D656D31_Compare+0xe4>
   84784:	b9402be0 	ldr	w0, [sp, #40]
   84788:	f9400be1 	ldr	x1, [sp, #16]
   8478c:	8b000020 	add	x0, x1, x0
   84790:	39400001 	ldrb	w1, [x0]
   84794:	b9402be0 	ldr	w0, [sp, #40]
   84798:	f94007e2 	ldr	x2, [sp, #8]
   8479c:	8b000040 	add	x0, x2, x0
   847a0:	39400000 	ldrb	w0, [x0]
   847a4:	6b00003f 	cmp	w1, w0
   847a8:	54000041 	b.ne	847b0 <CEcoMemoryAllocator1_4D656D31_Compare+0xc8>  // b.any
   847ac:	79005fff 	strh	wzr, [sp, #46]
   847b0:	b9402be0 	ldr	w0, [sp, #40]
   847b4:	11000400 	add	w0, w0, #0x1
   847b8:	b9002be0 	str	w0, [sp, #40]
   847bc:	b9402be1 	ldr	w1, [sp, #40]
   847c0:	b94007e0 	ldr	w0, [sp, #4]
   847c4:	6b00003f 	cmp	w1, w0
   847c8:	54fffaa3 	b.cc	8471c <CEcoMemoryAllocator1_4D656D31_Compare+0x34>  // b.lo, b.ul, b.last
   847cc:	79c05fe0 	ldrsh	w0, [sp, #46]
   847d0:	9100c3ff 	add	sp, sp, #0x30
   847d4:	d65f03c0 	ret

00000000000847d8 <CEcoIPCCMailbox1Factory_QueryInterface>:
   847d8:	a9bd7bfd 	stp	x29, x30, [sp, #-48]!
   847dc:	910003fd 	mov	x29, sp
   847e0:	f90017a0 	str	x0, [x29, #40]
   847e4:	f90013a1 	str	x1, [x29, #32]
   847e8:	f9000fa2 	str	x2, [x29, #24]
   847ec:	f94013a0 	ldr	x0, [x29, #32]
   847f0:	39400001 	ldrb	w1, [x0]
   847f4:	b0000220 	adrp	x0, c9000 <g_xCEcoStackTask1List_C761620F+0x37e20>
   847f8:	91272000 	add	x0, x0, #0x9c8
   847fc:	39400000 	ldrb	w0, [x0]
   84800:	6b00003f 	cmp	w1, w0
   84804:	54001121 	b.ne	84a28 <CEcoIPCCMailbox1Factory_QueryInterface+0x250>  // b.any
   84808:	f94013a0 	ldr	x0, [x29, #32]
   8480c:	91000400 	add	x0, x0, #0x1
   84810:	39400001 	ldrb	w1, [x0]
   84814:	b0000220 	adrp	x0, c9000 <g_xCEcoStackTask1List_C761620F+0x37e20>
   84818:	91272400 	add	x0, x0, #0x9c9
   8481c:	39400000 	ldrb	w0, [x0]
   84820:	6b00003f 	cmp	w1, w0
   84824:	54001021 	b.ne	84a28 <CEcoIPCCMailbox1Factory_QueryInterface+0x250>  // b.any
   84828:	f94013a0 	ldr	x0, [x29, #32]
   8482c:	91000800 	add	x0, x0, #0x2
   84830:	39400001 	ldrb	w1, [x0]
   84834:	b0000220 	adrp	x0, c9000 <g_xCEcoStackTask1List_C761620F+0x37e20>
   84838:	91272800 	add	x0, x0, #0x9ca
   8483c:	39400000 	ldrb	w0, [x0]
   84840:	6b00003f 	cmp	w1, w0
   84844:	54000f21 	b.ne	84a28 <CEcoIPCCMailbox1Factory_QueryInterface+0x250>  // b.any
   84848:	f94013a0 	ldr	x0, [x29, #32]
   8484c:	91000c00 	add	x0, x0, #0x3
   84850:	39400001 	ldrb	w1, [x0]
   84854:	b0000220 	adrp	x0, c9000 <g_xCEcoStackTask1List_C761620F+0x37e20>
   84858:	91272c00 	add	x0, x0, #0x9cb
   8485c:	39400000 	ldrb	w0, [x0]
   84860:	6b00003f 	cmp	w1, w0
   84864:	54000e21 	b.ne	84a28 <CEcoIPCCMailbox1Factory_QueryInterface+0x250>  // b.any
   84868:	f94013a0 	ldr	x0, [x29, #32]
   8486c:	91001000 	add	x0, x0, #0x4
   84870:	39400001 	ldrb	w1, [x0]
   84874:	b0000220 	adrp	x0, c9000 <g_xCEcoStackTask1List_C761620F+0x37e20>
   84878:	91273000 	add	x0, x0, #0x9cc
   8487c:	39400000 	ldrb	w0, [x0]
   84880:	6b00003f 	cmp	w1, w0
   84884:	54000d21 	b.ne	84a28 <CEcoIPCCMailbox1Factory_QueryInterface+0x250>  // b.any
   84888:	f94013a0 	ldr	x0, [x29, #32]
   8488c:	91001400 	add	x0, x0, #0x5
   84890:	39400001 	ldrb	w1, [x0]
   84894:	b0000220 	adrp	x0, c9000 <g_xCEcoStackTask1List_C761620F+0x37e20>
   84898:	91273400 	add	x0, x0, #0x9cd
   8489c:	39400000 	ldrb	w0, [x0]
   848a0:	6b00003f 	cmp	w1, w0
   848a4:	54000c21 	b.ne	84a28 <CEcoIPCCMailbox1Factory_QueryInterface+0x250>  // b.any
   848a8:	f94013a0 	ldr	x0, [x29, #32]
   848ac:	91001800 	add	x0, x0, #0x6
   848b0:	39400001 	ldrb	w1, [x0]
   848b4:	b0000220 	adrp	x0, c9000 <g_xCEcoStackTask1List_C761620F+0x37e20>
   848b8:	91273800 	add	x0, x0, #0x9ce
   848bc:	39400000 	ldrb	w0, [x0]
   848c0:	6b00003f 	cmp	w1, w0
   848c4:	54000b21 	b.ne	84a28 <CEcoIPCCMailbox1Factory_QueryInterface+0x250>  // b.any
   848c8:	f94013a0 	ldr	x0, [x29, #32]
   848cc:	91001c00 	add	x0, x0, #0x7
   848d0:	39400001 	ldrb	w1, [x0]
   848d4:	b0000220 	adrp	x0, c9000 <g_xCEcoStackTask1List_C761620F+0x37e20>
   848d8:	91273c00 	add	x0, x0, #0x9cf
   848dc:	39400000 	ldrb	w0, [x0]
   848e0:	6b00003f 	cmp	w1, w0
   848e4:	54000a21 	b.ne	84a28 <CEcoIPCCMailbox1Factory_QueryInterface+0x250>  // b.any
   848e8:	f94013a0 	ldr	x0, [x29, #32]
   848ec:	91002000 	add	x0, x0, #0x8
   848f0:	39400001 	ldrb	w1, [x0]
   848f4:	b0000220 	adrp	x0, c9000 <g_xCEcoStackTask1List_C761620F+0x37e20>
   848f8:	91274000 	add	x0, x0, #0x9d0
   848fc:	39400000 	ldrb	w0, [x0]
   84900:	6b00003f 	cmp	w1, w0
   84904:	54000921 	b.ne	84a28 <CEcoIPCCMailbox1Factory_QueryInterface+0x250>  // b.any
   84908:	f94013a0 	ldr	x0, [x29, #32]
   8490c:	91002400 	add	x0, x0, #0x9
   84910:	39400001 	ldrb	w1, [x0]
   84914:	b0000220 	adrp	x0, c9000 <g_xCEcoStackTask1List_C761620F+0x37e20>
   84918:	91274400 	add	x0, x0, #0x9d1
   8491c:	39400000 	ldrb	w0, [x0]
   84920:	6b00003f 	cmp	w1, w0
   84924:	54000821 	b.ne	84a28 <CEcoIPCCMailbox1Factory_QueryInterface+0x250>  // b.any
   84928:	f94013a0 	ldr	x0, [x29, #32]
   8492c:	91002800 	add	x0, x0, #0xa
   84930:	39400001 	ldrb	w1, [x0]
   84934:	b0000220 	adrp	x0, c9000 <g_xCEcoStackTask1List_C761620F+0x37e20>
   84938:	91274800 	add	x0, x0, #0x9d2
   8493c:	39400000 	ldrb	w0, [x0]
   84940:	6b00003f 	cmp	w1, w0
   84944:	54000721 	b.ne	84a28 <CEcoIPCCMailbox1Factory_QueryInterface+0x250>  // b.any
   84948:	f94013a0 	ldr	x0, [x29, #32]
   8494c:	91002c00 	add	x0, x0, #0xb
   84950:	39400001 	ldrb	w1, [x0]
   84954:	b0000220 	adrp	x0, c9000 <g_xCEcoStackTask1List_C761620F+0x37e20>
   84958:	91274c00 	add	x0, x0, #0x9d3
   8495c:	39400000 	ldrb	w0, [x0]
   84960:	6b00003f 	cmp	w1, w0
   84964:	54000621 	b.ne	84a28 <CEcoIPCCMailbox1Factory_QueryInterface+0x250>  // b.any
   84968:	f94013a0 	ldr	x0, [x29, #32]
   8496c:	91003000 	add	x0, x0, #0xc
   84970:	39400001 	ldrb	w1, [x0]
   84974:	b0000220 	adrp	x0, c9000 <g_xCEcoStackTask1List_C761620F+0x37e20>
   84978:	91275000 	add	x0, x0, #0x9d4
   8497c:	39400000 	ldrb	w0, [x0]
   84980:	6b00003f 	cmp	w1, w0
   84984:	54000521 	b.ne	84a28 <CEcoIPCCMailbox1Factory_QueryInterface+0x250>  // b.any
   84988:	f94013a0 	ldr	x0, [x29, #32]
   8498c:	91003400 	add	x0, x0, #0xd
   84990:	39400001 	ldrb	w1, [x0]
   84994:	b0000220 	adrp	x0, c9000 <g_xCEcoStackTask1List_C761620F+0x37e20>
   84998:	91275400 	add	x0, x0, #0x9d5
   8499c:	39400000 	ldrb	w0, [x0]
   849a0:	6b00003f 	cmp	w1, w0
   849a4:	54000421 	b.ne	84a28 <CEcoIPCCMailbox1Factory_QueryInterface+0x250>  // b.any
   849a8:	f94013a0 	ldr	x0, [x29, #32]
   849ac:	91003800 	add	x0, x0, #0xe
   849b0:	39400001 	ldrb	w1, [x0]
   849b4:	b0000220 	adrp	x0, c9000 <g_xCEcoStackTask1List_C761620F+0x37e20>
   849b8:	91275800 	add	x0, x0, #0x9d6
   849bc:	39400000 	ldrb	w0, [x0]
   849c0:	6b00003f 	cmp	w1, w0
   849c4:	54000321 	b.ne	84a28 <CEcoIPCCMailbox1Factory_QueryInterface+0x250>  // b.any
   849c8:	f94013a0 	ldr	x0, [x29, #32]
   849cc:	91003c00 	add	x0, x0, #0xf
   849d0:	39400001 	ldrb	w1, [x0]
   849d4:	b0000220 	adrp	x0, c9000 <g_xCEcoStackTask1List_C761620F+0x37e20>
   849d8:	91275c00 	add	x0, x0, #0x9d7
   849dc:	39400000 	ldrb	w0, [x0]
   849e0:	6b00003f 	cmp	w1, w0
   849e4:	54000221 	b.ne	84a28 <CEcoIPCCMailbox1Factory_QueryInterface+0x250>  // b.any
   849e8:	f94013a0 	ldr	x0, [x29, #32]
   849ec:	91004000 	add	x0, x0, #0x10
   849f0:	39400001 	ldrb	w1, [x0]
   849f4:	b0000220 	adrp	x0, c9000 <g_xCEcoStackTask1List_C761620F+0x37e20>
   849f8:	91276000 	add	x0, x0, #0x9d8
   849fc:	39400000 	ldrb	w0, [x0]
   84a00:	6b00003f 	cmp	w1, w0
   84a04:	54000121 	b.ne	84a28 <CEcoIPCCMailbox1Factory_QueryInterface+0x250>  // b.any
   84a08:	f94013a0 	ldr	x0, [x29, #32]
   84a0c:	91004400 	add	x0, x0, #0x11
   84a10:	39400001 	ldrb	w1, [x0]
   84a14:	b0000220 	adrp	x0, c9000 <g_xCEcoStackTask1List_C761620F+0x37e20>
   84a18:	91276400 	add	x0, x0, #0x9d9
   84a1c:	39400000 	ldrb	w0, [x0]
   84a20:	6b00003f 	cmp	w1, w0
   84a24:	54001200 	b.eq	84c64 <CEcoIPCCMailbox1Factory_QueryInterface+0x48c>  // b.none
   84a28:	f94013a0 	ldr	x0, [x29, #32]
   84a2c:	39400001 	ldrb	w1, [x0]
   84a30:	b0000220 	adrp	x0, c9000 <g_xCEcoStackTask1List_C761620F+0x37e20>
   84a34:	91278000 	add	x0, x0, #0x9e0
   84a38:	39400000 	ldrb	w0, [x0]
   84a3c:	6b00003f 	cmp	w1, w0
   84a40:	540012a1 	b.ne	84c94 <CEcoIPCCMailbox1Factory_QueryInterface+0x4bc>  // b.any
   84a44:	f94013a0 	ldr	x0, [x29, #32]
   84a48:	91000400 	add	x0, x0, #0x1
   84a4c:	39400001 	ldrb	w1, [x0]
   84a50:	b0000220 	adrp	x0, c9000 <g_xCEcoStackTask1List_C761620F+0x37e20>
   84a54:	91278400 	add	x0, x0, #0x9e1
   84a58:	39400000 	ldrb	w0, [x0]
   84a5c:	6b00003f 	cmp	w1, w0
   84a60:	540011a1 	b.ne	84c94 <CEcoIPCCMailbox1Factory_QueryInterface+0x4bc>  // b.any
   84a64:	f94013a0 	ldr	x0, [x29, #32]
   84a68:	91000800 	add	x0, x0, #0x2
   84a6c:	39400001 	ldrb	w1, [x0]
   84a70:	b0000220 	adrp	x0, c9000 <g_xCEcoStackTask1List_C761620F+0x37e20>
   84a74:	91278800 	add	x0, x0, #0x9e2
   84a78:	39400000 	ldrb	w0, [x0]
   84a7c:	6b00003f 	cmp	w1, w0
   84a80:	540010a1 	b.ne	84c94 <CEcoIPCCMailbox1Factory_QueryInterface+0x4bc>  // b.any
   84a84:	f94013a0 	ldr	x0, [x29, #32]
   84a88:	91000c00 	add	x0, x0, #0x3
   84a8c:	39400001 	ldrb	w1, [x0]
   84a90:	b0000220 	adrp	x0, c9000 <g_xCEcoStackTask1List_C761620F+0x37e20>
   84a94:	91278c00 	add	x0, x0, #0x9e3
   84a98:	39400000 	ldrb	w0, [x0]
   84a9c:	6b00003f 	cmp	w1, w0
   84aa0:	54000fa1 	b.ne	84c94 <CEcoIPCCMailbox1Factory_QueryInterface+0x4bc>  // b.any
   84aa4:	f94013a0 	ldr	x0, [x29, #32]
   84aa8:	91001000 	add	x0, x0, #0x4
   84aac:	39400001 	ldrb	w1, [x0]
   84ab0:	b0000220 	adrp	x0, c9000 <g_xCEcoStackTask1List_C761620F+0x37e20>
   84ab4:	91279000 	add	x0, x0, #0x9e4
   84ab8:	39400000 	ldrb	w0, [x0]
   84abc:	6b00003f 	cmp	w1, w0
   84ac0:	54000ea1 	b.ne	84c94 <CEcoIPCCMailbox1Factory_QueryInterface+0x4bc>  // b.any
   84ac4:	f94013a0 	ldr	x0, [x29, #32]
   84ac8:	91001400 	add	x0, x0, #0x5
   84acc:	39400001 	ldrb	w1, [x0]
   84ad0:	b0000220 	adrp	x0, c9000 <g_xCEcoStackTask1List_C761620F+0x37e20>
   84ad4:	91279400 	add	x0, x0, #0x9e5
   84ad8:	39400000 	ldrb	w0, [x0]
   84adc:	6b00003f 	cmp	w1, w0
   84ae0:	54000da1 	b.ne	84c94 <CEcoIPCCMailbox1Factory_QueryInterface+0x4bc>  // b.any
   84ae4:	f94013a0 	ldr	x0, [x29, #32]
   84ae8:	91001800 	add	x0, x0, #0x6
   84aec:	39400001 	ldrb	w1, [x0]
   84af0:	b0000220 	adrp	x0, c9000 <g_xCEcoStackTask1List_C761620F+0x37e20>
   84af4:	91279800 	add	x0, x0, #0x9e6
   84af8:	39400000 	ldrb	w0, [x0]
   84afc:	6b00003f 	cmp	w1, w0
   84b00:	54000ca1 	b.ne	84c94 <CEcoIPCCMailbox1Factory_QueryInterface+0x4bc>  // b.any
   84b04:	f94013a0 	ldr	x0, [x29, #32]
   84b08:	91001c00 	add	x0, x0, #0x7
   84b0c:	39400001 	ldrb	w1, [x0]
   84b10:	b0000220 	adrp	x0, c9000 <g_xCEcoStackTask1List_C761620F+0x37e20>
   84b14:	91279c00 	add	x0, x0, #0x9e7
   84b18:	39400000 	ldrb	w0, [x0]
   84b1c:	6b00003f 	cmp	w1, w0
   84b20:	54000ba1 	b.ne	84c94 <CEcoIPCCMailbox1Factory_QueryInterface+0x4bc>  // b.any
   84b24:	f94013a0 	ldr	x0, [x29, #32]
   84b28:	91002000 	add	x0, x0, #0x8
   84b2c:	39400001 	ldrb	w1, [x0]
   84b30:	b0000220 	adrp	x0, c9000 <g_xCEcoStackTask1List_C761620F+0x37e20>
   84b34:	9127a000 	add	x0, x0, #0x9e8
   84b38:	39400000 	ldrb	w0, [x0]
   84b3c:	6b00003f 	cmp	w1, w0
   84b40:	54000aa1 	b.ne	84c94 <CEcoIPCCMailbox1Factory_QueryInterface+0x4bc>  // b.any
   84b44:	f94013a0 	ldr	x0, [x29, #32]
   84b48:	91002400 	add	x0, x0, #0x9
   84b4c:	39400001 	ldrb	w1, [x0]
   84b50:	b0000220 	adrp	x0, c9000 <g_xCEcoStackTask1List_C761620F+0x37e20>
   84b54:	9127a400 	add	x0, x0, #0x9e9
   84b58:	39400000 	ldrb	w0, [x0]
   84b5c:	6b00003f 	cmp	w1, w0
   84b60:	540009a1 	b.ne	84c94 <CEcoIPCCMailbox1Factory_QueryInterface+0x4bc>  // b.any
   84b64:	f94013a0 	ldr	x0, [x29, #32]
   84b68:	91002800 	add	x0, x0, #0xa
   84b6c:	39400001 	ldrb	w1, [x0]
   84b70:	b0000220 	adrp	x0, c9000 <g_xCEcoStackTask1List_C761620F+0x37e20>
   84b74:	9127a800 	add	x0, x0, #0x9ea
   84b78:	39400000 	ldrb	w0, [x0]
   84b7c:	6b00003f 	cmp	w1, w0
   84b80:	540008a1 	b.ne	84c94 <CEcoIPCCMailbox1Factory_QueryInterface+0x4bc>  // b.any
   84b84:	f94013a0 	ldr	x0, [x29, #32]
   84b88:	91002c00 	add	x0, x0, #0xb
   84b8c:	39400001 	ldrb	w1, [x0]
   84b90:	b0000220 	adrp	x0, c9000 <g_xCEcoStackTask1List_C761620F+0x37e20>
   84b94:	9127ac00 	add	x0, x0, #0x9eb
   84b98:	39400000 	ldrb	w0, [x0]
   84b9c:	6b00003f 	cmp	w1, w0
   84ba0:	540007a1 	b.ne	84c94 <CEcoIPCCMailbox1Factory_QueryInterface+0x4bc>  // b.any
   84ba4:	f94013a0 	ldr	x0, [x29, #32]
   84ba8:	91003000 	add	x0, x0, #0xc
   84bac:	39400001 	ldrb	w1, [x0]
   84bb0:	b0000220 	adrp	x0, c9000 <g_xCEcoStackTask1List_C761620F+0x37e20>
   84bb4:	9127b000 	add	x0, x0, #0x9ec
   84bb8:	39400000 	ldrb	w0, [x0]
   84bbc:	6b00003f 	cmp	w1, w0
   84bc0:	540006a1 	b.ne	84c94 <CEcoIPCCMailbox1Factory_QueryInterface+0x4bc>  // b.any
   84bc4:	f94013a0 	ldr	x0, [x29, #32]
   84bc8:	91003400 	add	x0, x0, #0xd
   84bcc:	39400001 	ldrb	w1, [x0]
   84bd0:	b0000220 	adrp	x0, c9000 <g_xCEcoStackTask1List_C761620F+0x37e20>
   84bd4:	9127b400 	add	x0, x0, #0x9ed
   84bd8:	39400000 	ldrb	w0, [x0]
   84bdc:	6b00003f 	cmp	w1, w0
   84be0:	540005a1 	b.ne	84c94 <CEcoIPCCMailbox1Factory_QueryInterface+0x4bc>  // b.any
   84be4:	f94013a0 	ldr	x0, [x29, #32]
   84be8:	91003800 	add	x0, x0, #0xe
   84bec:	39400001 	ldrb	w1, [x0]
   84bf0:	b0000220 	adrp	x0, c9000 <g_xCEcoStackTask1List_C761620F+0x37e20>
   84bf4:	9127b800 	add	x0, x0, #0x9ee
   84bf8:	39400000 	ldrb	w0, [x0]
   84bfc:	6b00003f 	cmp	w1, w0
   84c00:	540004a1 	b.ne	84c94 <CEcoIPCCMailbox1Factory_QueryInterface+0x4bc>  // b.any
   84c04:	f94013a0 	ldr	x0, [x29, #32]
   84c08:	91003c00 	add	x0, x0, #0xf
   84c0c:	39400001 	ldrb	w1, [x0]
   84c10:	b0000220 	adrp	x0, c9000 <g_xCEcoStackTask1List_C761620F+0x37e20>
   84c14:	9127bc00 	add	x0, x0, #0x9ef
   84c18:	39400000 	ldrb	w0, [x0]
   84c1c:	6b00003f 	cmp	w1, w0
   84c20:	540003a1 	b.ne	84c94 <CEcoIPCCMailbox1Factory_QueryInterface+0x4bc>  // b.any
   84c24:	f94013a0 	ldr	x0, [x29, #32]
   84c28:	91004000 	add	x0, x0, #0x10
   84c2c:	39400001 	ldrb	w1, [x0]
   84c30:	b0000220 	adrp	x0, c9000 <g_xCEcoStackTask1List_C761620F+0x37e20>
   84c34:	9127c000 	add	x0, x0, #0x9f0
   84c38:	39400000 	ldrb	w0, [x0]
   84c3c:	6b00003f 	cmp	w1, w0
   84c40:	540002a1 	b.ne	84c94 <CEcoIPCCMailbox1Factory_QueryInterface+0x4bc>  // b.any
   84c44:	f94013a0 	ldr	x0, [x29, #32]
   84c48:	91004400 	add	x0, x0, #0x11
   84c4c:	39400001 	ldrb	w1, [x0]
   84c50:	b0000220 	adrp	x0, c9000 <g_xCEcoStackTask1List_C761620F+0x37e20>
   84c54:	9127c400 	add	x0, x0, #0x9f1
   84c58:	39400000 	ldrb	w0, [x0]
   84c5c:	6b00003f 	cmp	w1, w0
   84c60:	540001a1 	b.ne	84c94 <CEcoIPCCMailbox1Factory_QueryInterface+0x4bc>  // b.any
   84c64:	f9400fa0 	ldr	x0, [x29, #24]
   84c68:	f94017a1 	ldr	x1, [x29, #40]
   84c6c:	f9000001 	str	x1, [x0]
   84c70:	f9400fa0 	ldr	x0, [x29, #24]
   84c74:	f9400000 	ldr	x0, [x0]
   84c78:	f9400000 	ldr	x0, [x0]
   84c7c:	f9400401 	ldr	x1, [x0, #8]
   84c80:	f9400fa0 	ldr	x0, [x29, #24]
   84c84:	f9400000 	ldr	x0, [x0]
   84c88:	d63f0020 	blr	x1
   84c8c:	52800000 	mov	w0, #0x0                   	// #0
   84c90:	14000004 	b	84ca0 <CEcoIPCCMailbox1Factory_QueryInterface+0x4c8>
   84c94:	f9400fa0 	ldr	x0, [x29, #24]
   84c98:	f900001f 	str	xzr, [x0]
   84c9c:	12800000 	mov	w0, #0xffffffff            	// #-1
   84ca0:	a8c37bfd 	ldp	x29, x30, [sp], #48
   84ca4:	d65f03c0 	ret

0000000000084ca8 <CEcoIPCCMailbox1Factory_AddRef>:
   84ca8:	d10083ff 	sub	sp, sp, #0x20
   84cac:	f90007e0 	str	x0, [sp, #8]
   84cb0:	f94007e0 	ldr	x0, [sp, #8]
   84cb4:	f9000fe0 	str	x0, [sp, #24]
   84cb8:	f94007e0 	ldr	x0, [sp, #8]
   84cbc:	f100001f 	cmp	x0, #0x0
   84cc0:	54000061 	b.ne	84ccc <CEcoIPCCMailbox1Factory_AddRef+0x24>  // b.any
   84cc4:	12800000 	mov	w0, #0xffffffff            	// #-1
   84cc8:	14000008 	b	84ce8 <CEcoIPCCMailbox1Factory_AddRef+0x40>
   84ccc:	f9400fe0 	ldr	x0, [sp, #24]
   84cd0:	b9400800 	ldr	w0, [x0, #8]
   84cd4:	11000401 	add	w1, w0, #0x1
   84cd8:	f9400fe0 	ldr	x0, [sp, #24]
   84cdc:	b9000801 	str	w1, [x0, #8]
   84ce0:	f9400fe0 	ldr	x0, [sp, #24]
   84ce4:	b9400800 	ldr	w0, [x0, #8]
   84ce8:	910083ff 	add	sp, sp, #0x20
   84cec:	d65f03c0 	ret

0000000000084cf0 <CEcoIPCCMailbox1Factory_Release>:
   84cf0:	d10083ff 	sub	sp, sp, #0x20
   84cf4:	f90007e0 	str	x0, [sp, #8]
   84cf8:	f94007e0 	ldr	x0, [sp, #8]
   84cfc:	f9000fe0 	str	x0, [sp, #24]
   84d00:	f94007e0 	ldr	x0, [sp, #8]
   84d04:	f100001f 	cmp	x0, #0x0
   84d08:	54000061 	b.ne	84d14 <CEcoIPCCMailbox1Factory_Release+0x24>  // b.any
   84d0c:	12800000 	mov	w0, #0xffffffff            	// #-1
   84d10:	1400000e 	b	84d48 <CEcoIPCCMailbox1Factory_Release+0x58>
   84d14:	f9400fe0 	ldr	x0, [sp, #24]
   84d18:	b9400800 	ldr	w0, [x0, #8]
   84d1c:	51000401 	sub	w1, w0, #0x1
   84d20:	f9400fe0 	ldr	x0, [sp, #24]
   84d24:	b9000801 	str	w1, [x0, #8]
   84d28:	f9400fe0 	ldr	x0, [sp, #24]
   84d2c:	b9400800 	ldr	w0, [x0, #8]
   84d30:	7100001f 	cmp	w0, #0x0
   84d34:	54000061 	b.ne	84d40 <CEcoIPCCMailbox1Factory_Release+0x50>  // b.any
   84d38:	52800000 	mov	w0, #0x0                   	// #0
   84d3c:	14000003 	b	84d48 <CEcoIPCCMailbox1Factory_Release+0x58>
   84d40:	f9400fe0 	ldr	x0, [sp, #24]
   84d44:	b9400800 	ldr	w0, [x0, #8]
   84d48:	910083ff 	add	sp, sp, #0x20
   84d4c:	d65f03c0 	ret

0000000000084d50 <CEcoIPCCMailbox1Factory_Init>:
   84d50:	a9bc7bfd 	stp	x29, x30, [sp, #-64]!
   84d54:	910003fd 	mov	x29, sp
   84d58:	f90017a0 	str	x0, [x29, #40]
   84d5c:	f90013a1 	str	x1, [x29, #32]
   84d60:	f9000fa2 	str	x2, [x29, #24]
   84d64:	f94017a0 	ldr	x0, [x29, #40]
   84d68:	f9001fa0 	str	x0, [x29, #56]
   84d6c:	12800000 	mov	w0, #0xffffffff            	// #-1
   84d70:	79006fa0 	strh	w0, [x29, #54]
   84d74:	f94017a0 	ldr	x0, [x29, #40]
   84d78:	f100001f 	cmp	x0, #0x0
   84d7c:	54000061 	b.ne	84d88 <CEcoIPCCMailbox1Factory_Init+0x38>  // b.any
   84d80:	12800000 	mov	w0, #0xffffffff            	// #-1
   84d84:	14000008 	b	84da4 <CEcoIPCCMailbox1Factory_Init+0x54>
   84d88:	f9401fa0 	ldr	x0, [x29, #56]
   84d8c:	f9400c02 	ldr	x2, [x0, #24]
   84d90:	f94013a1 	ldr	x1, [x29, #32]
   84d94:	f9400fa0 	ldr	x0, [x29, #24]
   84d98:	d63f0040 	blr	x2
   84d9c:	79006fa0 	strh	w0, [x29, #54]
   84da0:	79c06fa0 	ldrsh	w0, [x29, #54]
   84da4:	a8c47bfd 	ldp	x29, x30, [sp], #64
   84da8:	d65f03c0 	ret

0000000000084dac <CEcoIPCCMailbox1Factory_Alloc>:
   84dac:	a9ba7bfd 	stp	x29, x30, [sp, #-96]!
   84db0:	910003fd 	mov	x29, sp
   84db4:	f9001fa0 	str	x0, [x29, #56]
   84db8:	f9001ba1 	str	x1, [x29, #48]
   84dbc:	f90017a2 	str	x2, [x29, #40]
   84dc0:	f90013a3 	str	x3, [x29, #32]
   84dc4:	f9000fa4 	str	x4, [x29, #24]
   84dc8:	f9401fa0 	ldr	x0, [x29, #56]
   84dcc:	f9002fa0 	str	x0, [x29, #88]
   84dd0:	12800000 	mov	w0, #0xffffffff            	// #-1
   84dd4:	7900afa0 	strh	w0, [x29, #86]
   84dd8:	f90027bf 	str	xzr, [x29, #72]
   84ddc:	f9401fa0 	ldr	x0, [x29, #56]
   84de0:	f100001f 	cmp	x0, #0x0
   84de4:	54000061 	b.ne	84df0 <CEcoIPCCMailbox1Factory_Alloc+0x44>  // b.any
   84de8:	12800000 	mov	w0, #0xffffffff            	// #-1
   84dec:	140000b3 	b	850b8 <CEcoIPCCMailbox1Factory_Alloc+0x30c>
   84df0:	f94017a0 	ldr	x0, [x29, #40]
   84df4:	f100001f 	cmp	x0, #0x0
   84df8:	54001240 	b.eq	85040 <CEcoIPCCMailbox1Factory_Alloc+0x294>  // b.none
   84dfc:	f94013a0 	ldr	x0, [x29, #32]
   84e00:	39400001 	ldrb	w1, [x0]
   84e04:	b0000220 	adrp	x0, c9000 <g_xCEcoStackTask1List_C761620F+0x37e20>
   84e08:	91272000 	add	x0, x0, #0x9c8
   84e0c:	39400000 	ldrb	w0, [x0]
   84e10:	6b00003f 	cmp	w1, w0
   84e14:	54001121 	b.ne	85038 <CEcoIPCCMailbox1Factory_Alloc+0x28c>  // b.any
   84e18:	f94013a0 	ldr	x0, [x29, #32]
   84e1c:	91000400 	add	x0, x0, #0x1
   84e20:	39400001 	ldrb	w1, [x0]
   84e24:	b0000220 	adrp	x0, c9000 <g_xCEcoStackTask1List_C761620F+0x37e20>
   84e28:	91272400 	add	x0, x0, #0x9c9
   84e2c:	39400000 	ldrb	w0, [x0]
   84e30:	6b00003f 	cmp	w1, w0
   84e34:	54001021 	b.ne	85038 <CEcoIPCCMailbox1Factory_Alloc+0x28c>  // b.any
   84e38:	f94013a0 	ldr	x0, [x29, #32]
   84e3c:	91000800 	add	x0, x0, #0x2
   84e40:	39400001 	ldrb	w1, [x0]
   84e44:	b0000220 	adrp	x0, c9000 <g_xCEcoStackTask1List_C761620F+0x37e20>
   84e48:	91272800 	add	x0, x0, #0x9ca
   84e4c:	39400000 	ldrb	w0, [x0]
   84e50:	6b00003f 	cmp	w1, w0
   84e54:	54000f21 	b.ne	85038 <CEcoIPCCMailbox1Factory_Alloc+0x28c>  // b.any
   84e58:	f94013a0 	ldr	x0, [x29, #32]
   84e5c:	91000c00 	add	x0, x0, #0x3
   84e60:	39400001 	ldrb	w1, [x0]
   84e64:	b0000220 	adrp	x0, c9000 <g_xCEcoStackTask1List_C761620F+0x37e20>
   84e68:	91272c00 	add	x0, x0, #0x9cb
   84e6c:	39400000 	ldrb	w0, [x0]
   84e70:	6b00003f 	cmp	w1, w0
   84e74:	54000e21 	b.ne	85038 <CEcoIPCCMailbox1Factory_Alloc+0x28c>  // b.any
   84e78:	f94013a0 	ldr	x0, [x29, #32]
   84e7c:	91001000 	add	x0, x0, #0x4
   84e80:	39400001 	ldrb	w1, [x0]
   84e84:	b0000220 	adrp	x0, c9000 <g_xCEcoStackTask1List_C761620F+0x37e20>
   84e88:	91273000 	add	x0, x0, #0x9cc
   84e8c:	39400000 	ldrb	w0, [x0]
   84e90:	6b00003f 	cmp	w1, w0
   84e94:	54000d21 	b.ne	85038 <CEcoIPCCMailbox1Factory_Alloc+0x28c>  // b.any
   84e98:	f94013a0 	ldr	x0, [x29, #32]
   84e9c:	91001400 	add	x0, x0, #0x5
   84ea0:	39400001 	ldrb	w1, [x0]
   84ea4:	b0000220 	adrp	x0, c9000 <g_xCEcoStackTask1List_C761620F+0x37e20>
   84ea8:	91273400 	add	x0, x0, #0x9cd
   84eac:	39400000 	ldrb	w0, [x0]
   84eb0:	6b00003f 	cmp	w1, w0
   84eb4:	54000c21 	b.ne	85038 <CEcoIPCCMailbox1Factory_Alloc+0x28c>  // b.any
   84eb8:	f94013a0 	ldr	x0, [x29, #32]
   84ebc:	91001800 	add	x0, x0, #0x6
   84ec0:	39400001 	ldrb	w1, [x0]
   84ec4:	b0000220 	adrp	x0, c9000 <g_xCEcoStackTask1List_C761620F+0x37e20>
   84ec8:	91273800 	add	x0, x0, #0x9ce
   84ecc:	39400000 	ldrb	w0, [x0]
   84ed0:	6b00003f 	cmp	w1, w0
   84ed4:	54000b21 	b.ne	85038 <CEcoIPCCMailbox1Factory_Alloc+0x28c>  // b.any
   84ed8:	f94013a0 	ldr	x0, [x29, #32]
   84edc:	91001c00 	add	x0, x0, #0x7
   84ee0:	39400001 	ldrb	w1, [x0]
   84ee4:	b0000220 	adrp	x0, c9000 <g_xCEcoStackTask1List_C761620F+0x37e20>
   84ee8:	91273c00 	add	x0, x0, #0x9cf
   84eec:	39400000 	ldrb	w0, [x0]
   84ef0:	6b00003f 	cmp	w1, w0
   84ef4:	54000a21 	b.ne	85038 <CEcoIPCCMailbox1Factory_Alloc+0x28c>  // b.any
   84ef8:	f94013a0 	ldr	x0, [x29, #32]
   84efc:	91002000 	add	x0, x0, #0x8
   84f00:	39400001 	ldrb	w1, [x0]
   84f04:	b0000220 	adrp	x0, c9000 <g_xCEcoStackTask1List_C761620F+0x37e20>
   84f08:	91274000 	add	x0, x0, #0x9d0
   84f0c:	39400000 	ldrb	w0, [x0]
   84f10:	6b00003f 	cmp	w1, w0
   84f14:	54000921 	b.ne	85038 <CEcoIPCCMailbox1Factory_Alloc+0x28c>  // b.any
   84f18:	f94013a0 	ldr	x0, [x29, #32]
   84f1c:	91002400 	add	x0, x0, #0x9
   84f20:	39400001 	ldrb	w1, [x0]
   84f24:	b0000220 	adrp	x0, c9000 <g_xCEcoStackTask1List_C761620F+0x37e20>
   84f28:	91274400 	add	x0, x0, #0x9d1
   84f2c:	39400000 	ldrb	w0, [x0]
   84f30:	6b00003f 	cmp	w1, w0
   84f34:	54000821 	b.ne	85038 <CEcoIPCCMailbox1Factory_Alloc+0x28c>  // b.any
   84f38:	f94013a0 	ldr	x0, [x29, #32]
   84f3c:	91002800 	add	x0, x0, #0xa
   84f40:	39400001 	ldrb	w1, [x0]
   84f44:	b0000220 	adrp	x0, c9000 <g_xCEcoStackTask1List_C761620F+0x37e20>
   84f48:	91274800 	add	x0, x0, #0x9d2
   84f4c:	39400000 	ldrb	w0, [x0]
   84f50:	6b00003f 	cmp	w1, w0
   84f54:	54000721 	b.ne	85038 <CEcoIPCCMailbox1Factory_Alloc+0x28c>  // b.any
   84f58:	f94013a0 	ldr	x0, [x29, #32]
   84f5c:	91002c00 	add	x0, x0, #0xb
   84f60:	39400001 	ldrb	w1, [x0]
   84f64:	b0000220 	adrp	x0, c9000 <g_xCEcoStackTask1List_C761620F+0x37e20>
   84f68:	91274c00 	add	x0, x0, #0x9d3
   84f6c:	39400000 	ldrb	w0, [x0]
   84f70:	6b00003f 	cmp	w1, w0
   84f74:	54000621 	b.ne	85038 <CEcoIPCCMailbox1Factory_Alloc+0x28c>  // b.any
   84f78:	f94013a0 	ldr	x0, [x29, #32]
   84f7c:	91003000 	add	x0, x0, #0xc
   84f80:	39400001 	ldrb	w1, [x0]
   84f84:	b0000220 	adrp	x0, c9000 <g_xCEcoStackTask1List_C761620F+0x37e20>
   84f88:	91275000 	add	x0, x0, #0x9d4
   84f8c:	39400000 	ldrb	w0, [x0]
   84f90:	6b00003f 	cmp	w1, w0
   84f94:	54000521 	b.ne	85038 <CEcoIPCCMailbox1Factory_Alloc+0x28c>  // b.any
   84f98:	f94013a0 	ldr	x0, [x29, #32]
   84f9c:	91003400 	add	x0, x0, #0xd
   84fa0:	39400001 	ldrb	w1, [x0]
   84fa4:	b0000220 	adrp	x0, c9000 <g_xCEcoStackTask1List_C761620F+0x37e20>
   84fa8:	91275400 	add	x0, x0, #0x9d5
   84fac:	39400000 	ldrb	w0, [x0]
   84fb0:	6b00003f 	cmp	w1, w0
   84fb4:	54000421 	b.ne	85038 <CEcoIPCCMailbox1Factory_Alloc+0x28c>  // b.any
   84fb8:	f94013a0 	ldr	x0, [x29, #32]
   84fbc:	91003800 	add	x0, x0, #0xe
   84fc0:	39400001 	ldrb	w1, [x0]
   84fc4:	b0000220 	adrp	x0, c9000 <g_xCEcoStackTask1List_C761620F+0x37e20>
   84fc8:	91275800 	add	x0, x0, #0x9d6
   84fcc:	39400000 	ldrb	w0, [x0]
   84fd0:	6b00003f 	cmp	w1, w0
   84fd4:	54000321 	b.ne	85038 <CEcoIPCCMailbox1Factory_Alloc+0x28c>  // b.any
   84fd8:	f94013a0 	ldr	x0, [x29, #32]
   84fdc:	91003c00 	add	x0, x0, #0xf
   84fe0:	39400001 	ldrb	w1, [x0]
   84fe4:	b0000220 	adrp	x0, c9000 <g_xCEcoStackTask1List_C761620F+0x37e20>
   84fe8:	91275c00 	add	x0, x0, #0x9d7
   84fec:	39400000 	ldrb	w0, [x0]
   84ff0:	6b00003f 	cmp	w1, w0
   84ff4:	54000221 	b.ne	85038 <CEcoIPCCMailbox1Factory_Alloc+0x28c>  // b.any
   84ff8:	f94013a0 	ldr	x0, [x29, #32]
   84ffc:	91004000 	add	x0, x0, #0x10
   85000:	39400001 	ldrb	w1, [x0]
   85004:	90000220 	adrp	x0, c9000 <g_xCEcoStackTask1List_C761620F+0x37e20>
   85008:	91276000 	add	x0, x0, #0x9d8
   8500c:	39400000 	ldrb	w0, [x0]
   85010:	6b00003f 	cmp	w1, w0
   85014:	54000121 	b.ne	85038 <CEcoIPCCMailbox1Factory_Alloc+0x28c>  // b.any
   85018:	f94013a0 	ldr	x0, [x29, #32]
   8501c:	91004400 	add	x0, x0, #0x11
   85020:	39400001 	ldrb	w1, [x0]
   85024:	90000220 	adrp	x0, c9000 <g_xCEcoStackTask1List_C761620F+0x37e20>
   85028:	91276400 	add	x0, x0, #0x9d9
   8502c:	39400000 	ldrb	w0, [x0]
   85030:	6b00003f 	cmp	w1, w0
   85034:	54000060 	b.eq	85040 <CEcoIPCCMailbox1Factory_Alloc+0x294>  // b.none
   85038:	12800000 	mov	w0, #0xffffffff            	// #-1
   8503c:	1400001f 	b	850b8 <CEcoIPCCMailbox1Factory_Alloc+0x30c>
   85040:	f9402fa0 	ldr	x0, [x29, #88]
   85044:	f9400803 	ldr	x3, [x0, #16]
   85048:	910123a0 	add	x0, x29, #0x48
   8504c:	aa0003e2 	mov	x2, x0
   85050:	f94017a1 	ldr	x1, [x29, #40]
   85054:	f9401ba0 	ldr	x0, [x29, #48]
   85058:	d63f0060 	blr	x3
   8505c:	7900afa0 	strh	w0, [x29, #86]
   85060:	79c0afa0 	ldrsh	w0, [x29, #86]
   85064:	7100001f 	cmp	w0, #0x0
   85068:	54000081 	b.ne	85078 <CEcoIPCCMailbox1Factory_Alloc+0x2cc>  // b.any
   8506c:	f94027a0 	ldr	x0, [x29, #72]
   85070:	f100001f 	cmp	x0, #0x0
   85074:	54000061 	b.ne	85080 <CEcoIPCCMailbox1Factory_Alloc+0x2d4>  // b.any
   85078:	12800000 	mov	w0, #0xffffffff            	// #-1
   8507c:	1400000f 	b	850b8 <CEcoIPCCMailbox1Factory_Alloc+0x30c>
   85080:	f94027a0 	ldr	x0, [x29, #72]
   85084:	f9400000 	ldr	x0, [x0]
   85088:	f9400003 	ldr	x3, [x0]
   8508c:	f94027a0 	ldr	x0, [x29, #72]
   85090:	f9400fa2 	ldr	x2, [x29, #24]
   85094:	f94013a1 	ldr	x1, [x29, #32]
   85098:	d63f0060 	blr	x3
   8509c:	7900afa0 	strh	w0, [x29, #86]
   850a0:	f94027a0 	ldr	x0, [x29, #72]
   850a4:	f9400000 	ldr	x0, [x0]
   850a8:	f9400801 	ldr	x1, [x0, #16]
   850ac:	f94027a0 	ldr	x0, [x29, #72]
   850b0:	d63f0020 	blr	x1
   850b4:	79c0afa0 	ldrsh	w0, [x29, #86]
   850b8:	a8c67bfd 	ldp	x29, x30, [sp], #96
   850bc:	d65f03c0 	ret

00000000000850c0 <CEcoIPCCMailbox1Factory_get_Name>:
   850c0:	d10083ff 	sub	sp, sp, #0x20
   850c4:	f90007e0 	str	x0, [sp, #8]
   850c8:	f94007e0 	ldr	x0, [sp, #8]
   850cc:	f9000fe0 	str	x0, [sp, #24]
   850d0:	f94007e0 	ldr	x0, [sp, #8]
   850d4:	f100001f 	cmp	x0, #0x0
   850d8:	54000061 	b.ne	850e4 <CEcoIPCCMailbox1Factory_get_Name+0x24>  // b.any
   850dc:	d2800000 	mov	x0, #0x0                   	// #0
   850e0:	14000003 	b	850ec <CEcoIPCCMailbox1Factory_get_Name+0x2c>
   850e4:	f9400fe0 	ldr	x0, [sp, #24]
   850e8:	91008000 	add	x0, x0, #0x20
   850ec:	910083ff 	add	sp, sp, #0x20
   850f0:	d65f03c0 	ret

00000000000850f4 <CEcoIPCCMailbox1Factory_get_Version>:
   850f4:	d10083ff 	sub	sp, sp, #0x20
   850f8:	f90007e0 	str	x0, [sp, #8]
   850fc:	f94007e0 	ldr	x0, [sp, #8]
   85100:	f9000fe0 	str	x0, [sp, #24]
   85104:	f94007e0 	ldr	x0, [sp, #8]
   85108:	f100001f 	cmp	x0, #0x0
   8510c:	54000061 	b.ne	85118 <CEcoIPCCMailbox1Factory_get_Version+0x24>  // b.any
   85110:	d2800000 	mov	x0, #0x0                   	// #0
   85114:	14000003 	b	85120 <CEcoIPCCMailbox1Factory_get_Version+0x2c>
   85118:	f9400fe0 	ldr	x0, [sp, #24]
   8511c:	91018000 	add	x0, x0, #0x60
   85120:	910083ff 	add	sp, sp, #0x20
   85124:	d65f03c0 	ret

0000000000085128 <CEcoIPCCMailbox1Factory_get_Manufacturer>:
   85128:	d10083ff 	sub	sp, sp, #0x20
   8512c:	f90007e0 	str	x0, [sp, #8]
   85130:	f94007e0 	ldr	x0, [sp, #8]
   85134:	f9000fe0 	str	x0, [sp, #24]
   85138:	f94007e0 	ldr	x0, [sp, #8]
   8513c:	f100001f 	cmp	x0, #0x0
   85140:	54000061 	b.ne	8514c <CEcoIPCCMailbox1Factory_get_Manufacturer+0x24>  // b.any
   85144:	d2800000 	mov	x0, #0x0                   	// #0
   85148:	14000003 	b	85154 <CEcoIPCCMailbox1Factory_get_Manufacturer+0x2c>
   8514c:	f9400fe0 	ldr	x0, [sp, #24]
   85150:	9101c000 	add	x0, x0, #0x70
   85154:	910083ff 	add	sp, sp, #0x20
   85158:	d65f03c0 	ret

000000000008515c <CEcoIPCCMailbox1_QueryInterface>:
   8515c:	a9bc7bfd 	stp	x29, x30, [sp, #-64]!
   85160:	910003fd 	mov	x29, sp
   85164:	f90017a0 	str	x0, [x29, #40]
   85168:	f90013a1 	str	x1, [x29, #32]
   8516c:	f9000fa2 	str	x2, [x29, #24]
   85170:	f94017a0 	ldr	x0, [x29, #40]
   85174:	f9001fa0 	str	x0, [x29, #56]
   85178:	12800000 	mov	w0, #0xffffffff            	// #-1
   8517c:	79006fa0 	strh	w0, [x29, #54]
   85180:	f94017a0 	ldr	x0, [x29, #40]
   85184:	f100001f 	cmp	x0, #0x0
   85188:	54000080 	b.eq	85198 <CEcoIPCCMailbox1_QueryInterface+0x3c>  // b.none
   8518c:	f9400fa0 	ldr	x0, [x29, #24]
   85190:	f100001f 	cmp	x0, #0x0
   85194:	54000061 	b.ne	851a0 <CEcoIPCCMailbox1_QueryInterface+0x44>  // b.any
   85198:	79c06fa0 	ldrsh	w0, [x29, #54]
   8519c:	14000136 	b	85674 <CEcoIPCCMailbox1_QueryInterface+0x518>
   851a0:	f94013a0 	ldr	x0, [x29, #32]
   851a4:	39400001 	ldrb	w1, [x0]
   851a8:	90000220 	adrp	x0, c9000 <g_xCEcoStackTask1List_C761620F+0x37e20>
   851ac:	912ae000 	add	x0, x0, #0xab8
   851b0:	39400000 	ldrb	w0, [x0]
   851b4:	6b00003f 	cmp	w1, w0
   851b8:	54001241 	b.ne	85400 <CEcoIPCCMailbox1_QueryInterface+0x2a4>  // b.any
   851bc:	f94013a0 	ldr	x0, [x29, #32]
   851c0:	91000400 	add	x0, x0, #0x1
   851c4:	39400001 	ldrb	w1, [x0]
   851c8:	90000220 	adrp	x0, c9000 <g_xCEcoStackTask1List_C761620F+0x37e20>
   851cc:	912ae400 	add	x0, x0, #0xab9
   851d0:	39400000 	ldrb	w0, [x0]
   851d4:	6b00003f 	cmp	w1, w0
   851d8:	54001141 	b.ne	85400 <CEcoIPCCMailbox1_QueryInterface+0x2a4>  // b.any
   851dc:	f94013a0 	ldr	x0, [x29, #32]
   851e0:	91000800 	add	x0, x0, #0x2
   851e4:	39400001 	ldrb	w1, [x0]
   851e8:	90000220 	adrp	x0, c9000 <g_xCEcoStackTask1List_C761620F+0x37e20>
   851ec:	912ae800 	add	x0, x0, #0xaba
   851f0:	39400000 	ldrb	w0, [x0]
   851f4:	6b00003f 	cmp	w1, w0
   851f8:	54001041 	b.ne	85400 <CEcoIPCCMailbox1_QueryInterface+0x2a4>  // b.any
   851fc:	f94013a0 	ldr	x0, [x29, #32]
   85200:	91000c00 	add	x0, x0, #0x3
   85204:	39400001 	ldrb	w1, [x0]
   85208:	90000220 	adrp	x0, c9000 <g_xCEcoStackTask1List_C761620F+0x37e20>
   8520c:	912aec00 	add	x0, x0, #0xabb
   85210:	39400000 	ldrb	w0, [x0]
   85214:	6b00003f 	cmp	w1, w0
   85218:	54000f41 	b.ne	85400 <CEcoIPCCMailbox1_QueryInterface+0x2a4>  // b.any
   8521c:	f94013a0 	ldr	x0, [x29, #32]
   85220:	91001000 	add	x0, x0, #0x4
   85224:	39400001 	ldrb	w1, [x0]
   85228:	90000220 	adrp	x0, c9000 <g_xCEcoStackTask1List_C761620F+0x37e20>
   8522c:	912af000 	add	x0, x0, #0xabc
   85230:	39400000 	ldrb	w0, [x0]
   85234:	6b00003f 	cmp	w1, w0
   85238:	54000e41 	b.ne	85400 <CEcoIPCCMailbox1_QueryInterface+0x2a4>  // b.any
   8523c:	f94013a0 	ldr	x0, [x29, #32]
   85240:	91001400 	add	x0, x0, #0x5
   85244:	39400001 	ldrb	w1, [x0]
   85248:	90000220 	adrp	x0, c9000 <g_xCEcoStackTask1List_C761620F+0x37e20>
   8524c:	912af400 	add	x0, x0, #0xabd
   85250:	39400000 	ldrb	w0, [x0]
   85254:	6b00003f 	cmp	w1, w0
   85258:	54000d41 	b.ne	85400 <CEcoIPCCMailbox1_QueryInterface+0x2a4>  // b.any
   8525c:	f94013a0 	ldr	x0, [x29, #32]
   85260:	91001800 	add	x0, x0, #0x6
   85264:	39400001 	ldrb	w1, [x0]
   85268:	90000220 	adrp	x0, c9000 <g_xCEcoStackTask1List_C761620F+0x37e20>
   8526c:	912af800 	add	x0, x0, #0xabe
   85270:	39400000 	ldrb	w0, [x0]
   85274:	6b00003f 	cmp	w1, w0
   85278:	54000c41 	b.ne	85400 <CEcoIPCCMailbox1_QueryInterface+0x2a4>  // b.any
   8527c:	f94013a0 	ldr	x0, [x29, #32]
   85280:	91001c00 	add	x0, x0, #0x7
   85284:	39400001 	ldrb	w1, [x0]
   85288:	90000220 	adrp	x0, c9000 <g_xCEcoStackTask1List_C761620F+0x37e20>
   8528c:	912afc00 	add	x0, x0, #0xabf
   85290:	39400000 	ldrb	w0, [x0]
   85294:	6b00003f 	cmp	w1, w0
   85298:	54000b41 	b.ne	85400 <CEcoIPCCMailbox1_QueryInterface+0x2a4>  // b.any
   8529c:	f94013a0 	ldr	x0, [x29, #32]
   852a0:	91002000 	add	x0, x0, #0x8
   852a4:	39400001 	ldrb	w1, [x0]
   852a8:	90000220 	adrp	x0, c9000 <g_xCEcoStackTask1List_C761620F+0x37e20>
   852ac:	912b0000 	add	x0, x0, #0xac0
   852b0:	39400000 	ldrb	w0, [x0]
   852b4:	6b00003f 	cmp	w1, w0
   852b8:	54000a41 	b.ne	85400 <CEcoIPCCMailbox1_QueryInterface+0x2a4>  // b.any
   852bc:	f94013a0 	ldr	x0, [x29, #32]
   852c0:	91002400 	add	x0, x0, #0x9
   852c4:	39400001 	ldrb	w1, [x0]
   852c8:	90000220 	adrp	x0, c9000 <g_xCEcoStackTask1List_C761620F+0x37e20>
   852cc:	912b0400 	add	x0, x0, #0xac1
   852d0:	39400000 	ldrb	w0, [x0]
   852d4:	6b00003f 	cmp	w1, w0
   852d8:	54000941 	b.ne	85400 <CEcoIPCCMailbox1_QueryInterface+0x2a4>  // b.any
   852dc:	f94013a0 	ldr	x0, [x29, #32]
   852e0:	91002800 	add	x0, x0, #0xa
   852e4:	39400001 	ldrb	w1, [x0]
   852e8:	90000220 	adrp	x0, c9000 <g_xCEcoStackTask1List_C761620F+0x37e20>
   852ec:	912b0800 	add	x0, x0, #0xac2
   852f0:	39400000 	ldrb	w0, [x0]
   852f4:	6b00003f 	cmp	w1, w0
   852f8:	54000841 	b.ne	85400 <CEcoIPCCMailbox1_QueryInterface+0x2a4>  // b.any
   852fc:	f94013a0 	ldr	x0, [x29, #32]
   85300:	91002c00 	add	x0, x0, #0xb
   85304:	39400001 	ldrb	w1, [x0]
   85308:	90000220 	adrp	x0, c9000 <g_xCEcoStackTask1List_C761620F+0x37e20>
   8530c:	912b0c00 	add	x0, x0, #0xac3
   85310:	39400000 	ldrb	w0, [x0]
   85314:	6b00003f 	cmp	w1, w0
   85318:	54000741 	b.ne	85400 <CEcoIPCCMailbox1_QueryInterface+0x2a4>  // b.any
   8531c:	f94013a0 	ldr	x0, [x29, #32]
   85320:	91003000 	add	x0, x0, #0xc
   85324:	39400001 	ldrb	w1, [x0]
   85328:	90000220 	adrp	x0, c9000 <g_xCEcoStackTask1List_C761620F+0x37e20>
   8532c:	912b1000 	add	x0, x0, #0xac4
   85330:	39400000 	ldrb	w0, [x0]
   85334:	6b00003f 	cmp	w1, w0
   85338:	54000641 	b.ne	85400 <CEcoIPCCMailbox1_QueryInterface+0x2a4>  // b.any
   8533c:	f94013a0 	ldr	x0, [x29, #32]
   85340:	91003400 	add	x0, x0, #0xd
   85344:	39400001 	ldrb	w1, [x0]
   85348:	90000220 	adrp	x0, c9000 <g_xCEcoStackTask1List_C761620F+0x37e20>
   8534c:	912b1400 	add	x0, x0, #0xac5
   85350:	39400000 	ldrb	w0, [x0]
   85354:	6b00003f 	cmp	w1, w0
   85358:	54000541 	b.ne	85400 <CEcoIPCCMailbox1_QueryInterface+0x2a4>  // b.any
   8535c:	f94013a0 	ldr	x0, [x29, #32]
   85360:	91003800 	add	x0, x0, #0xe
   85364:	39400001 	ldrb	w1, [x0]
   85368:	90000220 	adrp	x0, c9000 <g_xCEcoStackTask1List_C761620F+0x37e20>
   8536c:	912b1800 	add	x0, x0, #0xac6
   85370:	39400000 	ldrb	w0, [x0]
   85374:	6b00003f 	cmp	w1, w0
   85378:	54000441 	b.ne	85400 <CEcoIPCCMailbox1_QueryInterface+0x2a4>  // b.any
   8537c:	f94013a0 	ldr	x0, [x29, #32]
   85380:	91003c00 	add	x0, x0, #0xf
   85384:	39400001 	ldrb	w1, [x0]
   85388:	90000220 	adrp	x0, c9000 <g_xCEcoStackTask1List_C761620F+0x37e20>
   8538c:	912b1c00 	add	x0, x0, #0xac7
   85390:	39400000 	ldrb	w0, [x0]
   85394:	6b00003f 	cmp	w1, w0
   85398:	54000341 	b.ne	85400 <CEcoIPCCMailbox1_QueryInterface+0x2a4>  // b.any
   8539c:	f94013a0 	ldr	x0, [x29, #32]
   853a0:	91004000 	add	x0, x0, #0x10
   853a4:	39400001 	ldrb	w1, [x0]
   853a8:	90000220 	adrp	x0, c9000 <g_xCEcoStackTask1List_C761620F+0x37e20>
   853ac:	912b2000 	add	x0, x0, #0xac8
   853b0:	39400000 	ldrb	w0, [x0]
   853b4:	6b00003f 	cmp	w1, w0
   853b8:	54000241 	b.ne	85400 <CEcoIPCCMailbox1_QueryInterface+0x2a4>  // b.any
   853bc:	f94013a0 	ldr	x0, [x29, #32]
   853c0:	91004400 	add	x0, x0, #0x11
   853c4:	39400001 	ldrb	w1, [x0]
   853c8:	90000220 	adrp	x0, c9000 <g_xCEcoStackTask1List_C761620F+0x37e20>
   853cc:	912b2400 	add	x0, x0, #0xac9
   853d0:	39400000 	ldrb	w0, [x0]
   853d4:	6b00003f 	cmp	w1, w0
   853d8:	54000141 	b.ne	85400 <CEcoIPCCMailbox1_QueryInterface+0x2a4>  // b.any
   853dc:	f9401fa1 	ldr	x1, [x29, #56]
   853e0:	f9400fa0 	ldr	x0, [x29, #24]
   853e4:	f9000001 	str	x1, [x0]
   853e8:	f9401fa0 	ldr	x0, [x29, #56]
   853ec:	f9400000 	ldr	x0, [x0]
   853f0:	f9400401 	ldr	x1, [x0, #8]
   853f4:	f9401fa0 	ldr	x0, [x29, #56]
   853f8:	d63f0020 	blr	x1
   853fc:	1400009d 	b	85670 <CEcoIPCCMailbox1_QueryInterface+0x514>
   85400:	f94013a0 	ldr	x0, [x29, #32]
   85404:	39400001 	ldrb	w1, [x0]
   85408:	90000220 	adrp	x0, c9000 <g_xCEcoStackTask1List_C761620F+0x37e20>
   8540c:	91296000 	add	x0, x0, #0xa58
   85410:	39400000 	ldrb	w0, [x0]
   85414:	6b00003f 	cmp	w1, w0
   85418:	54001241 	b.ne	85660 <CEcoIPCCMailbox1_QueryInterface+0x504>  // b.any
   8541c:	f94013a0 	ldr	x0, [x29, #32]
   85420:	91000400 	add	x0, x0, #0x1
   85424:	39400001 	ldrb	w1, [x0]
   85428:	90000220 	adrp	x0, c9000 <g_xCEcoStackTask1List_C761620F+0x37e20>
   8542c:	91296400 	add	x0, x0, #0xa59
   85430:	39400000 	ldrb	w0, [x0]
   85434:	6b00003f 	cmp	w1, w0
   85438:	54001141 	b.ne	85660 <CEcoIPCCMailbox1_QueryInterface+0x504>  // b.any
   8543c:	f94013a0 	ldr	x0, [x29, #32]
   85440:	91000800 	add	x0, x0, #0x2
   85444:	39400001 	ldrb	w1, [x0]
   85448:	90000220 	adrp	x0, c9000 <g_xCEcoStackTask1List_C761620F+0x37e20>
   8544c:	91296800 	add	x0, x0, #0xa5a
   85450:	39400000 	ldrb	w0, [x0]
   85454:	6b00003f 	cmp	w1, w0
   85458:	54001041 	b.ne	85660 <CEcoIPCCMailbox1_QueryInterface+0x504>  // b.any
   8545c:	f94013a0 	ldr	x0, [x29, #32]
   85460:	91000c00 	add	x0, x0, #0x3
   85464:	39400001 	ldrb	w1, [x0]
   85468:	90000220 	adrp	x0, c9000 <g_xCEcoStackTask1List_C761620F+0x37e20>
   8546c:	91296c00 	add	x0, x0, #0xa5b
   85470:	39400000 	ldrb	w0, [x0]
   85474:	6b00003f 	cmp	w1, w0
   85478:	54000f41 	b.ne	85660 <CEcoIPCCMailbox1_QueryInterface+0x504>  // b.any
   8547c:	f94013a0 	ldr	x0, [x29, #32]
   85480:	91001000 	add	x0, x0, #0x4
   85484:	39400001 	ldrb	w1, [x0]
   85488:	90000220 	adrp	x0, c9000 <g_xCEcoStackTask1List_C761620F+0x37e20>
   8548c:	91297000 	add	x0, x0, #0xa5c
   85490:	39400000 	ldrb	w0, [x0]
   85494:	6b00003f 	cmp	w1, w0
   85498:	54000e41 	b.ne	85660 <CEcoIPCCMailbox1_QueryInterface+0x504>  // b.any
   8549c:	f94013a0 	ldr	x0, [x29, #32]
   854a0:	91001400 	add	x0, x0, #0x5
   854a4:	39400001 	ldrb	w1, [x0]
   854a8:	90000220 	adrp	x0, c9000 <g_xCEcoStackTask1List_C761620F+0x37e20>
   854ac:	91297400 	add	x0, x0, #0xa5d
   854b0:	39400000 	ldrb	w0, [x0]
   854b4:	6b00003f 	cmp	w1, w0
   854b8:	54000d41 	b.ne	85660 <CEcoIPCCMailbox1_QueryInterface+0x504>  // b.any
   854bc:	f94013a0 	ldr	x0, [x29, #32]
   854c0:	91001800 	add	x0, x0, #0x6
   854c4:	39400001 	ldrb	w1, [x0]
   854c8:	90000220 	adrp	x0, c9000 <g_xCEcoStackTask1List_C761620F+0x37e20>
   854cc:	91297800 	add	x0, x0, #0xa5e
   854d0:	39400000 	ldrb	w0, [x0]
   854d4:	6b00003f 	cmp	w1, w0
   854d8:	54000c41 	b.ne	85660 <CEcoIPCCMailbox1_QueryInterface+0x504>  // b.any
   854dc:	f94013a0 	ldr	x0, [x29, #32]
   854e0:	91001c00 	add	x0, x0, #0x7
   854e4:	39400001 	ldrb	w1, [x0]
   854e8:	90000220 	adrp	x0, c9000 <g_xCEcoStackTask1List_C761620F+0x37e20>
   854ec:	91297c00 	add	x0, x0, #0xa5f
   854f0:	39400000 	ldrb	w0, [x0]
   854f4:	6b00003f 	cmp	w1, w0
   854f8:	54000b41 	b.ne	85660 <CEcoIPCCMailbox1_QueryInterface+0x504>  // b.any
   854fc:	f94013a0 	ldr	x0, [x29, #32]
   85500:	91002000 	add	x0, x0, #0x8
   85504:	39400001 	ldrb	w1, [x0]
   85508:	90000220 	adrp	x0, c9000 <g_xCEcoStackTask1List_C761620F+0x37e20>
   8550c:	91298000 	add	x0, x0, #0xa60
   85510:	39400000 	ldrb	w0, [x0]
   85514:	6b00003f 	cmp	w1, w0
   85518:	54000a41 	b.ne	85660 <CEcoIPCCMailbox1_QueryInterface+0x504>  // b.any
   8551c:	f94013a0 	ldr	x0, [x29, #32]
   85520:	91002400 	add	x0, x0, #0x9
   85524:	39400001 	ldrb	w1, [x0]
   85528:	90000220 	adrp	x0, c9000 <g_xCEcoStackTask1List_C761620F+0x37e20>
   8552c:	91298400 	add	x0, x0, #0xa61
   85530:	39400000 	ldrb	w0, [x0]
   85534:	6b00003f 	cmp	w1, w0
   85538:	54000941 	b.ne	85660 <CEcoIPCCMailbox1_QueryInterface+0x504>  // b.any
   8553c:	f94013a0 	ldr	x0, [x29, #32]
   85540:	91002800 	add	x0, x0, #0xa
   85544:	39400001 	ldrb	w1, [x0]
   85548:	90000220 	adrp	x0, c9000 <g_xCEcoStackTask1List_C761620F+0x37e20>
   8554c:	91298800 	add	x0, x0, #0xa62
   85550:	39400000 	ldrb	w0, [x0]
   85554:	6b00003f 	cmp	w1, w0
   85558:	54000841 	b.ne	85660 <CEcoIPCCMailbox1_QueryInterface+0x504>  // b.any
   8555c:	f94013a0 	ldr	x0, [x29, #32]
   85560:	91002c00 	add	x0, x0, #0xb
   85564:	39400001 	ldrb	w1, [x0]
   85568:	90000220 	adrp	x0, c9000 <g_xCEcoStackTask1List_C761620F+0x37e20>
   8556c:	91298c00 	add	x0, x0, #0xa63
   85570:	39400000 	ldrb	w0, [x0]
   85574:	6b00003f 	cmp	w1, w0
   85578:	54000741 	b.ne	85660 <CEcoIPCCMailbox1_QueryInterface+0x504>  // b.any
   8557c:	f94013a0 	ldr	x0, [x29, #32]
   85580:	91003000 	add	x0, x0, #0xc
   85584:	39400001 	ldrb	w1, [x0]
   85588:	90000220 	adrp	x0, c9000 <g_xCEcoStackTask1List_C761620F+0x37e20>
   8558c:	91299000 	add	x0, x0, #0xa64
   85590:	39400000 	ldrb	w0, [x0]
   85594:	6b00003f 	cmp	w1, w0
   85598:	54000641 	b.ne	85660 <CEcoIPCCMailbox1_QueryInterface+0x504>  // b.any
   8559c:	f94013a0 	ldr	x0, [x29, #32]
   855a0:	91003400 	add	x0, x0, #0xd
   855a4:	39400001 	ldrb	w1, [x0]
   855a8:	90000220 	adrp	x0, c9000 <g_xCEcoStackTask1List_C761620F+0x37e20>
   855ac:	91299400 	add	x0, x0, #0xa65
   855b0:	39400000 	ldrb	w0, [x0]
   855b4:	6b00003f 	cmp	w1, w0
   855b8:	54000541 	b.ne	85660 <CEcoIPCCMailbox1_QueryInterface+0x504>  // b.any
   855bc:	f94013a0 	ldr	x0, [x29, #32]
   855c0:	91003800 	add	x0, x0, #0xe
   855c4:	39400001 	ldrb	w1, [x0]
   855c8:	90000220 	adrp	x0, c9000 <g_xCEcoStackTask1List_C761620F+0x37e20>
   855cc:	91299800 	add	x0, x0, #0xa66
   855d0:	39400000 	ldrb	w0, [x0]
   855d4:	6b00003f 	cmp	w1, w0
   855d8:	54000441 	b.ne	85660 <CEcoIPCCMailbox1_QueryInterface+0x504>  // b.any
   855dc:	f94013a0 	ldr	x0, [x29, #32]
   855e0:	91003c00 	add	x0, x0, #0xf
   855e4:	39400001 	ldrb	w1, [x0]
   855e8:	90000220 	adrp	x0, c9000 <g_xCEcoStackTask1List_C761620F+0x37e20>
   855ec:	91299c00 	add	x0, x0, #0xa67
   855f0:	39400000 	ldrb	w0, [x0]
   855f4:	6b00003f 	cmp	w1, w0
   855f8:	54000341 	b.ne	85660 <CEcoIPCCMailbox1_QueryInterface+0x504>  // b.any
   855fc:	f94013a0 	ldr	x0, [x29, #32]
   85600:	91004000 	add	x0, x0, #0x10
   85604:	39400001 	ldrb	w1, [x0]
   85608:	90000220 	adrp	x0, c9000 <g_xCEcoStackTask1List_C761620F+0x37e20>
   8560c:	9129a000 	add	x0, x0, #0xa68
   85610:	39400000 	ldrb	w0, [x0]
   85614:	6b00003f 	cmp	w1, w0
   85618:	54000241 	b.ne	85660 <CEcoIPCCMailbox1_QueryInterface+0x504>  // b.any
   8561c:	f94013a0 	ldr	x0, [x29, #32]
   85620:	91004400 	add	x0, x0, #0x11
   85624:	39400001 	ldrb	w1, [x0]
   85628:	90000220 	adrp	x0, c9000 <g_xCEcoStackTask1List_C761620F+0x37e20>
   8562c:	9129a400 	add	x0, x0, #0xa69
   85630:	39400000 	ldrb	w0, [x0]
   85634:	6b00003f 	cmp	w1, w0
   85638:	54000141 	b.ne	85660 <CEcoIPCCMailbox1_QueryInterface+0x504>  // b.any
   8563c:	f9401fa1 	ldr	x1, [x29, #56]
   85640:	f9400fa0 	ldr	x0, [x29, #24]
   85644:	f9000001 	str	x1, [x0]
   85648:	f9401fa0 	ldr	x0, [x29, #56]
   8564c:	f9400000 	ldr	x0, [x0]
   85650:	f9400401 	ldr	x1, [x0, #8]
   85654:	f9401fa0 	ldr	x0, [x29, #56]
   85658:	d63f0020 	blr	x1
   8565c:	14000005 	b	85670 <CEcoIPCCMailbox1_QueryInterface+0x514>
   85660:	f9400fa0 	ldr	x0, [x29, #24]
   85664:	f900001f 	str	xzr, [x0]
   85668:	12800000 	mov	w0, #0xffffffff            	// #-1
   8566c:	14000002 	b	85674 <CEcoIPCCMailbox1_QueryInterface+0x518>
   85670:	52800000 	mov	w0, #0x0                   	// #0
   85674:	a8c47bfd 	ldp	x29, x30, [sp], #64
   85678:	d65f03c0 	ret

000000000008567c <CEcoIPCCMailbox1_AddRef>:
   8567c:	d10083ff 	sub	sp, sp, #0x20
   85680:	f90007e0 	str	x0, [sp, #8]
   85684:	f94007e0 	ldr	x0, [sp, #8]
   85688:	f9000fe0 	str	x0, [sp, #24]
   8568c:	f94007e0 	ldr	x0, [sp, #8]
   85690:	f100001f 	cmp	x0, #0x0
   85694:	54000061 	b.ne	856a0 <CEcoIPCCMailbox1_AddRef+0x24>  // b.any
   85698:	12800000 	mov	w0, #0xffffffff            	// #-1
   8569c:	14000008 	b	856bc <CEcoIPCCMailbox1_AddRef+0x40>
   856a0:	f9400fe0 	ldr	x0, [sp, #24]
   856a4:	b9400800 	ldr	w0, [x0, #8]
   856a8:	11000401 	add	w1, w0, #0x1
   856ac:	f9400fe0 	ldr	x0, [sp, #24]
   856b0:	b9000801 	str	w1, [x0, #8]
   856b4:	f9400fe0 	ldr	x0, [sp, #24]
   856b8:	b9400800 	ldr	w0, [x0, #8]
   856bc:	910083ff 	add	sp, sp, #0x20
   856c0:	d65f03c0 	ret

00000000000856c4 <CEcoIPCCMailbox1_Release>:
   856c4:	a9bd7bfd 	stp	x29, x30, [sp, #-48]!
   856c8:	910003fd 	mov	x29, sp
   856cc:	f9000fa0 	str	x0, [x29, #24]
   856d0:	f9400fa0 	ldr	x0, [x29, #24]
   856d4:	f90017a0 	str	x0, [x29, #40]
   856d8:	f9400fa0 	ldr	x0, [x29, #24]
   856dc:	f100001f 	cmp	x0, #0x0
   856e0:	54000061 	b.ne	856ec <CEcoIPCCMailbox1_Release+0x28>  // b.any
   856e4:	12800000 	mov	w0, #0xffffffff            	// #-1
   856e8:	14000010 	b	85728 <CEcoIPCCMailbox1_Release+0x64>
   856ec:	f94017a0 	ldr	x0, [x29, #40]
   856f0:	b9400800 	ldr	w0, [x0, #8]
   856f4:	51000401 	sub	w1, w0, #0x1
   856f8:	f94017a0 	ldr	x0, [x29, #40]
   856fc:	b9000801 	str	w1, [x0, #8]
   85700:	f94017a0 	ldr	x0, [x29, #40]
   85704:	b9400800 	ldr	w0, [x0, #8]
   85708:	7100001f 	cmp	w0, #0x0
   8570c:	540000a1 	b.ne	85720 <CEcoIPCCMailbox1_Release+0x5c>  // b.any
   85710:	f94017a0 	ldr	x0, [x29, #40]
   85714:	94000126 	bl	85bac <deleteCEcoIPCCMailbox1>
   85718:	52800000 	mov	w0, #0x0                   	// #0
   8571c:	14000003 	b	85728 <CEcoIPCCMailbox1_Release+0x64>
   85720:	f94017a0 	ldr	x0, [x29, #40]
   85724:	b9400800 	ldr	w0, [x0, #8]
   85728:	a8c37bfd 	ldp	x29, x30, [sp], #48
   8572c:	d65f03c0 	ret

0000000000085730 <CEcoIPCCMailbox1_get_MappedAddress>:
   85730:	d10083ff 	sub	sp, sp, #0x20
   85734:	f90007e0 	str	x0, [sp, #8]
   85738:	f94007e0 	ldr	x0, [sp, #8]
   8573c:	f9000fe0 	str	x0, [sp, #24]
   85740:	f9000bff 	str	xzr, [sp, #16]
   85744:	f94007e0 	ldr	x0, [sp, #8]
   85748:	f100001f 	cmp	x0, #0x0
   8574c:	54000061 	b.ne	85758 <CEcoIPCCMailbox1_get_MappedAddress+0x28>  // b.any
   85750:	f9400be0 	ldr	x0, [sp, #16]
   85754:	14000003 	b	85760 <CEcoIPCCMailbox1_get_MappedAddress+0x30>
   85758:	f9400fe0 	ldr	x0, [sp, #24]
   8575c:	f9401000 	ldr	x0, [x0, #32]
   85760:	910083ff 	add	sp, sp, #0x20
   85764:	d65f03c0 	ret

0000000000085768 <CEcoIPCCMailbox1_set_MappedAddress>:
   85768:	d10083ff 	sub	sp, sp, #0x20
   8576c:	f90007e0 	str	x0, [sp, #8]
   85770:	f90003e1 	str	x1, [sp]
   85774:	f94007e0 	ldr	x0, [sp, #8]
   85778:	f9000fe0 	str	x0, [sp, #24]
   8577c:	f94007e0 	ldr	x0, [sp, #8]
   85780:	f100001f 	cmp	x0, #0x0
   85784:	540000a0 	b.eq	85798 <CEcoIPCCMailbox1_set_MappedAddress+0x30>  // b.none
   85788:	f9400fe0 	ldr	x0, [sp, #24]
   8578c:	f94003e1 	ldr	x1, [sp]
   85790:	f9001001 	str	x1, [x0, #32]
   85794:	14000002 	b	8579c <CEcoIPCCMailbox1_set_MappedAddress+0x34>
   85798:	d503201f 	nop
   8579c:	910083ff 	add	sp, sp, #0x20
   857a0:	d65f03c0 	ret

00000000000857a4 <CEcoIPCCMailbox1_Read>:
   857a4:	d10083ff 	sub	sp, sp, #0x20
   857a8:	f90007e0 	str	x0, [sp, #8]
   857ac:	39001fe1 	strb	w1, [sp, #7]
   857b0:	f9000fff 	str	xzr, [sp, #24]
   857b4:	b90017ff 	str	wzr, [sp, #20]
   857b8:	f94007e0 	ldr	x0, [sp, #8]
   857bc:	f100001f 	cmp	x0, #0x0
   857c0:	54000061 	b.ne	857cc <CEcoIPCCMailbox1_Read+0x28>  // b.any
   857c4:	52800000 	mov	w0, #0x0                   	// #0
   857c8:	14000018 	b	85828 <CEcoIPCCMailbox1_Read+0x84>
   857cc:	f94007e0 	ldr	x0, [sp, #8]
   857d0:	f9000fe0 	str	x0, [sp, #24]
   857d4:	f9400fe0 	ldr	x0, [sp, #24]
   857d8:	f9401000 	ldr	x0, [x0, #32]
   857dc:	b9401800 	ldr	w0, [x0, #24]
   857e0:	b90017e0 	str	w0, [sp, #20]
   857e4:	b94017e0 	ldr	w0, [sp, #20]
   857e8:	12020000 	and	w0, w0, #0x40000000
   857ec:	7100001f 	cmp	w0, #0x0
   857f0:	54ffff21 	b.ne	857d4 <CEcoIPCCMailbox1_Read+0x30>  // b.any
   857f4:	f9400fe0 	ldr	x0, [sp, #24]
   857f8:	f9401000 	ldr	x0, [x0, #32]
   857fc:	b9400000 	ldr	w0, [x0]
   85800:	b90017e0 	str	w0, [sp, #20]
   85804:	b94017e0 	ldr	w0, [sp, #20]
   85808:	12000c01 	and	w1, w0, #0xf
   8580c:	39401fe0 	ldrb	w0, [sp, #7]
   85810:	6b00003f 	cmp	w1, w0
   85814:	54fffe01 	b.ne	857d4 <CEcoIPCCMailbox1_Read+0x30>  // b.any
   85818:	b94017e0 	ldr	w0, [sp, #20]
   8581c:	121c6c00 	and	w0, w0, #0xfffffff0
   85820:	b90017e0 	str	w0, [sp, #20]
   85824:	b94017e0 	ldr	w0, [sp, #20]
   85828:	910083ff 	add	sp, sp, #0x20
   8582c:	d65f03c0 	ret

0000000000085830 <CEcoIPCCMailbox1_Write>:
   85830:	d10083ff 	sub	sp, sp, #0x20
   85834:	f90007e0 	str	x0, [sp, #8]
   85838:	39001fe1 	strb	w1, [sp, #7]
   8583c:	b90003e2 	str	w2, [sp]
   85840:	f94007e0 	ldr	x0, [sp, #8]
   85844:	f9000fe0 	str	x0, [sp, #24]
   85848:	b90017ff 	str	wzr, [sp, #20]
   8584c:	f94007e0 	ldr	x0, [sp, #8]
   85850:	f100001f 	cmp	x0, #0x0
   85854:	540002c0 	b.eq	858ac <CEcoIPCCMailbox1_Write+0x7c>  // b.none
   85858:	b94003e0 	ldr	w0, [sp]
   8585c:	121c6c00 	and	w0, w0, #0xfffffff0
   85860:	b90003e0 	str	w0, [sp]
   85864:	39401fe0 	ldrb	w0, [sp, #7]
   85868:	b94003e1 	ldr	w1, [sp]
   8586c:	2a000020 	orr	w0, w1, w0
   85870:	b90003e0 	str	w0, [sp]
   85874:	f9400fe0 	ldr	x0, [sp, #24]
   85878:	f9401000 	ldr	x0, [x0, #32]
   8587c:	b9403800 	ldr	w0, [x0, #56]
   85880:	b90017e0 	str	w0, [sp, #20]
   85884:	b94017e0 	ldr	w0, [sp, #20]
   85888:	7100001f 	cmp	w0, #0x0
   8588c:	54ffff4b 	b.lt	85874 <CEcoIPCCMailbox1_Write+0x44>  // b.tstop
   85890:	f9400fe0 	ldr	x0, [sp, #24]
   85894:	f9401000 	ldr	x0, [x0, #32]
   85898:	aa0003e1 	mov	x1, x0
   8589c:	b94003e0 	ldr	w0, [sp]
   858a0:	b9002020 	str	w0, [x1, #32]
   858a4:	d503201f 	nop
   858a8:	14000002 	b	858b0 <CEcoIPCCMailbox1_Write+0x80>
   858ac:	d503201f 	nop
   858b0:	910083ff 	add	sp, sp, #0x20
   858b4:	d65f03c0 	ret

00000000000858b8 <CEcoIPCCMailbox1_ProcessingByArgs>:
   858b8:	a9a87bfd 	stp	x29, x30, [sp, #-384]!
   858bc:	910003fd 	mov	x29, sp
   858c0:	f90017a0 	str	x0, [x29, #40]
   858c4:	39009fa1 	strb	w1, [x29, #39]
   858c8:	f9000fa2 	str	x2, [x29, #24]
   858cc:	b90023a3 	str	w3, [x29, #32]
   858d0:	f900b3a4 	str	x4, [x29, #352]
   858d4:	f900b7a5 	str	x5, [x29, #360]
   858d8:	f900bba6 	str	x6, [x29, #368]
   858dc:	f900bfa7 	str	x7, [x29, #376]
   858e0:	3d803ba0 	str	q0, [x29, #224]
   858e4:	3d803fa1 	str	q1, [x29, #240]
   858e8:	3d8043a2 	str	q2, [x29, #256]
   858ec:	3d8047a3 	str	q3, [x29, #272]
   858f0:	3d804ba4 	str	q4, [x29, #288]
   858f4:	3d804fa5 	str	q5, [x29, #304]
   858f8:	3d8053a6 	str	q6, [x29, #320]
   858fc:	3d8057a7 	str	q7, [x29, #336]
   85900:	12800000 	mov	w0, #0xffffffff            	// #-1
   85904:	b900dfa0 	str	w0, [x29, #220]
   85908:	b900dbbf 	str	wzr, [x29, #216]
   8590c:	a9057fbf 	stp	xzr, xzr, [x29, #80]
   85910:	a9067fbf 	stp	xzr, xzr, [x29, #96]
   85914:	a9077fbf 	stp	xzr, xzr, [x29, #112]
   85918:	a9087fbf 	stp	xzr, xzr, [x29, #128]
   8591c:	a9097fbf 	stp	xzr, xzr, [x29, #144]
   85920:	a90a7fbf 	stp	xzr, xzr, [x29, #160]
   85924:	a90b7fbf 	stp	xzr, xzr, [x29, #176]
   85928:	a90c7fbf 	stp	xzr, xzr, [x29, #192]
   8592c:	f94017a0 	ldr	x0, [x29, #40]
   85930:	f100001f 	cmp	x0, #0x0
   85934:	54000081 	b.ne	85944 <CEcoIPCCMailbox1_ProcessingByArgs+0x8c>  // b.any
   85938:	b940dfa0 	ldr	w0, [x29, #220]
   8593c:	13003c00 	sxth	w0, w0
   85940:	1400006a 	b	85ae8 <CEcoIPCCMailbox1_ProcessingByArgs+0x230>
   85944:	910603a0 	add	x0, x29, #0x180
   85948:	f9001ba0 	str	x0, [x29, #48]
   8594c:	910603a0 	add	x0, x29, #0x180
   85950:	f9001fa0 	str	x0, [x29, #56]
   85954:	910583a0 	add	x0, x29, #0x160
   85958:	f90023a0 	str	x0, [x29, #64]
   8595c:	128003e0 	mov	w0, #0xffffffe0            	// #-32
   85960:	b9004ba0 	str	w0, [x29, #72]
   85964:	12800fe0 	mov	w0, #0xffffff80            	// #-128
   85968:	b9004fa0 	str	w0, [x29, #76]
   8596c:	b94023a0 	ldr	w0, [x29, #32]
   85970:	11000c00 	add	w0, w0, #0x3
   85974:	531e7400 	lsl	w0, w0, #2
   85978:	b90053a0 	str	w0, [x29, #80]
   8597c:	b94023a0 	ldr	w0, [x29, #32]
   85980:	11000800 	add	w0, w0, #0x2
   85984:	2a0003e0 	mov	w0, w0
   85988:	d37ef400 	lsl	x0, x0, #2
   8598c:	910143a1 	add	x1, x29, #0x50
   85990:	b820683f 	str	wzr, [x1, x0]
   85994:	b90057bf 	str	wzr, [x29, #84]
   85998:	b900dbbf 	str	wzr, [x29, #216]
   8599c:	14000023 	b	85a28 <CEcoIPCCMailbox1_ProcessingByArgs+0x170>
   859a0:	b940dba0 	ldr	w0, [x29, #216]
   859a4:	11000803 	add	w3, w0, #0x2
   859a8:	b9404ba0 	ldr	w0, [x29, #72]
   859ac:	f9401ba1 	ldr	x1, [x29, #48]
   859b0:	7100001f 	cmp	w0, #0x0
   859b4:	540000eb 	b.lt	859d0 <CEcoIPCCMailbox1_ProcessingByArgs+0x118>  // b.tstop
   859b8:	aa0103e0 	mov	x0, x1
   859bc:	91002c00 	add	x0, x0, #0xb
   859c0:	927df000 	and	x0, x0, #0xfffffffffffffff8
   859c4:	f9001ba0 	str	x0, [x29, #48]
   859c8:	aa0103e0 	mov	x0, x1
   859cc:	1400000f 	b	85a08 <CEcoIPCCMailbox1_ProcessingByArgs+0x150>
   859d0:	11002002 	add	w2, w0, #0x8
   859d4:	b9004ba2 	str	w2, [x29, #72]
   859d8:	b9404ba2 	ldr	w2, [x29, #72]
   859dc:	7100005f 	cmp	w2, #0x0
   859e0:	540000ed 	b.le	859fc <CEcoIPCCMailbox1_ProcessingByArgs+0x144>
   859e4:	aa0103e0 	mov	x0, x1
   859e8:	91002c00 	add	x0, x0, #0xb
   859ec:	927df000 	and	x0, x0, #0xfffffffffffffff8
   859f0:	f9001ba0 	str	x0, [x29, #48]
   859f4:	aa0103e0 	mov	x0, x1
   859f8:	14000004 	b	85a08 <CEcoIPCCMailbox1_ProcessingByArgs+0x150>
   859fc:	f9401fa1 	ldr	x1, [x29, #56]
   85a00:	93407c00 	sxtw	x0, w0
   85a04:	8b000020 	add	x0, x1, x0
   85a08:	b9400002 	ldr	w2, [x0]
   85a0c:	93407c60 	sxtw	x0, w3
   85a10:	d37ef400 	lsl	x0, x0, #2
   85a14:	910143a1 	add	x1, x29, #0x50
   85a18:	b8206822 	str	w2, [x1, x0]
   85a1c:	b940dba0 	ldr	w0, [x29, #216]
   85a20:	11000400 	add	w0, w0, #0x1
   85a24:	b900dba0 	str	w0, [x29, #216]
   85a28:	b940dba0 	ldr	w0, [x29, #216]
   85a2c:	b94023a1 	ldr	w1, [x29, #32]
   85a30:	6b00003f 	cmp	w1, w0
   85a34:	54fffb68 	b.hi	859a0 <CEcoIPCCMailbox1_ProcessingByArgs+0xe8>  // b.pmore
   85a38:	f94017a0 	ldr	x0, [x29, #40]
   85a3c:	f9400000 	ldr	x0, [x0]
   85a40:	f9401803 	ldr	x3, [x0, #48]
   85a44:	910143a0 	add	x0, x29, #0x50
   85a48:	2a0003e2 	mov	w2, w0
   85a4c:	39409fa1 	ldrb	w1, [x29, #39]
   85a50:	f94017a0 	ldr	x0, [x29, #40]
   85a54:	d63f0060 	blr	x3
   85a58:	f94017a0 	ldr	x0, [x29, #40]
   85a5c:	f9400000 	ldr	x0, [x0]
   85a60:	f9401402 	ldr	x2, [x0, #40]
   85a64:	39409fa1 	ldrb	w1, [x29, #39]
   85a68:	f94017a0 	ldr	x0, [x29, #40]
   85a6c:	d63f0040 	blr	x2
   85a70:	b94057a1 	ldr	w1, [x29, #84]
   85a74:	52b00000 	mov	w0, #0x80000000            	// #-2147483648
   85a78:	6b00003f 	cmp	w1, w0
   85a7c:	54000321 	b.ne	85ae0 <CEcoIPCCMailbox1_ProcessingByArgs+0x228>  // b.any
   85a80:	f9400fa0 	ldr	x0, [x29, #24]
   85a84:	f100001f 	cmp	x0, #0x0
   85a88:	540002a0 	b.eq	85adc <CEcoIPCCMailbox1_ProcessingByArgs+0x224>  // b.none
   85a8c:	b900dbbf 	str	wzr, [x29, #216]
   85a90:	1400000f 	b	85acc <CEcoIPCCMailbox1_ProcessingByArgs+0x214>
   85a94:	b940dba0 	ldr	w0, [x29, #216]
   85a98:	11000802 	add	w2, w0, #0x2
   85a9c:	b980dba0 	ldrsw	x0, [x29, #216]
   85aa0:	d37ef400 	lsl	x0, x0, #2
   85aa4:	f9400fa1 	ldr	x1, [x29, #24]
   85aa8:	8b000020 	add	x0, x1, x0
   85aac:	93407c41 	sxtw	x1, w2
   85ab0:	d37ef421 	lsl	x1, x1, #2
   85ab4:	910143a2 	add	x2, x29, #0x50
   85ab8:	b8616841 	ldr	w1, [x2, x1]
   85abc:	b9000001 	str	w1, [x0]
   85ac0:	b940dba0 	ldr	w0, [x29, #216]
   85ac4:	11000400 	add	w0, w0, #0x1
   85ac8:	b900dba0 	str	w0, [x29, #216]
   85acc:	b940dba0 	ldr	w0, [x29, #216]
   85ad0:	b94023a1 	ldr	w1, [x29, #32]
   85ad4:	6b00003f 	cmp	w1, w0
   85ad8:	54fffde8 	b.hi	85a94 <CEcoIPCCMailbox1_ProcessingByArgs+0x1dc>  // b.pmore
   85adc:	b900dfbf 	str	wzr, [x29, #220]
   85ae0:	b940dfa0 	ldr	w0, [x29, #220]
   85ae4:	13003c00 	sxth	w0, w0
   85ae8:	a8d87bfd 	ldp	x29, x30, [sp], #384
   85aec:	d65f03c0 	ret

0000000000085af0 <initCEcoIPCCMailbox1>:
   85af0:	d10083ff 	sub	sp, sp, #0x20
   85af4:	f90007e0 	str	x0, [sp, #8]
   85af8:	f90003e1 	str	x1, [sp]
   85afc:	f94007e0 	ldr	x0, [sp, #8]
   85b00:	f9000fe0 	str	x0, [sp, #24]
   85b04:	12800000 	mov	w0, #0xffffffff            	// #-1
   85b08:	79002fe0 	strh	w0, [sp, #22]
   85b0c:	f94007e0 	ldr	x0, [sp, #8]
   85b10:	f100001f 	cmp	x0, #0x0
   85b14:	54000061 	b.ne	85b20 <initCEcoIPCCMailbox1+0x30>  // b.any
   85b18:	79c02fe0 	ldrsh	w0, [sp, #22]
   85b1c:	14000009 	b	85b40 <initCEcoIPCCMailbox1+0x50>
   85b20:	f9400fe0 	ldr	x0, [sp, #24]
   85b24:	f94003e1 	ldr	x1, [sp]
   85b28:	f9000c01 	str	x1, [x0, #24]
   85b2c:	f9400fe0 	ldr	x0, [sp, #24]
   85b30:	d2971001 	mov	x1, #0xb880                	// #47232
   85b34:	f2a7e001 	movk	x1, #0x3f00, lsl #16
   85b38:	f9001001 	str	x1, [x0, #32]
   85b3c:	52800000 	mov	w0, #0x0                   	// #0
   85b40:	910083ff 	add	sp, sp, #0x20
   85b44:	d65f03c0 	ret

0000000000085b48 <createCEcoIPCCMailbox1>:
   85b48:	d100c3ff 	sub	sp, sp, #0x30
   85b4c:	f9000fe0 	str	x0, [sp, #24]
   85b50:	f9000be1 	str	x1, [sp, #16]
   85b54:	f90007e2 	str	x2, [sp, #8]
   85b58:	f90017ff 	str	xzr, [sp, #40]
   85b5c:	d0000040 	adrp	x0, 8f000 <_malloc_r+0x818>
   85b60:	91238000 	add	x0, x0, #0x8e0
   85b64:	f90017e0 	str	x0, [sp, #40]
   85b68:	f94017e0 	ldr	x0, [sp, #40]
   85b6c:	b9400800 	ldr	w0, [x0, #8]
   85b70:	7100001f 	cmp	w0, #0x0
   85b74:	54000101 	b.ne	85b94 <createCEcoIPCCMailbox1+0x4c>  // b.any
   85b78:	f94017e0 	ldr	x0, [sp, #40]
   85b7c:	52800021 	mov	w1, #0x1                   	// #1
   85b80:	b9000801 	str	w1, [x0, #8]
   85b84:	f94017e0 	ldr	x0, [sp, #40]
   85b88:	d2971001 	mov	x1, #0xb880                	// #47232
   85b8c:	f2a7e001 	movk	x1, #0x3f00, lsl #16
   85b90:	f9001001 	str	x1, [x0, #32]
   85b94:	f94007e0 	ldr	x0, [sp, #8]
   85b98:	f94017e1 	ldr	x1, [sp, #40]
   85b9c:	f9000001 	str	x1, [x0]
   85ba0:	52800000 	mov	w0, #0x0                   	// #0
   85ba4:	9100c3ff 	add	sp, sp, #0x30
   85ba8:	d65f03c0 	ret

0000000000085bac <deleteCEcoIPCCMailbox1>:
   85bac:	d10043ff 	sub	sp, sp, #0x10
   85bb0:	f90007e0 	str	x0, [sp, #8]
   85bb4:	d503201f 	nop
   85bb8:	910043ff 	add	sp, sp, #0x10
   85bbc:	d65f03c0 	ret

0000000000085bc0 <CEcoTaskScheduler1Lab_C761620FFactory_QueryInterface>:
   85bc0:	a9bd7bfd 	stp	x29, x30, [sp, #-48]!
   85bc4:	910003fd 	mov	x29, sp
   85bc8:	f90017a0 	str	x0, [x29, #40]
   85bcc:	f90013a1 	str	x1, [x29, #32]
   85bd0:	f9000fa2 	str	x2, [x29, #24]
   85bd4:	f94013a0 	ldr	x0, [x29, #32]
   85bd8:	39400001 	ldrb	w1, [x0]
   85bdc:	90000220 	adrp	x0, c9000 <g_xCEcoStackTask1List_C761620F+0x37e20>
   85be0:	912c0000 	add	x0, x0, #0xb00
   85be4:	39400000 	ldrb	w0, [x0]
   85be8:	6b00003f 	cmp	w1, w0
   85bec:	54001121 	b.ne	85e10 <CEcoTaskScheduler1Lab_C761620FFactory_QueryInterface+0x250>  // b.any
   85bf0:	f94013a0 	ldr	x0, [x29, #32]
   85bf4:	91000400 	add	x0, x0, #0x1
   85bf8:	39400001 	ldrb	w1, [x0]
   85bfc:	90000220 	adrp	x0, c9000 <g_xCEcoStackTask1List_C761620F+0x37e20>
   85c00:	912c0400 	add	x0, x0, #0xb01
   85c04:	39400000 	ldrb	w0, [x0]
   85c08:	6b00003f 	cmp	w1, w0
   85c0c:	54001021 	b.ne	85e10 <CEcoTaskScheduler1Lab_C761620FFactory_QueryInterface+0x250>  // b.any
   85c10:	f94013a0 	ldr	x0, [x29, #32]
   85c14:	91000800 	add	x0, x0, #0x2
   85c18:	39400001 	ldrb	w1, [x0]
   85c1c:	90000220 	adrp	x0, c9000 <g_xCEcoStackTask1List_C761620F+0x37e20>
   85c20:	912c0800 	add	x0, x0, #0xb02
   85c24:	39400000 	ldrb	w0, [x0]
   85c28:	6b00003f 	cmp	w1, w0
   85c2c:	54000f21 	b.ne	85e10 <CEcoTaskScheduler1Lab_C761620FFactory_QueryInterface+0x250>  // b.any
   85c30:	f94013a0 	ldr	x0, [x29, #32]
   85c34:	91000c00 	add	x0, x0, #0x3
   85c38:	39400001 	ldrb	w1, [x0]
   85c3c:	90000220 	adrp	x0, c9000 <g_xCEcoStackTask1List_C761620F+0x37e20>
   85c40:	912c0c00 	add	x0, x0, #0xb03
   85c44:	39400000 	ldrb	w0, [x0]
   85c48:	6b00003f 	cmp	w1, w0
   85c4c:	54000e21 	b.ne	85e10 <CEcoTaskScheduler1Lab_C761620FFactory_QueryInterface+0x250>  // b.any
   85c50:	f94013a0 	ldr	x0, [x29, #32]
   85c54:	91001000 	add	x0, x0, #0x4
   85c58:	39400001 	ldrb	w1, [x0]
   85c5c:	90000220 	adrp	x0, c9000 <g_xCEcoStackTask1List_C761620F+0x37e20>
   85c60:	912c1000 	add	x0, x0, #0xb04
   85c64:	39400000 	ldrb	w0, [x0]
   85c68:	6b00003f 	cmp	w1, w0
   85c6c:	54000d21 	b.ne	85e10 <CEcoTaskScheduler1Lab_C761620FFactory_QueryInterface+0x250>  // b.any
   85c70:	f94013a0 	ldr	x0, [x29, #32]
   85c74:	91001400 	add	x0, x0, #0x5
   85c78:	39400001 	ldrb	w1, [x0]
   85c7c:	90000220 	adrp	x0, c9000 <g_xCEcoStackTask1List_C761620F+0x37e20>
   85c80:	912c1400 	add	x0, x0, #0xb05
   85c84:	39400000 	ldrb	w0, [x0]
   85c88:	6b00003f 	cmp	w1, w0
   85c8c:	54000c21 	b.ne	85e10 <CEcoTaskScheduler1Lab_C761620FFactory_QueryInterface+0x250>  // b.any
   85c90:	f94013a0 	ldr	x0, [x29, #32]
   85c94:	91001800 	add	x0, x0, #0x6
   85c98:	39400001 	ldrb	w1, [x0]
   85c9c:	90000220 	adrp	x0, c9000 <g_xCEcoStackTask1List_C761620F+0x37e20>
   85ca0:	912c1800 	add	x0, x0, #0xb06
   85ca4:	39400000 	ldrb	w0, [x0]
   85ca8:	6b00003f 	cmp	w1, w0
   85cac:	54000b21 	b.ne	85e10 <CEcoTaskScheduler1Lab_C761620FFactory_QueryInterface+0x250>  // b.any
   85cb0:	f94013a0 	ldr	x0, [x29, #32]
   85cb4:	91001c00 	add	x0, x0, #0x7
   85cb8:	39400001 	ldrb	w1, [x0]
   85cbc:	90000220 	adrp	x0, c9000 <g_xCEcoStackTask1List_C761620F+0x37e20>
   85cc0:	912c1c00 	add	x0, x0, #0xb07
   85cc4:	39400000 	ldrb	w0, [x0]
   85cc8:	6b00003f 	cmp	w1, w0
   85ccc:	54000a21 	b.ne	85e10 <CEcoTaskScheduler1Lab_C761620FFactory_QueryInterface+0x250>  // b.any
   85cd0:	f94013a0 	ldr	x0, [x29, #32]
   85cd4:	91002000 	add	x0, x0, #0x8
   85cd8:	39400001 	ldrb	w1, [x0]
   85cdc:	90000220 	adrp	x0, c9000 <g_xCEcoStackTask1List_C761620F+0x37e20>
   85ce0:	912c2000 	add	x0, x0, #0xb08
   85ce4:	39400000 	ldrb	w0, [x0]
   85ce8:	6b00003f 	cmp	w1, w0
   85cec:	54000921 	b.ne	85e10 <CEcoTaskScheduler1Lab_C761620FFactory_QueryInterface+0x250>  // b.any
   85cf0:	f94013a0 	ldr	x0, [x29, #32]
   85cf4:	91002400 	add	x0, x0, #0x9
   85cf8:	39400001 	ldrb	w1, [x0]
   85cfc:	90000220 	adrp	x0, c9000 <g_xCEcoStackTask1List_C761620F+0x37e20>
   85d00:	912c2400 	add	x0, x0, #0xb09
   85d04:	39400000 	ldrb	w0, [x0]
   85d08:	6b00003f 	cmp	w1, w0
   85d0c:	54000821 	b.ne	85e10 <CEcoTaskScheduler1Lab_C761620FFactory_QueryInterface+0x250>  // b.any
   85d10:	f94013a0 	ldr	x0, [x29, #32]
   85d14:	91002800 	add	x0, x0, #0xa
   85d18:	39400001 	ldrb	w1, [x0]
   85d1c:	90000220 	adrp	x0, c9000 <g_xCEcoStackTask1List_C761620F+0x37e20>
   85d20:	912c2800 	add	x0, x0, #0xb0a
   85d24:	39400000 	ldrb	w0, [x0]
   85d28:	6b00003f 	cmp	w1, w0
   85d2c:	54000721 	b.ne	85e10 <CEcoTaskScheduler1Lab_C761620FFactory_QueryInterface+0x250>  // b.any
   85d30:	f94013a0 	ldr	x0, [x29, #32]
   85d34:	91002c00 	add	x0, x0, #0xb
   85d38:	39400001 	ldrb	w1, [x0]
   85d3c:	90000220 	adrp	x0, c9000 <g_xCEcoStackTask1List_C761620F+0x37e20>
   85d40:	912c2c00 	add	x0, x0, #0xb0b
   85d44:	39400000 	ldrb	w0, [x0]
   85d48:	6b00003f 	cmp	w1, w0
   85d4c:	54000621 	b.ne	85e10 <CEcoTaskScheduler1Lab_C761620FFactory_QueryInterface+0x250>  // b.any
   85d50:	f94013a0 	ldr	x0, [x29, #32]
   85d54:	91003000 	add	x0, x0, #0xc
   85d58:	39400001 	ldrb	w1, [x0]
   85d5c:	90000220 	adrp	x0, c9000 <g_xCEcoStackTask1List_C761620F+0x37e20>
   85d60:	912c3000 	add	x0, x0, #0xb0c
   85d64:	39400000 	ldrb	w0, [x0]
   85d68:	6b00003f 	cmp	w1, w0
   85d6c:	54000521 	b.ne	85e10 <CEcoTaskScheduler1Lab_C761620FFactory_QueryInterface+0x250>  // b.any
   85d70:	f94013a0 	ldr	x0, [x29, #32]
   85d74:	91003400 	add	x0, x0, #0xd
   85d78:	39400001 	ldrb	w1, [x0]
   85d7c:	90000220 	adrp	x0, c9000 <g_xCEcoStackTask1List_C761620F+0x37e20>
   85d80:	912c3400 	add	x0, x0, #0xb0d
   85d84:	39400000 	ldrb	w0, [x0]
   85d88:	6b00003f 	cmp	w1, w0
   85d8c:	54000421 	b.ne	85e10 <CEcoTaskScheduler1Lab_C761620FFactory_QueryInterface+0x250>  // b.any
   85d90:	f94013a0 	ldr	x0, [x29, #32]
   85d94:	91003800 	add	x0, x0, #0xe
   85d98:	39400001 	ldrb	w1, [x0]
   85d9c:	90000220 	adrp	x0, c9000 <g_xCEcoStackTask1List_C761620F+0x37e20>
   85da0:	912c3800 	add	x0, x0, #0xb0e
   85da4:	39400000 	ldrb	w0, [x0]
   85da8:	6b00003f 	cmp	w1, w0
   85dac:	54000321 	b.ne	85e10 <CEcoTaskScheduler1Lab_C761620FFactory_QueryInterface+0x250>  // b.any
   85db0:	f94013a0 	ldr	x0, [x29, #32]
   85db4:	91003c00 	add	x0, x0, #0xf
   85db8:	39400001 	ldrb	w1, [x0]
   85dbc:	90000220 	adrp	x0, c9000 <g_xCEcoStackTask1List_C761620F+0x37e20>
   85dc0:	912c3c00 	add	x0, x0, #0xb0f
   85dc4:	39400000 	ldrb	w0, [x0]
   85dc8:	6b00003f 	cmp	w1, w0
   85dcc:	54000221 	b.ne	85e10 <CEcoTaskScheduler1Lab_C761620FFactory_QueryInterface+0x250>  // b.any
   85dd0:	f94013a0 	ldr	x0, [x29, #32]
   85dd4:	91004000 	add	x0, x0, #0x10
   85dd8:	39400001 	ldrb	w1, [x0]
   85ddc:	90000220 	adrp	x0, c9000 <g_xCEcoStackTask1List_C761620F+0x37e20>
   85de0:	912c4000 	add	x0, x0, #0xb10
   85de4:	39400000 	ldrb	w0, [x0]
   85de8:	6b00003f 	cmp	w1, w0
   85dec:	54000121 	b.ne	85e10 <CEcoTaskScheduler1Lab_C761620FFactory_QueryInterface+0x250>  // b.any
   85df0:	f94013a0 	ldr	x0, [x29, #32]
   85df4:	91004400 	add	x0, x0, #0x11
   85df8:	39400001 	ldrb	w1, [x0]
   85dfc:	90000220 	adrp	x0, c9000 <g_xCEcoStackTask1List_C761620F+0x37e20>
   85e00:	912c4400 	add	x0, x0, #0xb11
   85e04:	39400000 	ldrb	w0, [x0]
   85e08:	6b00003f 	cmp	w1, w0
   85e0c:	54001200 	b.eq	8604c <CEcoTaskScheduler1Lab_C761620FFactory_QueryInterface+0x48c>  // b.none
   85e10:	f94013a0 	ldr	x0, [x29, #32]
   85e14:	39400001 	ldrb	w1, [x0]
   85e18:	90000220 	adrp	x0, c9000 <g_xCEcoStackTask1List_C761620F+0x37e20>
   85e1c:	912c6000 	add	x0, x0, #0xb18
   85e20:	39400000 	ldrb	w0, [x0]
   85e24:	6b00003f 	cmp	w1, w0
   85e28:	540012a1 	b.ne	8607c <CEcoTaskScheduler1Lab_C761620FFactory_QueryInterface+0x4bc>  // b.any
   85e2c:	f94013a0 	ldr	x0, [x29, #32]
   85e30:	91000400 	add	x0, x0, #0x1
   85e34:	39400001 	ldrb	w1, [x0]
   85e38:	90000220 	adrp	x0, c9000 <g_xCEcoStackTask1List_C761620F+0x37e20>
   85e3c:	912c6400 	add	x0, x0, #0xb19
   85e40:	39400000 	ldrb	w0, [x0]
   85e44:	6b00003f 	cmp	w1, w0
   85e48:	540011a1 	b.ne	8607c <CEcoTaskScheduler1Lab_C761620FFactory_QueryInterface+0x4bc>  // b.any
   85e4c:	f94013a0 	ldr	x0, [x29, #32]
   85e50:	91000800 	add	x0, x0, #0x2
   85e54:	39400001 	ldrb	w1, [x0]
   85e58:	90000220 	adrp	x0, c9000 <g_xCEcoStackTask1List_C761620F+0x37e20>
   85e5c:	912c6800 	add	x0, x0, #0xb1a
   85e60:	39400000 	ldrb	w0, [x0]
   85e64:	6b00003f 	cmp	w1, w0
   85e68:	540010a1 	b.ne	8607c <CEcoTaskScheduler1Lab_C761620FFactory_QueryInterface+0x4bc>  // b.any
   85e6c:	f94013a0 	ldr	x0, [x29, #32]
   85e70:	91000c00 	add	x0, x0, #0x3
   85e74:	39400001 	ldrb	w1, [x0]
   85e78:	90000220 	adrp	x0, c9000 <g_xCEcoStackTask1List_C761620F+0x37e20>
   85e7c:	912c6c00 	add	x0, x0, #0xb1b
   85e80:	39400000 	ldrb	w0, [x0]
   85e84:	6b00003f 	cmp	w1, w0
   85e88:	54000fa1 	b.ne	8607c <CEcoTaskScheduler1Lab_C761620FFactory_QueryInterface+0x4bc>  // b.any
   85e8c:	f94013a0 	ldr	x0, [x29, #32]
   85e90:	91001000 	add	x0, x0, #0x4
   85e94:	39400001 	ldrb	w1, [x0]
   85e98:	90000220 	adrp	x0, c9000 <g_xCEcoStackTask1List_C761620F+0x37e20>
   85e9c:	912c7000 	add	x0, x0, #0xb1c
   85ea0:	39400000 	ldrb	w0, [x0]
   85ea4:	6b00003f 	cmp	w1, w0
   85ea8:	54000ea1 	b.ne	8607c <CEcoTaskScheduler1Lab_C761620FFactory_QueryInterface+0x4bc>  // b.any
   85eac:	f94013a0 	ldr	x0, [x29, #32]
   85eb0:	91001400 	add	x0, x0, #0x5
   85eb4:	39400001 	ldrb	w1, [x0]
   85eb8:	90000220 	adrp	x0, c9000 <g_xCEcoStackTask1List_C761620F+0x37e20>
   85ebc:	912c7400 	add	x0, x0, #0xb1d
   85ec0:	39400000 	ldrb	w0, [x0]
   85ec4:	6b00003f 	cmp	w1, w0
   85ec8:	54000da1 	b.ne	8607c <CEcoTaskScheduler1Lab_C761620FFactory_QueryInterface+0x4bc>  // b.any
   85ecc:	f94013a0 	ldr	x0, [x29, #32]
   85ed0:	91001800 	add	x0, x0, #0x6
   85ed4:	39400001 	ldrb	w1, [x0]
   85ed8:	90000220 	adrp	x0, c9000 <g_xCEcoStackTask1List_C761620F+0x37e20>
   85edc:	912c7800 	add	x0, x0, #0xb1e
   85ee0:	39400000 	ldrb	w0, [x0]
   85ee4:	6b00003f 	cmp	w1, w0
   85ee8:	54000ca1 	b.ne	8607c <CEcoTaskScheduler1Lab_C761620FFactory_QueryInterface+0x4bc>  // b.any
   85eec:	f94013a0 	ldr	x0, [x29, #32]
   85ef0:	91001c00 	add	x0, x0, #0x7
   85ef4:	39400001 	ldrb	w1, [x0]
   85ef8:	90000220 	adrp	x0, c9000 <g_xCEcoStackTask1List_C761620F+0x37e20>
   85efc:	912c7c00 	add	x0, x0, #0xb1f
   85f00:	39400000 	ldrb	w0, [x0]
   85f04:	6b00003f 	cmp	w1, w0
   85f08:	54000ba1 	b.ne	8607c <CEcoTaskScheduler1Lab_C761620FFactory_QueryInterface+0x4bc>  // b.any
   85f0c:	f94013a0 	ldr	x0, [x29, #32]
   85f10:	91002000 	add	x0, x0, #0x8
   85f14:	39400001 	ldrb	w1, [x0]
   85f18:	90000220 	adrp	x0, c9000 <g_xCEcoStackTask1List_C761620F+0x37e20>
   85f1c:	912c8000 	add	x0, x0, #0xb20
   85f20:	39400000 	ldrb	w0, [x0]
   85f24:	6b00003f 	cmp	w1, w0
   85f28:	54000aa1 	b.ne	8607c <CEcoTaskScheduler1Lab_C761620FFactory_QueryInterface+0x4bc>  // b.any
   85f2c:	f94013a0 	ldr	x0, [x29, #32]
   85f30:	91002400 	add	x0, x0, #0x9
   85f34:	39400001 	ldrb	w1, [x0]
   85f38:	90000220 	adrp	x0, c9000 <g_xCEcoStackTask1List_C761620F+0x37e20>
   85f3c:	912c8400 	add	x0, x0, #0xb21
   85f40:	39400000 	ldrb	w0, [x0]
   85f44:	6b00003f 	cmp	w1, w0
   85f48:	540009a1 	b.ne	8607c <CEcoTaskScheduler1Lab_C761620FFactory_QueryInterface+0x4bc>  // b.any
   85f4c:	f94013a0 	ldr	x0, [x29, #32]
   85f50:	91002800 	add	x0, x0, #0xa
   85f54:	39400001 	ldrb	w1, [x0]
   85f58:	90000220 	adrp	x0, c9000 <g_xCEcoStackTask1List_C761620F+0x37e20>
   85f5c:	912c8800 	add	x0, x0, #0xb22
   85f60:	39400000 	ldrb	w0, [x0]
   85f64:	6b00003f 	cmp	w1, w0
   85f68:	540008a1 	b.ne	8607c <CEcoTaskScheduler1Lab_C761620FFactory_QueryInterface+0x4bc>  // b.any
   85f6c:	f94013a0 	ldr	x0, [x29, #32]
   85f70:	91002c00 	add	x0, x0, #0xb
   85f74:	39400001 	ldrb	w1, [x0]
   85f78:	90000220 	adrp	x0, c9000 <g_xCEcoStackTask1List_C761620F+0x37e20>
   85f7c:	912c8c00 	add	x0, x0, #0xb23
   85f80:	39400000 	ldrb	w0, [x0]
   85f84:	6b00003f 	cmp	w1, w0
   85f88:	540007a1 	b.ne	8607c <CEcoTaskScheduler1Lab_C761620FFactory_QueryInterface+0x4bc>  // b.any
   85f8c:	f94013a0 	ldr	x0, [x29, #32]
   85f90:	91003000 	add	x0, x0, #0xc
   85f94:	39400001 	ldrb	w1, [x0]
   85f98:	90000220 	adrp	x0, c9000 <g_xCEcoStackTask1List_C761620F+0x37e20>
   85f9c:	912c9000 	add	x0, x0, #0xb24
   85fa0:	39400000 	ldrb	w0, [x0]
   85fa4:	6b00003f 	cmp	w1, w0
   85fa8:	540006a1 	b.ne	8607c <CEcoTaskScheduler1Lab_C761620FFactory_QueryInterface+0x4bc>  // b.any
   85fac:	f94013a0 	ldr	x0, [x29, #32]
   85fb0:	91003400 	add	x0, x0, #0xd
   85fb4:	39400001 	ldrb	w1, [x0]
   85fb8:	90000220 	adrp	x0, c9000 <g_xCEcoStackTask1List_C761620F+0x37e20>
   85fbc:	912c9400 	add	x0, x0, #0xb25
   85fc0:	39400000 	ldrb	w0, [x0]
   85fc4:	6b00003f 	cmp	w1, w0
   85fc8:	540005a1 	b.ne	8607c <CEcoTaskScheduler1Lab_C761620FFactory_QueryInterface+0x4bc>  // b.any
   85fcc:	f94013a0 	ldr	x0, [x29, #32]
   85fd0:	91003800 	add	x0, x0, #0xe
   85fd4:	39400001 	ldrb	w1, [x0]
   85fd8:	90000220 	adrp	x0, c9000 <g_xCEcoStackTask1List_C761620F+0x37e20>
   85fdc:	912c9800 	add	x0, x0, #0xb26
   85fe0:	39400000 	ldrb	w0, [x0]
   85fe4:	6b00003f 	cmp	w1, w0
   85fe8:	540004a1 	b.ne	8607c <CEcoTaskScheduler1Lab_C761620FFactory_QueryInterface+0x4bc>  // b.any
   85fec:	f94013a0 	ldr	x0, [x29, #32]
   85ff0:	91003c00 	add	x0, x0, #0xf
   85ff4:	39400001 	ldrb	w1, [x0]
   85ff8:	90000220 	adrp	x0, c9000 <g_xCEcoStackTask1List_C761620F+0x37e20>
   85ffc:	912c9c00 	add	x0, x0, #0xb27
   86000:	39400000 	ldrb	w0, [x0]
   86004:	6b00003f 	cmp	w1, w0
   86008:	540003a1 	b.ne	8607c <CEcoTaskScheduler1Lab_C761620FFactory_QueryInterface+0x4bc>  // b.any
   8600c:	f94013a0 	ldr	x0, [x29, #32]
   86010:	91004000 	add	x0, x0, #0x10
   86014:	39400001 	ldrb	w1, [x0]
   86018:	f0000200 	adrp	x0, c9000 <g_xCEcoStackTask1List_C761620F+0x37e20>
   8601c:	912ca000 	add	x0, x0, #0xb28
   86020:	39400000 	ldrb	w0, [x0]
   86024:	6b00003f 	cmp	w1, w0
   86028:	540002a1 	b.ne	8607c <CEcoTaskScheduler1Lab_C761620FFactory_QueryInterface+0x4bc>  // b.any
   8602c:	f94013a0 	ldr	x0, [x29, #32]
   86030:	91004400 	add	x0, x0, #0x11
   86034:	39400001 	ldrb	w1, [x0]
   86038:	f0000200 	adrp	x0, c9000 <g_xCEcoStackTask1List_C761620F+0x37e20>
   8603c:	912ca400 	add	x0, x0, #0xb29
   86040:	39400000 	ldrb	w0, [x0]
   86044:	6b00003f 	cmp	w1, w0
   86048:	540001a1 	b.ne	8607c <CEcoTaskScheduler1Lab_C761620FFactory_QueryInterface+0x4bc>  // b.any
   8604c:	f9400fa0 	ldr	x0, [x29, #24]
   86050:	f94017a1 	ldr	x1, [x29, #40]
   86054:	f9000001 	str	x1, [x0]
   86058:	f9400fa0 	ldr	x0, [x29, #24]
   8605c:	f9400000 	ldr	x0, [x0]
   86060:	f9400000 	ldr	x0, [x0]
   86064:	f9400401 	ldr	x1, [x0, #8]
   86068:	f9400fa0 	ldr	x0, [x29, #24]
   8606c:	f9400000 	ldr	x0, [x0]
   86070:	d63f0020 	blr	x1
   86074:	52800000 	mov	w0, #0x0                   	// #0
   86078:	14000004 	b	86088 <CEcoTaskScheduler1Lab_C761620FFactory_QueryInterface+0x4c8>
   8607c:	f9400fa0 	ldr	x0, [x29, #24]
   86080:	f900001f 	str	xzr, [x0]
   86084:	12800000 	mov	w0, #0xffffffff            	// #-1
   86088:	a8c37bfd 	ldp	x29, x30, [sp], #48
   8608c:	d65f03c0 	ret

0000000000086090 <CEcoTaskScheduler1Lab_C761620FFactory_AddRef>:
   86090:	d10083ff 	sub	sp, sp, #0x20
   86094:	f90007e0 	str	x0, [sp, #8]
   86098:	f94007e0 	ldr	x0, [sp, #8]
   8609c:	f9000fe0 	str	x0, [sp, #24]
   860a0:	f94007e0 	ldr	x0, [sp, #8]
   860a4:	f100001f 	cmp	x0, #0x0
   860a8:	54000061 	b.ne	860b4 <CEcoTaskScheduler1Lab_C761620FFactory_AddRef+0x24>  // b.any
   860ac:	12800000 	mov	w0, #0xffffffff            	// #-1
   860b0:	14000008 	b	860d0 <CEcoTaskScheduler1Lab_C761620FFactory_AddRef+0x40>
   860b4:	f9400fe0 	ldr	x0, [sp, #24]
   860b8:	b9400800 	ldr	w0, [x0, #8]
   860bc:	11000401 	add	w1, w0, #0x1
   860c0:	f9400fe0 	ldr	x0, [sp, #24]
   860c4:	b9000801 	str	w1, [x0, #8]
   860c8:	f9400fe0 	ldr	x0, [sp, #24]
   860cc:	b9400800 	ldr	w0, [x0, #8]
   860d0:	910083ff 	add	sp, sp, #0x20
   860d4:	d65f03c0 	ret

00000000000860d8 <CEcoTaskScheduler1Lab_C761620FFactory_Release>:
   860d8:	d10083ff 	sub	sp, sp, #0x20
   860dc:	f90007e0 	str	x0, [sp, #8]
   860e0:	f94007e0 	ldr	x0, [sp, #8]
   860e4:	f9000fe0 	str	x0, [sp, #24]
   860e8:	f94007e0 	ldr	x0, [sp, #8]
   860ec:	f100001f 	cmp	x0, #0x0
   860f0:	54000061 	b.ne	860fc <CEcoTaskScheduler1Lab_C761620FFactory_Release+0x24>  // b.any
   860f4:	12800000 	mov	w0, #0xffffffff            	// #-1
   860f8:	1400000e 	b	86130 <CEcoTaskScheduler1Lab_C761620FFactory_Release+0x58>
   860fc:	f9400fe0 	ldr	x0, [sp, #24]
   86100:	b9400800 	ldr	w0, [x0, #8]
   86104:	51000401 	sub	w1, w0, #0x1
   86108:	f9400fe0 	ldr	x0, [sp, #24]
   8610c:	b9000801 	str	w1, [x0, #8]
   86110:	f9400fe0 	ldr	x0, [sp, #24]
   86114:	b9400800 	ldr	w0, [x0, #8]
   86118:	7100001f 	cmp	w0, #0x0
   8611c:	54000061 	b.ne	86128 <CEcoTaskScheduler1Lab_C761620FFactory_Release+0x50>  // b.any
   86120:	52800000 	mov	w0, #0x0                   	// #0
   86124:	14000003 	b	86130 <CEcoTaskScheduler1Lab_C761620FFactory_Release+0x58>
   86128:	f9400fe0 	ldr	x0, [sp, #24]
   8612c:	b9400800 	ldr	w0, [x0, #8]
   86130:	910083ff 	add	sp, sp, #0x20
   86134:	d65f03c0 	ret

0000000000086138 <CEcoTaskScheduler1Lab_C761620FFactory_Init>:
   86138:	a9bc7bfd 	stp	x29, x30, [sp, #-64]!
   8613c:	910003fd 	mov	x29, sp
   86140:	f90017a0 	str	x0, [x29, #40]
   86144:	f90013a1 	str	x1, [x29, #32]
   86148:	f9000fa2 	str	x2, [x29, #24]
   8614c:	f94017a0 	ldr	x0, [x29, #40]
   86150:	f9001fa0 	str	x0, [x29, #56]
   86154:	12800000 	mov	w0, #0xffffffff            	// #-1
   86158:	79006fa0 	strh	w0, [x29, #54]
   8615c:	f94017a0 	ldr	x0, [x29, #40]
   86160:	f100001f 	cmp	x0, #0x0
   86164:	54000061 	b.ne	86170 <CEcoTaskScheduler1Lab_C761620FFactory_Init+0x38>  // b.any
   86168:	12800000 	mov	w0, #0xffffffff            	// #-1
   8616c:	14000008 	b	8618c <CEcoTaskScheduler1Lab_C761620FFactory_Init+0x54>
   86170:	f9401fa0 	ldr	x0, [x29, #56]
   86174:	f9400c02 	ldr	x2, [x0, #24]
   86178:	f94013a1 	ldr	x1, [x29, #32]
   8617c:	f9400fa0 	ldr	x0, [x29, #24]
   86180:	d63f0040 	blr	x2
   86184:	79006fa0 	strh	w0, [x29, #54]
   86188:	79c06fa0 	ldrsh	w0, [x29, #54]
   8618c:	a8c47bfd 	ldp	x29, x30, [sp], #64
   86190:	d65f03c0 	ret

0000000000086194 <CEcoTaskScheduler1Lab_C761620FFactory_Alloc>:
   86194:	a9ba7bfd 	stp	x29, x30, [sp, #-96]!
   86198:	910003fd 	mov	x29, sp
   8619c:	f9001fa0 	str	x0, [x29, #56]
   861a0:	f9001ba1 	str	x1, [x29, #48]
   861a4:	f90017a2 	str	x2, [x29, #40]
   861a8:	f90013a3 	str	x3, [x29, #32]
   861ac:	f9000fa4 	str	x4, [x29, #24]
   861b0:	f9401fa0 	ldr	x0, [x29, #56]
   861b4:	f9002fa0 	str	x0, [x29, #88]
   861b8:	f90027bf 	str	xzr, [x29, #72]
   861bc:	12800000 	mov	w0, #0xffffffff            	// #-1
   861c0:	7900afa0 	strh	w0, [x29, #86]
   861c4:	f9401fa0 	ldr	x0, [x29, #56]
   861c8:	f100001f 	cmp	x0, #0x0
   861cc:	54000061 	b.ne	861d8 <CEcoTaskScheduler1Lab_C761620FFactory_Alloc+0x44>  // b.any
   861d0:	12800000 	mov	w0, #0xffffffff            	// #-1
   861d4:	140000bc 	b	864c4 <CEcoTaskScheduler1Lab_C761620FFactory_Alloc+0x330>
   861d8:	f94017a0 	ldr	x0, [x29, #40]
   861dc:	f100001f 	cmp	x0, #0x0
   861e0:	54001240 	b.eq	86428 <CEcoTaskScheduler1Lab_C761620FFactory_Alloc+0x294>  // b.none
   861e4:	f94013a0 	ldr	x0, [x29, #32]
   861e8:	39400001 	ldrb	w1, [x0]
   861ec:	f0000200 	adrp	x0, c9000 <g_xCEcoStackTask1List_C761620F+0x37e20>
   861f0:	912c0000 	add	x0, x0, #0xb00
   861f4:	39400000 	ldrb	w0, [x0]
   861f8:	6b00003f 	cmp	w1, w0
   861fc:	54001121 	b.ne	86420 <CEcoTaskScheduler1Lab_C761620FFactory_Alloc+0x28c>  // b.any
   86200:	f94013a0 	ldr	x0, [x29, #32]
   86204:	91000400 	add	x0, x0, #0x1
   86208:	39400001 	ldrb	w1, [x0]
   8620c:	f0000200 	adrp	x0, c9000 <g_xCEcoStackTask1List_C761620F+0x37e20>
   86210:	912c0400 	add	x0, x0, #0xb01
   86214:	39400000 	ldrb	w0, [x0]
   86218:	6b00003f 	cmp	w1, w0
   8621c:	54001021 	b.ne	86420 <CEcoTaskScheduler1Lab_C761620FFactory_Alloc+0x28c>  // b.any
   86220:	f94013a0 	ldr	x0, [x29, #32]
   86224:	91000800 	add	x0, x0, #0x2
   86228:	39400001 	ldrb	w1, [x0]
   8622c:	f0000200 	adrp	x0, c9000 <g_xCEcoStackTask1List_C761620F+0x37e20>
   86230:	912c0800 	add	x0, x0, #0xb02
   86234:	39400000 	ldrb	w0, [x0]
   86238:	6b00003f 	cmp	w1, w0
   8623c:	54000f21 	b.ne	86420 <CEcoTaskScheduler1Lab_C761620FFactory_Alloc+0x28c>  // b.any
   86240:	f94013a0 	ldr	x0, [x29, #32]
   86244:	91000c00 	add	x0, x0, #0x3
   86248:	39400001 	ldrb	w1, [x0]
   8624c:	f0000200 	adrp	x0, c9000 <g_xCEcoStackTask1List_C761620F+0x37e20>
   86250:	912c0c00 	add	x0, x0, #0xb03
   86254:	39400000 	ldrb	w0, [x0]
   86258:	6b00003f 	cmp	w1, w0
   8625c:	54000e21 	b.ne	86420 <CEcoTaskScheduler1Lab_C761620FFactory_Alloc+0x28c>  // b.any
   86260:	f94013a0 	ldr	x0, [x29, #32]
   86264:	91001000 	add	x0, x0, #0x4
   86268:	39400001 	ldrb	w1, [x0]
   8626c:	f0000200 	adrp	x0, c9000 <g_xCEcoStackTask1List_C761620F+0x37e20>
   86270:	912c1000 	add	x0, x0, #0xb04
   86274:	39400000 	ldrb	w0, [x0]
   86278:	6b00003f 	cmp	w1, w0
   8627c:	54000d21 	b.ne	86420 <CEcoTaskScheduler1Lab_C761620FFactory_Alloc+0x28c>  // b.any
   86280:	f94013a0 	ldr	x0, [x29, #32]
   86284:	91001400 	add	x0, x0, #0x5
   86288:	39400001 	ldrb	w1, [x0]
   8628c:	f0000200 	adrp	x0, c9000 <g_xCEcoStackTask1List_C761620F+0x37e20>
   86290:	912c1400 	add	x0, x0, #0xb05
   86294:	39400000 	ldrb	w0, [x0]
   86298:	6b00003f 	cmp	w1, w0
   8629c:	54000c21 	b.ne	86420 <CEcoTaskScheduler1Lab_C761620FFactory_Alloc+0x28c>  // b.any
   862a0:	f94013a0 	ldr	x0, [x29, #32]
   862a4:	91001800 	add	x0, x0, #0x6
   862a8:	39400001 	ldrb	w1, [x0]
   862ac:	f0000200 	adrp	x0, c9000 <g_xCEcoStackTask1List_C761620F+0x37e20>
   862b0:	912c1800 	add	x0, x0, #0xb06
   862b4:	39400000 	ldrb	w0, [x0]
   862b8:	6b00003f 	cmp	w1, w0
   862bc:	54000b21 	b.ne	86420 <CEcoTaskScheduler1Lab_C761620FFactory_Alloc+0x28c>  // b.any
   862c0:	f94013a0 	ldr	x0, [x29, #32]
   862c4:	91001c00 	add	x0, x0, #0x7
   862c8:	39400001 	ldrb	w1, [x0]
   862cc:	f0000200 	adrp	x0, c9000 <g_xCEcoStackTask1List_C761620F+0x37e20>
   862d0:	912c1c00 	add	x0, x0, #0xb07
   862d4:	39400000 	ldrb	w0, [x0]
   862d8:	6b00003f 	cmp	w1, w0
   862dc:	54000a21 	b.ne	86420 <CEcoTaskScheduler1Lab_C761620FFactory_Alloc+0x28c>  // b.any
   862e0:	f94013a0 	ldr	x0, [x29, #32]
   862e4:	91002000 	add	x0, x0, #0x8
   862e8:	39400001 	ldrb	w1, [x0]
   862ec:	f0000200 	adrp	x0, c9000 <g_xCEcoStackTask1List_C761620F+0x37e20>
   862f0:	912c2000 	add	x0, x0, #0xb08
   862f4:	39400000 	ldrb	w0, [x0]
   862f8:	6b00003f 	cmp	w1, w0
   862fc:	54000921 	b.ne	86420 <CEcoTaskScheduler1Lab_C761620FFactory_Alloc+0x28c>  // b.any
   86300:	f94013a0 	ldr	x0, [x29, #32]
   86304:	91002400 	add	x0, x0, #0x9
   86308:	39400001 	ldrb	w1, [x0]
   8630c:	f0000200 	adrp	x0, c9000 <g_xCEcoStackTask1List_C761620F+0x37e20>
   86310:	912c2400 	add	x0, x0, #0xb09
   86314:	39400000 	ldrb	w0, [x0]
   86318:	6b00003f 	cmp	w1, w0
   8631c:	54000821 	b.ne	86420 <CEcoTaskScheduler1Lab_C761620FFactory_Alloc+0x28c>  // b.any
   86320:	f94013a0 	ldr	x0, [x29, #32]
   86324:	91002800 	add	x0, x0, #0xa
   86328:	39400001 	ldrb	w1, [x0]
   8632c:	f0000200 	adrp	x0, c9000 <g_xCEcoStackTask1List_C761620F+0x37e20>
   86330:	912c2800 	add	x0, x0, #0xb0a
   86334:	39400000 	ldrb	w0, [x0]
   86338:	6b00003f 	cmp	w1, w0
   8633c:	54000721 	b.ne	86420 <CEcoTaskScheduler1Lab_C761620FFactory_Alloc+0x28c>  // b.any
   86340:	f94013a0 	ldr	x0, [x29, #32]
   86344:	91002c00 	add	x0, x0, #0xb
   86348:	39400001 	ldrb	w1, [x0]
   8634c:	f0000200 	adrp	x0, c9000 <g_xCEcoStackTask1List_C761620F+0x37e20>
   86350:	912c2c00 	add	x0, x0, #0xb0b
   86354:	39400000 	ldrb	w0, [x0]
   86358:	6b00003f 	cmp	w1, w0
   8635c:	54000621 	b.ne	86420 <CEcoTaskScheduler1Lab_C761620FFactory_Alloc+0x28c>  // b.any
   86360:	f94013a0 	ldr	x0, [x29, #32]
   86364:	91003000 	add	x0, x0, #0xc
   86368:	39400001 	ldrb	w1, [x0]
   8636c:	f0000200 	adrp	x0, c9000 <g_xCEcoStackTask1List_C761620F+0x37e20>
   86370:	912c3000 	add	x0, x0, #0xb0c
   86374:	39400000 	ldrb	w0, [x0]
   86378:	6b00003f 	cmp	w1, w0
   8637c:	54000521 	b.ne	86420 <CEcoTaskScheduler1Lab_C761620FFactory_Alloc+0x28c>  // b.any
   86380:	f94013a0 	ldr	x0, [x29, #32]
   86384:	91003400 	add	x0, x0, #0xd
   86388:	39400001 	ldrb	w1, [x0]
   8638c:	f0000200 	adrp	x0, c9000 <g_xCEcoStackTask1List_C761620F+0x37e20>
   86390:	912c3400 	add	x0, x0, #0xb0d
   86394:	39400000 	ldrb	w0, [x0]
   86398:	6b00003f 	cmp	w1, w0
   8639c:	54000421 	b.ne	86420 <CEcoTaskScheduler1Lab_C761620FFactory_Alloc+0x28c>  // b.any
   863a0:	f94013a0 	ldr	x0, [x29, #32]
   863a4:	91003800 	add	x0, x0, #0xe
   863a8:	39400001 	ldrb	w1, [x0]
   863ac:	f0000200 	adrp	x0, c9000 <g_xCEcoStackTask1List_C761620F+0x37e20>
   863b0:	912c3800 	add	x0, x0, #0xb0e
   863b4:	39400000 	ldrb	w0, [x0]
   863b8:	6b00003f 	cmp	w1, w0
   863bc:	54000321 	b.ne	86420 <CEcoTaskScheduler1Lab_C761620FFactory_Alloc+0x28c>  // b.any
   863c0:	f94013a0 	ldr	x0, [x29, #32]
   863c4:	91003c00 	add	x0, x0, #0xf
   863c8:	39400001 	ldrb	w1, [x0]
   863cc:	f0000200 	adrp	x0, c9000 <g_xCEcoStackTask1List_C761620F+0x37e20>
   863d0:	912c3c00 	add	x0, x0, #0xb0f
   863d4:	39400000 	ldrb	w0, [x0]
   863d8:	6b00003f 	cmp	w1, w0
   863dc:	54000221 	b.ne	86420 <CEcoTaskScheduler1Lab_C761620FFactory_Alloc+0x28c>  // b.any
   863e0:	f94013a0 	ldr	x0, [x29, #32]
   863e4:	91004000 	add	x0, x0, #0x10
   863e8:	39400001 	ldrb	w1, [x0]
   863ec:	f0000200 	adrp	x0, c9000 <g_xCEcoStackTask1List_C761620F+0x37e20>
   863f0:	912c4000 	add	x0, x0, #0xb10
   863f4:	39400000 	ldrb	w0, [x0]
   863f8:	6b00003f 	cmp	w1, w0
   863fc:	54000121 	b.ne	86420 <CEcoTaskScheduler1Lab_C761620FFactory_Alloc+0x28c>  // b.any
   86400:	f94013a0 	ldr	x0, [x29, #32]
   86404:	91004400 	add	x0, x0, #0x11
   86408:	39400001 	ldrb	w1, [x0]
   8640c:	f0000200 	adrp	x0, c9000 <g_xCEcoStackTask1List_C761620F+0x37e20>
   86410:	912c4400 	add	x0, x0, #0xb11
   86414:	39400000 	ldrb	w0, [x0]
   86418:	6b00003f 	cmp	w1, w0
   8641c:	54000060 	b.eq	86428 <CEcoTaskScheduler1Lab_C761620FFactory_Alloc+0x294>  // b.none
   86420:	12800000 	mov	w0, #0xffffffff            	// #-1
   86424:	14000028 	b	864c4 <CEcoTaskScheduler1Lab_C761620FFactory_Alloc+0x330>
   86428:	f9402fa0 	ldr	x0, [x29, #88]
   8642c:	f9400803 	ldr	x3, [x0, #16]
   86430:	910123a0 	add	x0, x29, #0x48
   86434:	aa0003e2 	mov	x2, x0
   86438:	f94017a1 	ldr	x1, [x29, #40]
   8643c:	f9401ba0 	ldr	x0, [x29, #48]
   86440:	d63f0060 	blr	x3
   86444:	7900afa0 	strh	w0, [x29, #86]
   86448:	79c0afa0 	ldrsh	w0, [x29, #86]
   8644c:	7100001f 	cmp	w0, #0x0
   86450:	54000081 	b.ne	86460 <CEcoTaskScheduler1Lab_C761620FFactory_Alloc+0x2cc>  // b.any
   86454:	f94027a0 	ldr	x0, [x29, #72]
   86458:	f100001f 	cmp	x0, #0x0
   8645c:	54000061 	b.ne	86468 <CEcoTaskScheduler1Lab_C761620FFactory_Alloc+0x2d4>  // b.any
   86460:	12800000 	mov	w0, #0xffffffff            	// #-1
   86464:	14000018 	b	864c4 <CEcoTaskScheduler1Lab_C761620FFactory_Alloc+0x330>
   86468:	f9401fa0 	ldr	x0, [x29, #56]
   8646c:	f9400000 	ldr	x0, [x0]
   86470:	f9401003 	ldr	x3, [x0, #32]
   86474:	f94027a0 	ldr	x0, [x29, #72]
   86478:	aa0003e2 	mov	x2, x0
   8647c:	f9401ba1 	ldr	x1, [x29, #48]
   86480:	f9401fa0 	ldr	x0, [x29, #56]
   86484:	d63f0060 	blr	x3
   86488:	7900afa0 	strh	w0, [x29, #86]
   8648c:	f94027a0 	ldr	x0, [x29, #72]
   86490:	f9400000 	ldr	x0, [x0]
   86494:	f9400003 	ldr	x3, [x0]
   86498:	f94027a0 	ldr	x0, [x29, #72]
   8649c:	f9400fa2 	ldr	x2, [x29, #24]
   864a0:	f94013a1 	ldr	x1, [x29, #32]
   864a4:	d63f0060 	blr	x3
   864a8:	7900afa0 	strh	w0, [x29, #86]
   864ac:	f94027a0 	ldr	x0, [x29, #72]
   864b0:	f9400000 	ldr	x0, [x0]
   864b4:	f9400801 	ldr	x1, [x0, #16]
   864b8:	f94027a0 	ldr	x0, [x29, #72]
   864bc:	d63f0020 	blr	x1
   864c0:	79c0afa0 	ldrsh	w0, [x29, #86]
   864c4:	a8c67bfd 	ldp	x29, x30, [sp], #96
   864c8:	d65f03c0 	ret

00000000000864cc <CEcoTaskScheduler1Lab_C761620FFactory_get_Name>:
   864cc:	d10083ff 	sub	sp, sp, #0x20
   864d0:	f90007e0 	str	x0, [sp, #8]
   864d4:	f94007e0 	ldr	x0, [sp, #8]
   864d8:	f9000fe0 	str	x0, [sp, #24]
   864dc:	f94007e0 	ldr	x0, [sp, #8]
   864e0:	f100001f 	cmp	x0, #0x0
   864e4:	54000061 	b.ne	864f0 <CEcoTaskScheduler1Lab_C761620FFactory_get_Name+0x24>  // b.any
   864e8:	d2800000 	mov	x0, #0x0                   	// #0
   864ec:	14000003 	b	864f8 <CEcoTaskScheduler1Lab_C761620FFactory_get_Name+0x2c>
   864f0:	f9400fe0 	ldr	x0, [sp, #24]
   864f4:	91008000 	add	x0, x0, #0x20
   864f8:	910083ff 	add	sp, sp, #0x20
   864fc:	d65f03c0 	ret

0000000000086500 <CEcoTaskScheduler1Lab_C761620FFactory_get_Version>:
   86500:	d10083ff 	sub	sp, sp, #0x20
   86504:	f90007e0 	str	x0, [sp, #8]
   86508:	f94007e0 	ldr	x0, [sp, #8]
   8650c:	f9000fe0 	str	x0, [sp, #24]
   86510:	f94007e0 	ldr	x0, [sp, #8]
   86514:	f100001f 	cmp	x0, #0x0
   86518:	54000061 	b.ne	86524 <CEcoTaskScheduler1Lab_C761620FFactory_get_Version+0x24>  // b.any
   8651c:	d2800000 	mov	x0, #0x0                   	// #0
   86520:	14000003 	b	8652c <CEcoTaskScheduler1Lab_C761620FFactory_get_Version+0x2c>
   86524:	f9400fe0 	ldr	x0, [sp, #24]
   86528:	91018000 	add	x0, x0, #0x60
   8652c:	910083ff 	add	sp, sp, #0x20
   86530:	d65f03c0 	ret

0000000000086534 <CEcoTaskScheduler1Lab_C761620FFactory_get_Manufacturer>:
   86534:	d10083ff 	sub	sp, sp, #0x20
   86538:	f90007e0 	str	x0, [sp, #8]
   8653c:	f94007e0 	ldr	x0, [sp, #8]
   86540:	f9000fe0 	str	x0, [sp, #24]
   86544:	f94007e0 	ldr	x0, [sp, #8]
   86548:	f100001f 	cmp	x0, #0x0
   8654c:	54000061 	b.ne	86558 <CEcoTaskScheduler1Lab_C761620FFactory_get_Manufacturer+0x24>  // b.any
   86550:	d2800000 	mov	x0, #0x0                   	// #0
   86554:	14000003 	b	86560 <CEcoTaskScheduler1Lab_C761620FFactory_get_Manufacturer+0x2c>
   86558:	f9400fe0 	ldr	x0, [sp, #24]
   8655c:	9101c000 	add	x0, x0, #0x70
   86560:	910083ff 	add	sp, sp, #0x20
   86564:	d65f03c0 	ret

0000000000086568 <CEcoTaskScheduler1Lab_C761620F_TaskSwitchContext>:
   86568:	a9bf7bfd 	stp	x29, x30, [sp, #-16]!
   8656c:	910003fd 	mov	x29, sp
   86570:	f0000200 	adrp	x0, c9000 <g_xCEcoStackTask1List_C761620F+0x37e20>
   86574:	9107a000 	add	x0, x0, #0x1e8
   86578:	f9400000 	ldr	x0, [x0]
   8657c:	91000401 	add	x1, x0, #0x1
   86580:	f0000200 	adrp	x0, c9000 <g_xCEcoStackTask1List_C761620F+0x37e20>
   86584:	9107a000 	add	x0, x0, #0x1e8
   86588:	f9000001 	str	x1, [x0]
   8658c:	f0000200 	adrp	x0, c9000 <g_xCEcoStackTask1List_C761620F+0x37e20>
   86590:	9107a000 	add	x0, x0, #0x1e8
   86594:	f9400000 	ldr	x0, [x0]
   86598:	f100041f 	cmp	x0, #0x1
   8659c:	54000089 	b.ls	865ac <CEcoTaskScheduler1Lab_C761620F_TaskSwitchContext+0x44>  // b.plast
   865a0:	f0000200 	adrp	x0, c9000 <g_xCEcoStackTask1List_C761620F+0x37e20>
   865a4:	9107a000 	add	x0, x0, #0x1e8
   865a8:	f900001f 	str	xzr, [x0]
   865ac:	f0000200 	adrp	x0, c9000 <g_xCEcoStackTask1List_C761620F+0x37e20>
   865b0:	9107a000 	add	x0, x0, #0x1e8
   865b4:	f9400002 	ldr	x2, [x0]
   865b8:	f0000040 	adrp	x0, 91000 <g_pIVFB>
   865bc:	91032001 	add	x1, x0, #0xc8
   865c0:	d2800500 	mov	x0, #0x28                  	// #40
   865c4:	9b007c40 	mul	x0, x2, x0
   865c8:	8b000020 	add	x0, x1, x0
   865cc:	f9400c00 	ldr	x0, [x0, #24]
   865d0:	d63f0000 	blr	x0
   865d4:	d503201f 	nop
   865d8:	a8c17bfd 	ldp	x29, x30, [sp], #16
   865dc:	d65f03c0 	ret

00000000000865e0 <CEcoTaskScheduler1Lab_C761620F_TimerHandler>:
   865e0:	97ffffe2 	bl	86568 <CEcoTaskScheduler1Lab_C761620F_TaskSwitchContext>
   865e4:	d503201f 	nop
   865e8:	d65f03c0 	ret

00000000000865ec <CEcoTaskScheduler1Lab_C761620F_QueryInterface>:
   865ec:	a9bc7bfd 	stp	x29, x30, [sp, #-64]!
   865f0:	910003fd 	mov	x29, sp
   865f4:	f90017a0 	str	x0, [x29, #40]
   865f8:	f90013a1 	str	x1, [x29, #32]
   865fc:	f9000fa2 	str	x2, [x29, #24]
   86600:	f94017a0 	ldr	x0, [x29, #40]
   86604:	f9001fa0 	str	x0, [x29, #56]
   86608:	f94017a0 	ldr	x0, [x29, #40]
   8660c:	f100001f 	cmp	x0, #0x0
   86610:	54000080 	b.eq	86620 <CEcoTaskScheduler1Lab_C761620F_QueryInterface+0x34>  // b.none
   86614:	f9400fa0 	ldr	x0, [x29, #24]
   86618:	f100001f 	cmp	x0, #0x0
   8661c:	54000061 	b.ne	86628 <CEcoTaskScheduler1Lab_C761620F_QueryInterface+0x3c>  // b.any
   86620:	12800000 	mov	w0, #0xffffffff            	// #-1
   86624:	14000136 	b	86afc <CEcoTaskScheduler1Lab_C761620F_QueryInterface+0x510>
   86628:	f94013a0 	ldr	x0, [x29, #32]
   8662c:	39400001 	ldrb	w1, [x0]
   86630:	f0000200 	adrp	x0, c9000 <g_xCEcoStackTask1List_C761620F+0x37e20>
   86634:	9132c000 	add	x0, x0, #0xcb0
   86638:	39400000 	ldrb	w0, [x0]
   8663c:	6b00003f 	cmp	w1, w0
   86640:	54001241 	b.ne	86888 <CEcoTaskScheduler1Lab_C761620F_QueryInterface+0x29c>  // b.any
   86644:	f94013a0 	ldr	x0, [x29, #32]
   86648:	91000400 	add	x0, x0, #0x1
   8664c:	39400001 	ldrb	w1, [x0]
   86650:	f0000200 	adrp	x0, c9000 <g_xCEcoStackTask1List_C761620F+0x37e20>
   86654:	9132c400 	add	x0, x0, #0xcb1
   86658:	39400000 	ldrb	w0, [x0]
   8665c:	6b00003f 	cmp	w1, w0
   86660:	54001141 	b.ne	86888 <CEcoTaskScheduler1Lab_C761620F_QueryInterface+0x29c>  // b.any
   86664:	f94013a0 	ldr	x0, [x29, #32]
   86668:	91000800 	add	x0, x0, #0x2
   8666c:	39400001 	ldrb	w1, [x0]
   86670:	f0000200 	adrp	x0, c9000 <g_xCEcoStackTask1List_C761620F+0x37e20>
   86674:	9132c800 	add	x0, x0, #0xcb2
   86678:	39400000 	ldrb	w0, [x0]
   8667c:	6b00003f 	cmp	w1, w0
   86680:	54001041 	b.ne	86888 <CEcoTaskScheduler1Lab_C761620F_QueryInterface+0x29c>  // b.any
   86684:	f94013a0 	ldr	x0, [x29, #32]
   86688:	91000c00 	add	x0, x0, #0x3
   8668c:	39400001 	ldrb	w1, [x0]
   86690:	f0000200 	adrp	x0, c9000 <g_xCEcoStackTask1List_C761620F+0x37e20>
   86694:	9132cc00 	add	x0, x0, #0xcb3
   86698:	39400000 	ldrb	w0, [x0]
   8669c:	6b00003f 	cmp	w1, w0
   866a0:	54000f41 	b.ne	86888 <CEcoTaskScheduler1Lab_C761620F_QueryInterface+0x29c>  // b.any
   866a4:	f94013a0 	ldr	x0, [x29, #32]
   866a8:	91001000 	add	x0, x0, #0x4
   866ac:	39400001 	ldrb	w1, [x0]
   866b0:	f0000200 	adrp	x0, c9000 <g_xCEcoStackTask1List_C761620F+0x37e20>
   866b4:	9132d000 	add	x0, x0, #0xcb4
   866b8:	39400000 	ldrb	w0, [x0]
   866bc:	6b00003f 	cmp	w1, w0
   866c0:	54000e41 	b.ne	86888 <CEcoTaskScheduler1Lab_C761620F_QueryInterface+0x29c>  // b.any
   866c4:	f94013a0 	ldr	x0, [x29, #32]
   866c8:	91001400 	add	x0, x0, #0x5
   866cc:	39400001 	ldrb	w1, [x0]
   866d0:	f0000200 	adrp	x0, c9000 <g_xCEcoStackTask1List_C761620F+0x37e20>
   866d4:	9132d400 	add	x0, x0, #0xcb5
   866d8:	39400000 	ldrb	w0, [x0]
   866dc:	6b00003f 	cmp	w1, w0
   866e0:	54000d41 	b.ne	86888 <CEcoTaskScheduler1Lab_C761620F_QueryInterface+0x29c>  // b.any
   866e4:	f94013a0 	ldr	x0, [x29, #32]
   866e8:	91001800 	add	x0, x0, #0x6
   866ec:	39400001 	ldrb	w1, [x0]
   866f0:	f0000200 	adrp	x0, c9000 <g_xCEcoStackTask1List_C761620F+0x37e20>
   866f4:	9132d800 	add	x0, x0, #0xcb6
   866f8:	39400000 	ldrb	w0, [x0]
   866fc:	6b00003f 	cmp	w1, w0
   86700:	54000c41 	b.ne	86888 <CEcoTaskScheduler1Lab_C761620F_QueryInterface+0x29c>  // b.any
   86704:	f94013a0 	ldr	x0, [x29, #32]
   86708:	91001c00 	add	x0, x0, #0x7
   8670c:	39400001 	ldrb	w1, [x0]
   86710:	f0000200 	adrp	x0, c9000 <g_xCEcoStackTask1List_C761620F+0x37e20>
   86714:	9132dc00 	add	x0, x0, #0xcb7
   86718:	39400000 	ldrb	w0, [x0]
   8671c:	6b00003f 	cmp	w1, w0
   86720:	54000b41 	b.ne	86888 <CEcoTaskScheduler1Lab_C761620F_QueryInterface+0x29c>  // b.any
   86724:	f94013a0 	ldr	x0, [x29, #32]
   86728:	91002000 	add	x0, x0, #0x8
   8672c:	39400001 	ldrb	w1, [x0]
   86730:	f0000200 	adrp	x0, c9000 <g_xCEcoStackTask1List_C761620F+0x37e20>
   86734:	9132e000 	add	x0, x0, #0xcb8
   86738:	39400000 	ldrb	w0, [x0]
   8673c:	6b00003f 	cmp	w1, w0
   86740:	54000a41 	b.ne	86888 <CEcoTaskScheduler1Lab_C761620F_QueryInterface+0x29c>  // b.any
   86744:	f94013a0 	ldr	x0, [x29, #32]
   86748:	91002400 	add	x0, x0, #0x9
   8674c:	39400001 	ldrb	w1, [x0]
   86750:	f0000200 	adrp	x0, c9000 <g_xCEcoStackTask1List_C761620F+0x37e20>
   86754:	9132e400 	add	x0, x0, #0xcb9
   86758:	39400000 	ldrb	w0, [x0]
   8675c:	6b00003f 	cmp	w1, w0
   86760:	54000941 	b.ne	86888 <CEcoTaskScheduler1Lab_C761620F_QueryInterface+0x29c>  // b.any
   86764:	f94013a0 	ldr	x0, [x29, #32]
   86768:	91002800 	add	x0, x0, #0xa
   8676c:	39400001 	ldrb	w1, [x0]
   86770:	f0000200 	adrp	x0, c9000 <g_xCEcoStackTask1List_C761620F+0x37e20>
   86774:	9132e800 	add	x0, x0, #0xcba
   86778:	39400000 	ldrb	w0, [x0]
   8677c:	6b00003f 	cmp	w1, w0
   86780:	54000841 	b.ne	86888 <CEcoTaskScheduler1Lab_C761620F_QueryInterface+0x29c>  // b.any
   86784:	f94013a0 	ldr	x0, [x29, #32]
   86788:	91002c00 	add	x0, x0, #0xb
   8678c:	39400001 	ldrb	w1, [x0]
   86790:	f0000200 	adrp	x0, c9000 <g_xCEcoStackTask1List_C761620F+0x37e20>
   86794:	9132ec00 	add	x0, x0, #0xcbb
   86798:	39400000 	ldrb	w0, [x0]
   8679c:	6b00003f 	cmp	w1, w0
   867a0:	54000741 	b.ne	86888 <CEcoTaskScheduler1Lab_C761620F_QueryInterface+0x29c>  // b.any
   867a4:	f94013a0 	ldr	x0, [x29, #32]
   867a8:	91003000 	add	x0, x0, #0xc
   867ac:	39400001 	ldrb	w1, [x0]
   867b0:	f0000200 	adrp	x0, c9000 <g_xCEcoStackTask1List_C761620F+0x37e20>
   867b4:	9132f000 	add	x0, x0, #0xcbc
   867b8:	39400000 	ldrb	w0, [x0]
   867bc:	6b00003f 	cmp	w1, w0
   867c0:	54000641 	b.ne	86888 <CEcoTaskScheduler1Lab_C761620F_QueryInterface+0x29c>  // b.any
   867c4:	f94013a0 	ldr	x0, [x29, #32]
   867c8:	91003400 	add	x0, x0, #0xd
   867cc:	39400001 	ldrb	w1, [x0]
   867d0:	f0000200 	adrp	x0, c9000 <g_xCEcoStackTask1List_C761620F+0x37e20>
   867d4:	9132f400 	add	x0, x0, #0xcbd
   867d8:	39400000 	ldrb	w0, [x0]
   867dc:	6b00003f 	cmp	w1, w0
   867e0:	54000541 	b.ne	86888 <CEcoTaskScheduler1Lab_C761620F_QueryInterface+0x29c>  // b.any
   867e4:	f94013a0 	ldr	x0, [x29, #32]
   867e8:	91003800 	add	x0, x0, #0xe
   867ec:	39400001 	ldrb	w1, [x0]
   867f0:	f0000200 	adrp	x0, c9000 <g_xCEcoStackTask1List_C761620F+0x37e20>
   867f4:	9132f800 	add	x0, x0, #0xcbe
   867f8:	39400000 	ldrb	w0, [x0]
   867fc:	6b00003f 	cmp	w1, w0
   86800:	54000441 	b.ne	86888 <CEcoTaskScheduler1Lab_C761620F_QueryInterface+0x29c>  // b.any
   86804:	f94013a0 	ldr	x0, [x29, #32]
   86808:	91003c00 	add	x0, x0, #0xf
   8680c:	39400001 	ldrb	w1, [x0]
   86810:	f0000200 	adrp	x0, c9000 <g_xCEcoStackTask1List_C761620F+0x37e20>
   86814:	9132fc00 	add	x0, x0, #0xcbf
   86818:	39400000 	ldrb	w0, [x0]
   8681c:	6b00003f 	cmp	w1, w0
   86820:	54000341 	b.ne	86888 <CEcoTaskScheduler1Lab_C761620F_QueryInterface+0x29c>  // b.any
   86824:	f94013a0 	ldr	x0, [x29, #32]
   86828:	91004000 	add	x0, x0, #0x10
   8682c:	39400001 	ldrb	w1, [x0]
   86830:	f0000200 	adrp	x0, c9000 <g_xCEcoStackTask1List_C761620F+0x37e20>
   86834:	91330000 	add	x0, x0, #0xcc0
   86838:	39400000 	ldrb	w0, [x0]
   8683c:	6b00003f 	cmp	w1, w0
   86840:	54000241 	b.ne	86888 <CEcoTaskScheduler1Lab_C761620F_QueryInterface+0x29c>  // b.any
   86844:	f94013a0 	ldr	x0, [x29, #32]
   86848:	91004400 	add	x0, x0, #0x11
   8684c:	39400001 	ldrb	w1, [x0]
   86850:	f0000200 	adrp	x0, c9000 <g_xCEcoStackTask1List_C761620F+0x37e20>
   86854:	91330400 	add	x0, x0, #0xcc1
   86858:	39400000 	ldrb	w0, [x0]
   8685c:	6b00003f 	cmp	w1, w0
   86860:	54000141 	b.ne	86888 <CEcoTaskScheduler1Lab_C761620F_QueryInterface+0x29c>  // b.any
   86864:	f9401fa1 	ldr	x1, [x29, #56]
   86868:	f9400fa0 	ldr	x0, [x29, #24]
   8686c:	f9000001 	str	x1, [x0]
   86870:	f9401fa0 	ldr	x0, [x29, #56]
   86874:	f9400000 	ldr	x0, [x0]
   86878:	f9400401 	ldr	x1, [x0, #8]
   8687c:	f9401fa0 	ldr	x0, [x29, #56]
   86880:	d63f0020 	blr	x1
   86884:	1400009d 	b	86af8 <CEcoTaskScheduler1Lab_C761620F_QueryInterface+0x50c>
   86888:	f94013a0 	ldr	x0, [x29, #32]
   8688c:	39400001 	ldrb	w1, [x0]
   86890:	f0000200 	adrp	x0, c9000 <g_xCEcoStackTask1List_C761620F+0x37e20>
   86894:	91302000 	add	x0, x0, #0xc08
   86898:	39400000 	ldrb	w0, [x0]
   8689c:	6b00003f 	cmp	w1, w0
   868a0:	54001241 	b.ne	86ae8 <CEcoTaskScheduler1Lab_C761620F_QueryInterface+0x4fc>  // b.any
   868a4:	f94013a0 	ldr	x0, [x29, #32]
   868a8:	91000400 	add	x0, x0, #0x1
   868ac:	39400001 	ldrb	w1, [x0]
   868b0:	f0000200 	adrp	x0, c9000 <g_xCEcoStackTask1List_C761620F+0x37e20>
   868b4:	91302400 	add	x0, x0, #0xc09
   868b8:	39400000 	ldrb	w0, [x0]
   868bc:	6b00003f 	cmp	w1, w0
   868c0:	54001141 	b.ne	86ae8 <CEcoTaskScheduler1Lab_C761620F_QueryInterface+0x4fc>  // b.any
   868c4:	f94013a0 	ldr	x0, [x29, #32]
   868c8:	91000800 	add	x0, x0, #0x2
   868cc:	39400001 	ldrb	w1, [x0]
   868d0:	f0000200 	adrp	x0, c9000 <g_xCEcoStackTask1List_C761620F+0x37e20>
   868d4:	91302800 	add	x0, x0, #0xc0a
   868d8:	39400000 	ldrb	w0, [x0]
   868dc:	6b00003f 	cmp	w1, w0
   868e0:	54001041 	b.ne	86ae8 <CEcoTaskScheduler1Lab_C761620F_QueryInterface+0x4fc>  // b.any
   868e4:	f94013a0 	ldr	x0, [x29, #32]
   868e8:	91000c00 	add	x0, x0, #0x3
   868ec:	39400001 	ldrb	w1, [x0]
   868f0:	f0000200 	adrp	x0, c9000 <g_xCEcoStackTask1List_C761620F+0x37e20>
   868f4:	91302c00 	add	x0, x0, #0xc0b
   868f8:	39400000 	ldrb	w0, [x0]
   868fc:	6b00003f 	cmp	w1, w0
   86900:	54000f41 	b.ne	86ae8 <CEcoTaskScheduler1Lab_C761620F_QueryInterface+0x4fc>  // b.any
   86904:	f94013a0 	ldr	x0, [x29, #32]
   86908:	91001000 	add	x0, x0, #0x4
   8690c:	39400001 	ldrb	w1, [x0]
   86910:	f0000200 	adrp	x0, c9000 <g_xCEcoStackTask1List_C761620F+0x37e20>
   86914:	91303000 	add	x0, x0, #0xc0c
   86918:	39400000 	ldrb	w0, [x0]
   8691c:	6b00003f 	cmp	w1, w0
   86920:	54000e41 	b.ne	86ae8 <CEcoTaskScheduler1Lab_C761620F_QueryInterface+0x4fc>  // b.any
   86924:	f94013a0 	ldr	x0, [x29, #32]
   86928:	91001400 	add	x0, x0, #0x5
   8692c:	39400001 	ldrb	w1, [x0]
   86930:	f0000200 	adrp	x0, c9000 <g_xCEcoStackTask1List_C761620F+0x37e20>
   86934:	91303400 	add	x0, x0, #0xc0d
   86938:	39400000 	ldrb	w0, [x0]
   8693c:	6b00003f 	cmp	w1, w0
   86940:	54000d41 	b.ne	86ae8 <CEcoTaskScheduler1Lab_C761620F_QueryInterface+0x4fc>  // b.any
   86944:	f94013a0 	ldr	x0, [x29, #32]
   86948:	91001800 	add	x0, x0, #0x6
   8694c:	39400001 	ldrb	w1, [x0]
   86950:	f0000200 	adrp	x0, c9000 <g_xCEcoStackTask1List_C761620F+0x37e20>
   86954:	91303800 	add	x0, x0, #0xc0e
   86958:	39400000 	ldrb	w0, [x0]
   8695c:	6b00003f 	cmp	w1, w0
   86960:	54000c41 	b.ne	86ae8 <CEcoTaskScheduler1Lab_C761620F_QueryInterface+0x4fc>  // b.any
   86964:	f94013a0 	ldr	x0, [x29, #32]
   86968:	91001c00 	add	x0, x0, #0x7
   8696c:	39400001 	ldrb	w1, [x0]
   86970:	f0000200 	adrp	x0, c9000 <g_xCEcoStackTask1List_C761620F+0x37e20>
   86974:	91303c00 	add	x0, x0, #0xc0f
   86978:	39400000 	ldrb	w0, [x0]
   8697c:	6b00003f 	cmp	w1, w0
   86980:	54000b41 	b.ne	86ae8 <CEcoTaskScheduler1Lab_C761620F_QueryInterface+0x4fc>  // b.any
   86984:	f94013a0 	ldr	x0, [x29, #32]
   86988:	91002000 	add	x0, x0, #0x8
   8698c:	39400001 	ldrb	w1, [x0]
   86990:	f0000200 	adrp	x0, c9000 <g_xCEcoStackTask1List_C761620F+0x37e20>
   86994:	91304000 	add	x0, x0, #0xc10
   86998:	39400000 	ldrb	w0, [x0]
   8699c:	6b00003f 	cmp	w1, w0
   869a0:	54000a41 	b.ne	86ae8 <CEcoTaskScheduler1Lab_C761620F_QueryInterface+0x4fc>  // b.any
   869a4:	f94013a0 	ldr	x0, [x29, #32]
   869a8:	91002400 	add	x0, x0, #0x9
   869ac:	39400001 	ldrb	w1, [x0]
   869b0:	f0000200 	adrp	x0, c9000 <g_xCEcoStackTask1List_C761620F+0x37e20>
   869b4:	91304400 	add	x0, x0, #0xc11
   869b8:	39400000 	ldrb	w0, [x0]
   869bc:	6b00003f 	cmp	w1, w0
   869c0:	54000941 	b.ne	86ae8 <CEcoTaskScheduler1Lab_C761620F_QueryInterface+0x4fc>  // b.any
   869c4:	f94013a0 	ldr	x0, [x29, #32]
   869c8:	91002800 	add	x0, x0, #0xa
   869cc:	39400001 	ldrb	w1, [x0]
   869d0:	f0000200 	adrp	x0, c9000 <g_xCEcoStackTask1List_C761620F+0x37e20>
   869d4:	91304800 	add	x0, x0, #0xc12
   869d8:	39400000 	ldrb	w0, [x0]
   869dc:	6b00003f 	cmp	w1, w0
   869e0:	54000841 	b.ne	86ae8 <CEcoTaskScheduler1Lab_C761620F_QueryInterface+0x4fc>  // b.any
   869e4:	f94013a0 	ldr	x0, [x29, #32]
   869e8:	91002c00 	add	x0, x0, #0xb
   869ec:	39400001 	ldrb	w1, [x0]
   869f0:	f0000200 	adrp	x0, c9000 <g_xCEcoStackTask1List_C761620F+0x37e20>
   869f4:	91304c00 	add	x0, x0, #0xc13
   869f8:	39400000 	ldrb	w0, [x0]
   869fc:	6b00003f 	cmp	w1, w0
   86a00:	54000741 	b.ne	86ae8 <CEcoTaskScheduler1Lab_C761620F_QueryInterface+0x4fc>  // b.any
   86a04:	f94013a0 	ldr	x0, [x29, #32]
   86a08:	91003000 	add	x0, x0, #0xc
   86a0c:	39400001 	ldrb	w1, [x0]
   86a10:	f0000200 	adrp	x0, c9000 <g_xCEcoStackTask1List_C761620F+0x37e20>
   86a14:	91305000 	add	x0, x0, #0xc14
   86a18:	39400000 	ldrb	w0, [x0]
   86a1c:	6b00003f 	cmp	w1, w0
   86a20:	54000641 	b.ne	86ae8 <CEcoTaskScheduler1Lab_C761620F_QueryInterface+0x4fc>  // b.any
   86a24:	f94013a0 	ldr	x0, [x29, #32]
   86a28:	91003400 	add	x0, x0, #0xd
   86a2c:	39400001 	ldrb	w1, [x0]
   86a30:	f0000200 	adrp	x0, c9000 <g_xCEcoStackTask1List_C761620F+0x37e20>
   86a34:	91305400 	add	x0, x0, #0xc15
   86a38:	39400000 	ldrb	w0, [x0]
   86a3c:	6b00003f 	cmp	w1, w0
   86a40:	54000541 	b.ne	86ae8 <CEcoTaskScheduler1Lab_C761620F_QueryInterface+0x4fc>  // b.any
   86a44:	f94013a0 	ldr	x0, [x29, #32]
   86a48:	91003800 	add	x0, x0, #0xe
   86a4c:	39400001 	ldrb	w1, [x0]
   86a50:	f0000200 	adrp	x0, c9000 <g_xCEcoStackTask1List_C761620F+0x37e20>
   86a54:	91305800 	add	x0, x0, #0xc16
   86a58:	39400000 	ldrb	w0, [x0]
   86a5c:	6b00003f 	cmp	w1, w0
   86a60:	54000441 	b.ne	86ae8 <CEcoTaskScheduler1Lab_C761620F_QueryInterface+0x4fc>  // b.any
   86a64:	f94013a0 	ldr	x0, [x29, #32]
   86a68:	91003c00 	add	x0, x0, #0xf
   86a6c:	39400001 	ldrb	w1, [x0]
   86a70:	f0000200 	adrp	x0, c9000 <g_xCEcoStackTask1List_C761620F+0x37e20>
   86a74:	91305c00 	add	x0, x0, #0xc17
   86a78:	39400000 	ldrb	w0, [x0]
   86a7c:	6b00003f 	cmp	w1, w0
   86a80:	54000341 	b.ne	86ae8 <CEcoTaskScheduler1Lab_C761620F_QueryInterface+0x4fc>  // b.any
   86a84:	f94013a0 	ldr	x0, [x29, #32]
   86a88:	91004000 	add	x0, x0, #0x10
   86a8c:	39400001 	ldrb	w1, [x0]
   86a90:	f0000200 	adrp	x0, c9000 <g_xCEcoStackTask1List_C761620F+0x37e20>
   86a94:	91306000 	add	x0, x0, #0xc18
   86a98:	39400000 	ldrb	w0, [x0]
   86a9c:	6b00003f 	cmp	w1, w0
   86aa0:	54000241 	b.ne	86ae8 <CEcoTaskScheduler1Lab_C761620F_QueryInterface+0x4fc>  // b.any
   86aa4:	f94013a0 	ldr	x0, [x29, #32]
   86aa8:	91004400 	add	x0, x0, #0x11
   86aac:	39400001 	ldrb	w1, [x0]
   86ab0:	f0000200 	adrp	x0, c9000 <g_xCEcoStackTask1List_C761620F+0x37e20>
   86ab4:	91306400 	add	x0, x0, #0xc19
   86ab8:	39400000 	ldrb	w0, [x0]
   86abc:	6b00003f 	cmp	w1, w0
   86ac0:	54000141 	b.ne	86ae8 <CEcoTaskScheduler1Lab_C761620F_QueryInterface+0x4fc>  // b.any
   86ac4:	f9401fa1 	ldr	x1, [x29, #56]
   86ac8:	f9400fa0 	ldr	x0, [x29, #24]
   86acc:	f9000001 	str	x1, [x0]
   86ad0:	f9401fa0 	ldr	x0, [x29, #56]
   86ad4:	f9400000 	ldr	x0, [x0]
   86ad8:	f9400401 	ldr	x1, [x0, #8]
   86adc:	f9401fa0 	ldr	x0, [x29, #56]
   86ae0:	d63f0020 	blr	x1
   86ae4:	14000005 	b	86af8 <CEcoTaskScheduler1Lab_C761620F_QueryInterface+0x50c>
   86ae8:	f9400fa0 	ldr	x0, [x29, #24]
   86aec:	f900001f 	str	xzr, [x0]
   86af0:	12800000 	mov	w0, #0xffffffff            	// #-1
   86af4:	14000002 	b	86afc <CEcoTaskScheduler1Lab_C761620F_QueryInterface+0x510>
   86af8:	52800000 	mov	w0, #0x0                   	// #0
   86afc:	a8c47bfd 	ldp	x29, x30, [sp], #64
   86b00:	d65f03c0 	ret

0000000000086b04 <CEcoTaskScheduler1Lab_C761620F_AddRef>:
   86b04:	d10083ff 	sub	sp, sp, #0x20
   86b08:	f90007e0 	str	x0, [sp, #8]
   86b0c:	f94007e0 	ldr	x0, [sp, #8]
   86b10:	f9000fe0 	str	x0, [sp, #24]
   86b14:	f94007e0 	ldr	x0, [sp, #8]
   86b18:	f100001f 	cmp	x0, #0x0
   86b1c:	54000061 	b.ne	86b28 <CEcoTaskScheduler1Lab_C761620F_AddRef+0x24>  // b.any
   86b20:	12800000 	mov	w0, #0xffffffff            	// #-1
   86b24:	14000008 	b	86b44 <CEcoTaskScheduler1Lab_C761620F_AddRef+0x40>
   86b28:	f9400fe0 	ldr	x0, [sp, #24]
   86b2c:	b9400800 	ldr	w0, [x0, #8]
   86b30:	11000401 	add	w1, w0, #0x1
   86b34:	f9400fe0 	ldr	x0, [sp, #24]
   86b38:	b9000801 	str	w1, [x0, #8]
   86b3c:	f9400fe0 	ldr	x0, [sp, #24]
   86b40:	b9400800 	ldr	w0, [x0, #8]
   86b44:	910083ff 	add	sp, sp, #0x20
   86b48:	d65f03c0 	ret

0000000000086b4c <CEcoTaskScheduler1Lab_C761620F_Release>:
   86b4c:	a9bd7bfd 	stp	x29, x30, [sp, #-48]!
   86b50:	910003fd 	mov	x29, sp
   86b54:	f9000fa0 	str	x0, [x29, #24]
   86b58:	f9400fa0 	ldr	x0, [x29, #24]
   86b5c:	f90017a0 	str	x0, [x29, #40]
   86b60:	f9400fa0 	ldr	x0, [x29, #24]
   86b64:	f100001f 	cmp	x0, #0x0
   86b68:	54000061 	b.ne	86b74 <CEcoTaskScheduler1Lab_C761620F_Release+0x28>  // b.any
   86b6c:	12800000 	mov	w0, #0xffffffff            	// #-1
   86b70:	14000010 	b	86bb0 <CEcoTaskScheduler1Lab_C761620F_Release+0x64>
   86b74:	f94017a0 	ldr	x0, [x29, #40]
   86b78:	b9400800 	ldr	w0, [x0, #8]
   86b7c:	51000401 	sub	w1, w0, #0x1
   86b80:	f94017a0 	ldr	x0, [x29, #40]
   86b84:	b9000801 	str	w1, [x0, #8]
   86b88:	f94017a0 	ldr	x0, [x29, #40]
   86b8c:	b9400800 	ldr	w0, [x0, #8]
   86b90:	7100001f 	cmp	w0, #0x0
   86b94:	540000a1 	b.ne	86ba8 <CEcoTaskScheduler1Lab_C761620F_Release+0x5c>  // b.any
   86b98:	f94017a0 	ldr	x0, [x29, #40]
   86b9c:	94000197 	bl	871f8 <deleteCEcoTaskScheduler1Lab_C761620F>
   86ba0:	52800000 	mov	w0, #0x0                   	// #0
   86ba4:	14000003 	b	86bb0 <CEcoTaskScheduler1Lab_C761620F_Release+0x64>
   86ba8:	f94017a0 	ldr	x0, [x29, #40]
   86bac:	b9400800 	ldr	w0, [x0, #8]
   86bb0:	a8c37bfd 	ldp	x29, x30, [sp], #48
   86bb4:	d65f03c0 	ret

0000000000086bb8 <CEcoTaskScheduler1Lab_C761620F_Init>:
   86bb8:	d10043ff 	sub	sp, sp, #0x10
   86bbc:	f90007e0 	str	x0, [sp, #8]
   86bc0:	f90003e1 	str	x1, [sp]
   86bc4:	f94007e0 	ldr	x0, [sp, #8]
   86bc8:	f100001f 	cmp	x0, #0x0
   86bcc:	54000080 	b.eq	86bdc <CEcoTaskScheduler1Lab_C761620F_Init+0x24>  // b.none
   86bd0:	f94003e0 	ldr	x0, [sp]
   86bd4:	f100001f 	cmp	x0, #0x0
   86bd8:	54000061 	b.ne	86be4 <CEcoTaskScheduler1Lab_C761620F_Init+0x2c>  // b.any
   86bdc:	12800000 	mov	w0, #0xffffffff            	// #-1
   86be0:	14000002 	b	86be8 <CEcoTaskScheduler1Lab_C761620F_Init+0x30>
   86be4:	52800000 	mov	w0, #0x0                   	// #0
   86be8:	910043ff 	add	sp, sp, #0x10
   86bec:	d65f03c0 	ret

0000000000086bf0 <CEcoTaskScheduler1Lab_C761620F_InitWith>:
   86bf0:	d100c3ff 	sub	sp, sp, #0x30
   86bf4:	f9000fe0 	str	x0, [sp, #24]
   86bf8:	f9000be1 	str	x1, [sp, #16]
   86bfc:	f90007e2 	str	x2, [sp, #8]
   86c00:	b90007e3 	str	w3, [sp, #4]
   86c04:	f9400fe0 	ldr	x0, [sp, #24]
   86c08:	f90017e0 	str	x0, [sp, #40]
   86c0c:	12800000 	mov	w0, #0xffffffff            	// #-1
   86c10:	79004fe0 	strh	w0, [sp, #38]
   86c14:	f9400fe0 	ldr	x0, [sp, #24]
   86c18:	f100001f 	cmp	x0, #0x0
   86c1c:	54000080 	b.eq	86c2c <CEcoTaskScheduler1Lab_C761620F_InitWith+0x3c>  // b.none
   86c20:	f9400be0 	ldr	x0, [sp, #16]
   86c24:	f100001f 	cmp	x0, #0x0
   86c28:	54000061 	b.ne	86c34 <CEcoTaskScheduler1Lab_C761620F_InitWith+0x44>  // b.any
   86c2c:	12800000 	mov	w0, #0xffffffff            	// #-1
   86c30:	14000009 	b	86c54 <CEcoTaskScheduler1Lab_C761620F_InitWith+0x64>
   86c34:	f94017e0 	ldr	x0, [sp, #40]
   86c38:	f0000041 	adrp	x1, 91000 <g_pIVFB>
   86c3c:	91032021 	add	x1, x1, #0xc8
   86c40:	f9001801 	str	x1, [x0, #48]
   86c44:	f94017e0 	ldr	x0, [sp, #40]
   86c48:	f9400be1 	ldr	x1, [sp, #16]
   86c4c:	f9000801 	str	x1, [x0, #16]
   86c50:	52800000 	mov	w0, #0x0                   	// #0
   86c54:	9100c3ff 	add	sp, sp, #0x30
   86c58:	d65f03c0 	ret

0000000000086c5c <CEcoTaskScheduler1Lab_C761620F_NewTask>:
   86c5c:	d10103ff 	sub	sp, sp, #0x40
   86c60:	f90017e0 	str	x0, [sp, #40]
   86c64:	f90013e1 	str	x1, [sp, #32]
   86c68:	f9000fe2 	str	x2, [sp, #24]
   86c6c:	b90017e3 	str	w3, [sp, #20]
   86c70:	f90007e4 	str	x4, [sp, #8]
   86c74:	b9003fff 	str	wzr, [sp, #60]
   86c78:	528003c0 	mov	w0, #0x1e                  	// #30
   86c7c:	b9003be0 	str	w0, [sp, #56]
   86c80:	f9001bff 	str	xzr, [sp, #48]
   86c84:	f94017e0 	ldr	x0, [sp, #40]
   86c88:	f100001f 	cmp	x0, #0x0
   86c8c:	54000061 	b.ne	86c98 <CEcoTaskScheduler1Lab_C761620F_NewTask+0x3c>  // b.any
   86c90:	12800000 	mov	w0, #0xffffffff            	// #-1
   86c94:	14000060 	b	86e14 <CEcoTaskScheduler1Lab_C761620F_NewTask+0x1b8>
   86c98:	b9003fff 	str	wzr, [sp, #60]
   86c9c:	1400005a 	b	86e04 <CEcoTaskScheduler1Lab_C761620F_NewTask+0x1a8>
   86ca0:	f0000040 	adrp	x0, 91000 <g_pIVFB>
   86ca4:	91032001 	add	x1, x0, #0xc8
   86ca8:	b9803fe2 	ldrsw	x2, [sp, #60]
   86cac:	d2800500 	mov	x0, #0x28                  	// #40
   86cb0:	9b007c40 	mul	x0, x2, x0
   86cb4:	8b000020 	add	x0, x1, x0
   86cb8:	f9400c00 	ldr	x0, [x0, #24]
   86cbc:	f100001f 	cmp	x0, #0x0
   86cc0:	540009c1 	b.ne	86df8 <CEcoTaskScheduler1Lab_C761620F_NewTask+0x19c>  // b.any
   86cc4:	f94013e1 	ldr	x1, [sp, #32]
   86cc8:	f0000040 	adrp	x0, 91000 <g_pIVFB>
   86ccc:	91032002 	add	x2, x0, #0xc8
   86cd0:	b9803fe3 	ldrsw	x3, [sp, #60]
   86cd4:	d2800500 	mov	x0, #0x28                  	// #40
   86cd8:	9b007c60 	mul	x0, x3, x0
   86cdc:	8b000040 	add	x0, x2, x0
   86ce0:	f9000c01 	str	x1, [x0, #24]
   86ce4:	f0000040 	adrp	x0, 91000 <g_pIVFB>
   86ce8:	91032001 	add	x1, x0, #0xc8
   86cec:	b9803fe2 	ldrsw	x2, [sp, #60]
   86cf0:	d2800500 	mov	x0, #0x28                  	// #40
   86cf4:	9b007c40 	mul	x0, x2, x0
   86cf8:	8b000020 	add	x0, x1, x0
   86cfc:	52800021 	mov	w1, #0x1                   	// #1
   86d00:	b9000801 	str	w1, [x0, #8]
   86d04:	b9403fe0 	ldr	w0, [sp, #60]
   86d08:	53144c00 	lsl	w0, w0, #12
   86d0c:	93407c00 	sxtw	x0, w0
   86d10:	d37df001 	lsl	x1, x0, #3
   86d14:	f0000040 	adrp	x0, 91000 <g_pIVFB>
   86d18:	91078000 	add	x0, x0, #0x1e0
   86d1c:	8b000021 	add	x1, x1, x0
   86d20:	f0000040 	adrp	x0, 91000 <g_pIVFB>
   86d24:	91032002 	add	x2, x0, #0xc8
   86d28:	b9803fe3 	ldrsw	x3, [sp, #60]
   86d2c:	d2800500 	mov	x0, #0x28                  	// #40
   86d30:	9b007c60 	mul	x0, x3, x0
   86d34:	8b000040 	add	x0, x2, x0
   86d38:	f9000801 	str	x1, [x0, #16]
   86d3c:	f9400fe0 	ldr	x0, [sp, #24]
   86d40:	2a0003e3 	mov	w3, w0
   86d44:	f0000040 	adrp	x0, 91000 <g_pIVFB>
   86d48:	91032001 	add	x1, x0, #0xc8
   86d4c:	b9803fe2 	ldrsw	x2, [sp, #60]
   86d50:	d2800500 	mov	x0, #0x28                  	// #40
   86d54:	9b007c40 	mul	x0, x2, x0
   86d58:	8b000020 	add	x0, x1, x0
   86d5c:	b9002003 	str	w3, [x0, #32]
   86d60:	f0000040 	adrp	x0, 91000 <g_pIVFB>
   86d64:	91032001 	add	x1, x0, #0xc8
   86d68:	b9803fe2 	ldrsw	x2, [sp, #60]
   86d6c:	d2800500 	mov	x0, #0x28                  	// #40
   86d70:	9b007c40 	mul	x0, x2, x0
   86d74:	8b000020 	add	x0, x1, x0
   86d78:	f9400800 	ldr	x0, [x0, #16]
   86d7c:	f9001be0 	str	x0, [sp, #48]
   86d80:	14000007 	b	86d9c <CEcoTaskScheduler1Lab_C761620F_NewTask+0x140>
   86d84:	f9401be0 	ldr	x0, [sp, #48]
   86d88:	d1002000 	sub	x0, x0, #0x8
   86d8c:	f9001be0 	str	x0, [sp, #48]
   86d90:	b9403be0 	ldr	w0, [sp, #56]
   86d94:	51000400 	sub	w0, w0, #0x1
   86d98:	b9003be0 	str	w0, [sp, #56]
   86d9c:	b9403be0 	ldr	w0, [sp, #56]
   86da0:	7100001f 	cmp	w0, #0x0
   86da4:	54ffff0c 	b.gt	86d84 <CEcoTaskScheduler1Lab_C761620F_NewTask+0x128>
   86da8:	f0000040 	adrp	x0, 91000 <g_pIVFB>
   86dac:	91032001 	add	x1, x0, #0xc8
   86db0:	b9803fe2 	ldrsw	x2, [sp, #60]
   86db4:	d2800500 	mov	x0, #0x28                  	// #40
   86db8:	9b007c40 	mul	x0, x2, x0
   86dbc:	8b000020 	add	x0, x1, x0
   86dc0:	f9400c00 	ldr	x0, [x0, #24]
   86dc4:	aa0003e1 	mov	x1, x0
   86dc8:	f9401be0 	ldr	x0, [sp, #48]
   86dcc:	f9000001 	str	x1, [x0]
   86dd0:	b9803fe1 	ldrsw	x1, [sp, #60]
   86dd4:	d2800500 	mov	x0, #0x28                  	// #40
   86dd8:	9b007c21 	mul	x1, x1, x0
   86ddc:	f0000040 	adrp	x0, 91000 <g_pIVFB>
   86de0:	91032000 	add	x0, x0, #0xc8
   86de4:	8b000021 	add	x1, x1, x0
   86de8:	f94007e0 	ldr	x0, [sp, #8]
   86dec:	f9000001 	str	x1, [x0]
   86df0:	52800000 	mov	w0, #0x0                   	// #0
   86df4:	14000008 	b	86e14 <CEcoTaskScheduler1Lab_C761620F_NewTask+0x1b8>
   86df8:	b9403fe0 	ldr	w0, [sp, #60]
   86dfc:	11000400 	add	w0, w0, #0x1
   86e00:	b9003fe0 	str	w0, [sp, #60]
   86e04:	b9403fe0 	ldr	w0, [sp, #60]
   86e08:	7100181f 	cmp	w0, #0x6
   86e0c:	54fff4ad 	b.le	86ca0 <CEcoTaskScheduler1Lab_C761620F_NewTask+0x44>
   86e10:	12800000 	mov	w0, #0xffffffff            	// #-1
   86e14:	910103ff 	add	sp, sp, #0x40
   86e18:	d65f03c0 	ret

0000000000086e1c <CEcoTaskScheduler1Lab_C761620F_DeleteTask>:
   86e1c:	d10043ff 	sub	sp, sp, #0x10
   86e20:	f90007e0 	str	x0, [sp, #8]
   86e24:	79000fe1 	strh	w1, [sp, #6]
   86e28:	f94007e0 	ldr	x0, [sp, #8]
   86e2c:	f100001f 	cmp	x0, #0x0
   86e30:	54000061 	b.ne	86e3c <CEcoTaskScheduler1Lab_C761620F_DeleteTask+0x20>  // b.any
   86e34:	12800000 	mov	w0, #0xffffffff            	// #-1
   86e38:	14000002 	b	86e40 <CEcoTaskScheduler1Lab_C761620F_DeleteTask+0x24>
   86e3c:	52800000 	mov	w0, #0x0                   	// #0
   86e40:	910043ff 	add	sp, sp, #0x10
   86e44:	d65f03c0 	ret

0000000000086e48 <CEcoTaskScheduler1Lab_C761620F_SuspendTask>:
   86e48:	d10043ff 	sub	sp, sp, #0x10
   86e4c:	f90007e0 	str	x0, [sp, #8]
   86e50:	79000fe1 	strh	w1, [sp, #6]
   86e54:	f94007e0 	ldr	x0, [sp, #8]
   86e58:	f100001f 	cmp	x0, #0x0
   86e5c:	54000061 	b.ne	86e68 <CEcoTaskScheduler1Lab_C761620F_SuspendTask+0x20>  // b.any
   86e60:	12800000 	mov	w0, #0xffffffff            	// #-1
   86e64:	14000002 	b	86e6c <CEcoTaskScheduler1Lab_C761620F_SuspendTask+0x24>
   86e68:	52800000 	mov	w0, #0x0                   	// #0
   86e6c:	910043ff 	add	sp, sp, #0x10
   86e70:	d65f03c0 	ret

0000000000086e74 <CEcoTaskScheduler1Lab_C761620F_ResumeTask>:
   86e74:	d10043ff 	sub	sp, sp, #0x10
   86e78:	f90007e0 	str	x0, [sp, #8]
   86e7c:	79000fe1 	strh	w1, [sp, #6]
   86e80:	f94007e0 	ldr	x0, [sp, #8]
   86e84:	f100001f 	cmp	x0, #0x0
   86e88:	54000061 	b.ne	86e94 <CEcoTaskScheduler1Lab_C761620F_ResumeTask+0x20>  // b.any
   86e8c:	12800000 	mov	w0, #0xffffffff            	// #-1
   86e90:	14000002 	b	86e98 <CEcoTaskScheduler1Lab_C761620F_ResumeTask+0x24>
   86e94:	52800000 	mov	w0, #0x0                   	// #0
   86e98:	910043ff 	add	sp, sp, #0x10
   86e9c:	d65f03c0 	ret

0000000000086ea0 <CEcoTaskScheduler1Lab_C761620F_RegisterInterrupt>:
   86ea0:	d10083ff 	sub	sp, sp, #0x20
   86ea4:	f9000fe0 	str	x0, [sp, #24]
   86ea8:	79002fe1 	strh	w1, [sp, #22]
   86eac:	f90007e2 	str	x2, [sp, #8]
   86eb0:	b90013e3 	str	w3, [sp, #16]
   86eb4:	f9400fe0 	ldr	x0, [sp, #24]
   86eb8:	f100001f 	cmp	x0, #0x0
   86ebc:	54000061 	b.ne	86ec8 <CEcoTaskScheduler1Lab_C761620F_RegisterInterrupt+0x28>  // b.any
   86ec0:	12800000 	mov	w0, #0xffffffff            	// #-1
   86ec4:	14000002 	b	86ecc <CEcoTaskScheduler1Lab_C761620F_RegisterInterrupt+0x2c>
   86ec8:	52800000 	mov	w0, #0x0                   	// #0
   86ecc:	910083ff 	add	sp, sp, #0x20
   86ed0:	d65f03c0 	ret

0000000000086ed4 <CEcoTaskScheduler1Lab_C761620F_UnRegisterInterrupt>:
   86ed4:	d10043ff 	sub	sp, sp, #0x10
   86ed8:	f90007e0 	str	x0, [sp, #8]
   86edc:	79000fe1 	strh	w1, [sp, #6]
   86ee0:	f94007e0 	ldr	x0, [sp, #8]
   86ee4:	f100001f 	cmp	x0, #0x0
   86ee8:	54000061 	b.ne	86ef4 <CEcoTaskScheduler1Lab_C761620F_UnRegisterInterrupt+0x20>  // b.any
   86eec:	12800000 	mov	w0, #0xffffffff            	// #-1
   86ef0:	14000002 	b	86ef8 <CEcoTaskScheduler1Lab_C761620F_UnRegisterInterrupt+0x24>
   86ef4:	52800000 	mov	w0, #0x0                   	// #0
   86ef8:	910043ff 	add	sp, sp, #0x10
   86efc:	d65f03c0 	ret

0000000000086f00 <InsertionSort>:
   86f00:	d10103ff 	sub	sp, sp, #0x40
   86f04:	f9000fe0 	str	x0, [sp, #24]
   86f08:	f9000be1 	str	x1, [sp, #16]
   86f0c:	f90007e2 	str	x2, [sp, #8]
   86f10:	f9001fff 	str	xzr, [sp, #56]
   86f14:	1400003d 	b	87008 <InsertionSort+0x108>
   86f18:	f9401fe0 	ldr	x0, [sp, #56]
   86f1c:	91000400 	add	x0, x0, #0x1
   86f20:	f9001be0 	str	x0, [sp, #48]
   86f24:	14000032 	b	86fec <InsertionSort+0xec>
   86f28:	f9400fe0 	ldr	x0, [sp, #24]
   86f2c:	f9401801 	ldr	x1, [x0, #48]
   86f30:	f9401fe0 	ldr	x0, [sp, #56]
   86f34:	d37df000 	lsl	x0, x0, #3
   86f38:	f9400be2 	ldr	x2, [sp, #16]
   86f3c:	8b000040 	add	x0, x2, x0
   86f40:	f9400002 	ldr	x2, [x0]
   86f44:	d2800500 	mov	x0, #0x28                  	// #40
   86f48:	9b007c40 	mul	x0, x2, x0
   86f4c:	8b000020 	add	x0, x1, x0
   86f50:	b9402001 	ldr	w1, [x0, #32]
   86f54:	f9400fe0 	ldr	x0, [sp, #24]
   86f58:	f9401802 	ldr	x2, [x0, #48]
   86f5c:	f9401be0 	ldr	x0, [sp, #48]
   86f60:	d37df000 	lsl	x0, x0, #3
   86f64:	f9400be3 	ldr	x3, [sp, #16]
   86f68:	8b000060 	add	x0, x3, x0
   86f6c:	f9400003 	ldr	x3, [x0]
   86f70:	d2800500 	mov	x0, #0x28                  	// #40
   86f74:	9b007c60 	mul	x0, x3, x0
   86f78:	8b000040 	add	x0, x2, x0
   86f7c:	b9402000 	ldr	w0, [x0, #32]
   86f80:	6b00003f 	cmp	w1, w0
   86f84:	540002e2 	b.cs	86fe0 <InsertionSort+0xe0>  // b.hs, b.nlast
   86f88:	f9401fe0 	ldr	x0, [sp, #56]
   86f8c:	d37df000 	lsl	x0, x0, #3
   86f90:	f9400be1 	ldr	x1, [sp, #16]
   86f94:	8b000020 	add	x0, x1, x0
   86f98:	f9400000 	ldr	x0, [x0]
   86f9c:	f90017e0 	str	x0, [sp, #40]
   86fa0:	f9401be0 	ldr	x0, [sp, #48]
   86fa4:	d37df000 	lsl	x0, x0, #3
   86fa8:	f9400be1 	ldr	x1, [sp, #16]
   86fac:	8b000021 	add	x1, x1, x0
   86fb0:	f9401fe0 	ldr	x0, [sp, #56]
   86fb4:	d37df000 	lsl	x0, x0, #3
   86fb8:	f9400be2 	ldr	x2, [sp, #16]
   86fbc:	8b000040 	add	x0, x2, x0
   86fc0:	f9400021 	ldr	x1, [x1]
   86fc4:	f9000001 	str	x1, [x0]
   86fc8:	f9401be0 	ldr	x0, [sp, #48]
   86fcc:	d37df000 	lsl	x0, x0, #3
   86fd0:	f9400be1 	ldr	x1, [sp, #16]
   86fd4:	8b000020 	add	x0, x1, x0
   86fd8:	f94017e1 	ldr	x1, [sp, #40]
   86fdc:	f9000001 	str	x1, [x0]
   86fe0:	f9401be0 	ldr	x0, [sp, #48]
   86fe4:	91000400 	add	x0, x0, #0x1
   86fe8:	f9001be0 	str	x0, [sp, #48]
   86fec:	f9401be1 	ldr	x1, [sp, #48]
   86ff0:	f94007e0 	ldr	x0, [sp, #8]
   86ff4:	eb00003f 	cmp	x1, x0
   86ff8:	54fff983 	b.cc	86f28 <InsertionSort+0x28>  // b.lo, b.ul, b.last
   86ffc:	f9401fe0 	ldr	x0, [sp, #56]
   87000:	91000400 	add	x0, x0, #0x1
   87004:	f9001fe0 	str	x0, [sp, #56]
   87008:	f94007e0 	ldr	x0, [sp, #8]
   8700c:	d1000400 	sub	x0, x0, #0x1
   87010:	f9401fe1 	ldr	x1, [sp, #56]
   87014:	eb00003f 	cmp	x1, x0
   87018:	54fff803 	b.cc	86f18 <InsertionSort+0x18>  // b.lo, b.ul, b.last
   8701c:	d503201f 	nop
   87020:	910103ff 	add	sp, sp, #0x40
   87024:	d65f03c0 	ret

0000000000087028 <CEcoTaskScheduler1Lab_C761620F_Start>:
   87028:	a9b97bfd 	stp	x29, x30, [sp, #-112]!
   8702c:	910003fd 	mov	x29, sp
   87030:	f9000fa0 	str	x0, [x29, #24]
   87034:	f9400fa0 	ldr	x0, [x29, #24]
   87038:	f90033a0 	str	x0, [x29, #96]
   8703c:	f9400fa0 	ldr	x0, [x29, #24]
   87040:	f100001f 	cmp	x0, #0x0
   87044:	54000061 	b.ne	87050 <CEcoTaskScheduler1Lab_C761620F_Start+0x28>  // b.any
   87048:	12800000 	mov	w0, #0xffffffff            	// #-1
   8704c:	14000033 	b	87118 <CEcoTaskScheduler1Lab_C761620F_Start+0xf0>
   87050:	f90037bf 	str	xzr, [x29, #104]
   87054:	14000009 	b	87078 <CEcoTaskScheduler1Lab_C761620F_Start+0x50>
   87058:	f94037a0 	ldr	x0, [x29, #104]
   8705c:	d37df000 	lsl	x0, x0, #3
   87060:	910083a1 	add	x1, x29, #0x20
   87064:	f94037a2 	ldr	x2, [x29, #104]
   87068:	f8206822 	str	x2, [x1, x0]
   8706c:	f94037a0 	ldr	x0, [x29, #104]
   87070:	91000400 	add	x0, x0, #0x1
   87074:	f90037a0 	str	x0, [x29, #104]
   87078:	f94037a0 	ldr	x0, [x29, #104]
   8707c:	f100181f 	cmp	x0, #0x6
   87080:	54000148 	b.hi	870a8 <CEcoTaskScheduler1Lab_C761620F_Start+0x80>  // b.pmore
   87084:	f94033a0 	ldr	x0, [x29, #96]
   87088:	f9401801 	ldr	x1, [x0, #48]
   8708c:	f94037a2 	ldr	x2, [x29, #104]
   87090:	d2800500 	mov	x0, #0x28                  	// #40
   87094:	9b007c40 	mul	x0, x2, x0
   87098:	8b000020 	add	x0, x1, x0
   8709c:	f9400c00 	ldr	x0, [x0, #24]
   870a0:	f100001f 	cmp	x0, #0x0
   870a4:	54fffda1 	b.ne	87058 <CEcoTaskScheduler1Lab_C761620F_Start+0x30>  // b.any
   870a8:	f94037a0 	ldr	x0, [x29, #104]
   870ac:	f9002fa0 	str	x0, [x29, #88]
   870b0:	910083a0 	add	x0, x29, #0x20
   870b4:	f9402fa2 	ldr	x2, [x29, #88]
   870b8:	aa0003e1 	mov	x1, x0
   870bc:	f94033a0 	ldr	x0, [x29, #96]
   870c0:	97ffff90 	bl	86f00 <InsertionSort>
   870c4:	f90037bf 	str	xzr, [x29, #104]
   870c8:	1400000f 	b	87104 <CEcoTaskScheduler1Lab_C761620F_Start+0xdc>
   870cc:	f94033a0 	ldr	x0, [x29, #96]
   870d0:	f9401801 	ldr	x1, [x0, #48]
   870d4:	f94037a0 	ldr	x0, [x29, #104]
   870d8:	d37df000 	lsl	x0, x0, #3
   870dc:	910083a2 	add	x2, x29, #0x20
   870e0:	f8606842 	ldr	x2, [x2, x0]
   870e4:	d2800500 	mov	x0, #0x28                  	// #40
   870e8:	9b007c40 	mul	x0, x2, x0
   870ec:	8b000020 	add	x0, x1, x0
   870f0:	f9400c00 	ldr	x0, [x0, #24]
   870f4:	d63f0000 	blr	x0
   870f8:	f94037a0 	ldr	x0, [x29, #104]
   870fc:	91000400 	add	x0, x0, #0x1
   87100:	f90037a0 	str	x0, [x29, #104]
   87104:	f94037a1 	ldr	x1, [x29, #104]
   87108:	f9402fa0 	ldr	x0, [x29, #88]
   8710c:	eb00003f 	cmp	x1, x0
   87110:	54fffde3 	b.cc	870cc <CEcoTaskScheduler1Lab_C761620F_Start+0xa4>  // b.lo, b.ul, b.last
   87114:	52800000 	mov	w0, #0x0                   	// #0
   87118:	a8c77bfd 	ldp	x29, x30, [sp], #112
   8711c:	d65f03c0 	ret

0000000000087120 <CEcoTaskScheduler1Lab_C761620F_Stop>:
   87120:	d10043ff 	sub	sp, sp, #0x10
   87124:	f90007e0 	str	x0, [sp, #8]
   87128:	f94007e0 	ldr	x0, [sp, #8]
   8712c:	f100001f 	cmp	x0, #0x0
   87130:	54000061 	b.ne	8713c <CEcoTaskScheduler1Lab_C761620F_Stop+0x1c>  // b.any
   87134:	12800000 	mov	w0, #0xffffffff            	// #-1
   87138:	14000002 	b	87140 <CEcoTaskScheduler1Lab_C761620F_Stop+0x20>
   8713c:	52800000 	mov	w0, #0x0                   	// #0
   87140:	910043ff 	add	sp, sp, #0x10
   87144:	d65f03c0 	ret

0000000000087148 <initCEcoTaskScheduler1Lab_C761620F>:
   87148:	d10043ff 	sub	sp, sp, #0x10
   8714c:	f90007e0 	str	x0, [sp, #8]
   87150:	f90003e1 	str	x1, [sp]
   87154:	f94007e0 	ldr	x0, [sp, #8]
   87158:	f100001f 	cmp	x0, #0x0
   8715c:	54000061 	b.ne	87168 <initCEcoTaskScheduler1Lab_C761620F+0x20>  // b.any
   87160:	12800000 	mov	w0, #0xffffffff            	// #-1
   87164:	14000002 	b	8716c <initCEcoTaskScheduler1Lab_C761620F+0x24>
   87168:	52800000 	mov	w0, #0x0                   	// #0
   8716c:	910043ff 	add	sp, sp, #0x10
   87170:	d65f03c0 	ret

0000000000087174 <createCEcoTaskScheduler1Lab_C761620F>:
   87174:	d100c3ff 	sub	sp, sp, #0x30
   87178:	f9000fe0 	str	x0, [sp, #24]
   8717c:	f9000be1 	str	x1, [sp, #16]
   87180:	f90007e2 	str	x2, [sp, #8]
   87184:	12800000 	mov	w0, #0xffffffff            	// #-1
   87188:	79005fe0 	strh	w0, [sp, #46]
   8718c:	f90013ff 	str	xzr, [sp, #32]
   87190:	f94007e0 	ldr	x0, [sp, #8]
   87194:	f100001f 	cmp	x0, #0x0
   87198:	54000061 	b.ne	871a4 <createCEcoTaskScheduler1Lab_C761620F+0x30>  // b.any
   8719c:	79c05fe0 	ldrsh	w0, [sp, #46]
   871a0:	14000014 	b	871f0 <createCEcoTaskScheduler1Lab_C761620F+0x7c>
   871a4:	d0000040 	adrp	x0, 91000 <g_pIVFB>
   871a8:	91024000 	add	x0, x0, #0x90
   871ac:	f90013e0 	str	x0, [sp, #32]
   871b0:	f94013e0 	ldr	x0, [sp, #32]
   871b4:	b9400800 	ldr	w0, [x0, #8]
   871b8:	7100001f 	cmp	w0, #0x0
   871bc:	54000121 	b.ne	871e0 <createCEcoTaskScheduler1Lab_C761620F+0x6c>  // b.any
   871c0:	f94013e0 	ldr	x0, [sp, #32]
   871c4:	52800021 	mov	w1, #0x1                   	// #1
   871c8:	b9000801 	str	w1, [x0, #8]
   871cc:	f94013e0 	ldr	x0, [sp, #32]
   871d0:	90000041 	adrp	x1, 8f000 <_malloc_r+0x818>
   871d4:	91280021 	add	x1, x1, #0xa00
   871d8:	f9000001 	str	x1, [x0]
   871dc:	79005fff 	strh	wzr, [sp, #46]
   871e0:	f94007e0 	ldr	x0, [sp, #8]
   871e4:	f94013e1 	ldr	x1, [sp, #32]
   871e8:	f9000001 	str	x1, [x0]
   871ec:	79c05fe0 	ldrsh	w0, [sp, #46]
   871f0:	9100c3ff 	add	sp, sp, #0x30
   871f4:	d65f03c0 	ret

00000000000871f8 <deleteCEcoTaskScheduler1Lab_C761620F>:
   871f8:	d10043ff 	sub	sp, sp, #0x10
   871fc:	f90007e0 	str	x0, [sp, #8]
   87200:	d503201f 	nop
   87204:	910043ff 	add	sp, sp, #0x10
   87208:	d65f03c0 	ret

000000000008720c <CEcoTimer1_0B569723Factory_QueryInterface>:
   8720c:	a9bd7bfd 	stp	x29, x30, [sp, #-48]!
   87210:	910003fd 	mov	x29, sp
   87214:	f90017a0 	str	x0, [x29, #40]
   87218:	f90013a1 	str	x1, [x29, #32]
   8721c:	f9000fa2 	str	x2, [x29, #24]
   87220:	f94013a0 	ldr	x0, [x29, #32]
   87224:	39400001 	ldrb	w1, [x0]
   87228:	d0000200 	adrp	x0, c9000 <g_xCEcoStackTask1List_C761620F+0x37e20>
   8722c:	9134a000 	add	x0, x0, #0xd28
   87230:	39400000 	ldrb	w0, [x0]
   87234:	6b00003f 	cmp	w1, w0
   87238:	54001121 	b.ne	8745c <CEcoTimer1_0B569723Factory_QueryInterface+0x250>  // b.any
   8723c:	f94013a0 	ldr	x0, [x29, #32]
   87240:	91000400 	add	x0, x0, #0x1
   87244:	39400001 	ldrb	w1, [x0]
   87248:	d0000200 	adrp	x0, c9000 <g_xCEcoStackTask1List_C761620F+0x37e20>
   8724c:	9134a400 	add	x0, x0, #0xd29
   87250:	39400000 	ldrb	w0, [x0]
   87254:	6b00003f 	cmp	w1, w0
   87258:	54001021 	b.ne	8745c <CEcoTimer1_0B569723Factory_QueryInterface+0x250>  // b.any
   8725c:	f94013a0 	ldr	x0, [x29, #32]
   87260:	91000800 	add	x0, x0, #0x2
   87264:	39400001 	ldrb	w1, [x0]
   87268:	d0000200 	adrp	x0, c9000 <g_xCEcoStackTask1List_C761620F+0x37e20>
   8726c:	9134a800 	add	x0, x0, #0xd2a
   87270:	39400000 	ldrb	w0, [x0]
   87274:	6b00003f 	cmp	w1, w0
   87278:	54000f21 	b.ne	8745c <CEcoTimer1_0B569723Factory_QueryInterface+0x250>  // b.any
   8727c:	f94013a0 	ldr	x0, [x29, #32]
   87280:	91000c00 	add	x0, x0, #0x3
   87284:	39400001 	ldrb	w1, [x0]
   87288:	d0000200 	adrp	x0, c9000 <g_xCEcoStackTask1List_C761620F+0x37e20>
   8728c:	9134ac00 	add	x0, x0, #0xd2b
   87290:	39400000 	ldrb	w0, [x0]
   87294:	6b00003f 	cmp	w1, w0
   87298:	54000e21 	b.ne	8745c <CEcoTimer1_0B569723Factory_QueryInterface+0x250>  // b.any
   8729c:	f94013a0 	ldr	x0, [x29, #32]
   872a0:	91001000 	add	x0, x0, #0x4
   872a4:	39400001 	ldrb	w1, [x0]
   872a8:	d0000200 	adrp	x0, c9000 <g_xCEcoStackTask1List_C761620F+0x37e20>
   872ac:	9134b000 	add	x0, x0, #0xd2c
   872b0:	39400000 	ldrb	w0, [x0]
   872b4:	6b00003f 	cmp	w1, w0
   872b8:	54000d21 	b.ne	8745c <CEcoTimer1_0B569723Factory_QueryInterface+0x250>  // b.any
   872bc:	f94013a0 	ldr	x0, [x29, #32]
   872c0:	91001400 	add	x0, x0, #0x5
   872c4:	39400001 	ldrb	w1, [x0]
   872c8:	d0000200 	adrp	x0, c9000 <g_xCEcoStackTask1List_C761620F+0x37e20>
   872cc:	9134b400 	add	x0, x0, #0xd2d
   872d0:	39400000 	ldrb	w0, [x0]
   872d4:	6b00003f 	cmp	w1, w0
   872d8:	54000c21 	b.ne	8745c <CEcoTimer1_0B569723Factory_QueryInterface+0x250>  // b.any
   872dc:	f94013a0 	ldr	x0, [x29, #32]
   872e0:	91001800 	add	x0, x0, #0x6
   872e4:	39400001 	ldrb	w1, [x0]
   872e8:	d0000200 	adrp	x0, c9000 <g_xCEcoStackTask1List_C761620F+0x37e20>
   872ec:	9134b800 	add	x0, x0, #0xd2e
   872f0:	39400000 	ldrb	w0, [x0]
   872f4:	6b00003f 	cmp	w1, w0
   872f8:	54000b21 	b.ne	8745c <CEcoTimer1_0B569723Factory_QueryInterface+0x250>  // b.any
   872fc:	f94013a0 	ldr	x0, [x29, #32]
   87300:	91001c00 	add	x0, x0, #0x7
   87304:	39400001 	ldrb	w1, [x0]
   87308:	d0000200 	adrp	x0, c9000 <g_xCEcoStackTask1List_C761620F+0x37e20>
   8730c:	9134bc00 	add	x0, x0, #0xd2f
   87310:	39400000 	ldrb	w0, [x0]
   87314:	6b00003f 	cmp	w1, w0
   87318:	54000a21 	b.ne	8745c <CEcoTimer1_0B569723Factory_QueryInterface+0x250>  // b.any
   8731c:	f94013a0 	ldr	x0, [x29, #32]
   87320:	91002000 	add	x0, x0, #0x8
   87324:	39400001 	ldrb	w1, [x0]
   87328:	d0000200 	adrp	x0, c9000 <g_xCEcoStackTask1List_C761620F+0x37e20>
   8732c:	9134c000 	add	x0, x0, #0xd30
   87330:	39400000 	ldrb	w0, [x0]
   87334:	6b00003f 	cmp	w1, w0
   87338:	54000921 	b.ne	8745c <CEcoTimer1_0B569723Factory_QueryInterface+0x250>  // b.any
   8733c:	f94013a0 	ldr	x0, [x29, #32]
   87340:	91002400 	add	x0, x0, #0x9
   87344:	39400001 	ldrb	w1, [x0]
   87348:	d0000200 	adrp	x0, c9000 <g_xCEcoStackTask1List_C761620F+0x37e20>
   8734c:	9134c400 	add	x0, x0, #0xd31
   87350:	39400000 	ldrb	w0, [x0]
   87354:	6b00003f 	cmp	w1, w0
   87358:	54000821 	b.ne	8745c <CEcoTimer1_0B569723Factory_QueryInterface+0x250>  // b.any
   8735c:	f94013a0 	ldr	x0, [x29, #32]
   87360:	91002800 	add	x0, x0, #0xa
   87364:	39400001 	ldrb	w1, [x0]
   87368:	d0000200 	adrp	x0, c9000 <g_xCEcoStackTask1List_C761620F+0x37e20>
   8736c:	9134c800 	add	x0, x0, #0xd32
   87370:	39400000 	ldrb	w0, [x0]
   87374:	6b00003f 	cmp	w1, w0
   87378:	54000721 	b.ne	8745c <CEcoTimer1_0B569723Factory_QueryInterface+0x250>  // b.any
   8737c:	f94013a0 	ldr	x0, [x29, #32]
   87380:	91002c00 	add	x0, x0, #0xb
   87384:	39400001 	ldrb	w1, [x0]
   87388:	d0000200 	adrp	x0, c9000 <g_xCEcoStackTask1List_C761620F+0x37e20>
   8738c:	9134cc00 	add	x0, x0, #0xd33
   87390:	39400000 	ldrb	w0, [x0]
   87394:	6b00003f 	cmp	w1, w0
   87398:	54000621 	b.ne	8745c <CEcoTimer1_0B569723Factory_QueryInterface+0x250>  // b.any
   8739c:	f94013a0 	ldr	x0, [x29, #32]
   873a0:	91003000 	add	x0, x0, #0xc
   873a4:	39400001 	ldrb	w1, [x0]
   873a8:	d0000200 	adrp	x0, c9000 <g_xCEcoStackTask1List_C761620F+0x37e20>
   873ac:	9134d000 	add	x0, x0, #0xd34
   873b0:	39400000 	ldrb	w0, [x0]
   873b4:	6b00003f 	cmp	w1, w0
   873b8:	54000521 	b.ne	8745c <CEcoTimer1_0B569723Factory_QueryInterface+0x250>  // b.any
   873bc:	f94013a0 	ldr	x0, [x29, #32]
   873c0:	91003400 	add	x0, x0, #0xd
   873c4:	39400001 	ldrb	w1, [x0]
   873c8:	d0000200 	adrp	x0, c9000 <g_xCEcoStackTask1List_C761620F+0x37e20>
   873cc:	9134d400 	add	x0, x0, #0xd35
   873d0:	39400000 	ldrb	w0, [x0]
   873d4:	6b00003f 	cmp	w1, w0
   873d8:	54000421 	b.ne	8745c <CEcoTimer1_0B569723Factory_QueryInterface+0x250>  // b.any
   873dc:	f94013a0 	ldr	x0, [x29, #32]
   873e0:	91003800 	add	x0, x0, #0xe
   873e4:	39400001 	ldrb	w1, [x0]
   873e8:	d0000200 	adrp	x0, c9000 <g_xCEcoStackTask1List_C761620F+0x37e20>
   873ec:	9134d800 	add	x0, x0, #0xd36
   873f0:	39400000 	ldrb	w0, [x0]
   873f4:	6b00003f 	cmp	w1, w0
   873f8:	54000321 	b.ne	8745c <CEcoTimer1_0B569723Factory_QueryInterface+0x250>  // b.any
   873fc:	f94013a0 	ldr	x0, [x29, #32]
   87400:	91003c00 	add	x0, x0, #0xf
   87404:	39400001 	ldrb	w1, [x0]
   87408:	d0000200 	adrp	x0, c9000 <g_xCEcoStackTask1List_C761620F+0x37e20>
   8740c:	9134dc00 	add	x0, x0, #0xd37
   87410:	39400000 	ldrb	w0, [x0]
   87414:	6b00003f 	cmp	w1, w0
   87418:	54000221 	b.ne	8745c <CEcoTimer1_0B569723Factory_QueryInterface+0x250>  // b.any
   8741c:	f94013a0 	ldr	x0, [x29, #32]
   87420:	91004000 	add	x0, x0, #0x10
   87424:	39400001 	ldrb	w1, [x0]
   87428:	d0000200 	adrp	x0, c9000 <g_xCEcoStackTask1List_C761620F+0x37e20>
   8742c:	9134e000 	add	x0, x0, #0xd38
   87430:	39400000 	ldrb	w0, [x0]
   87434:	6b00003f 	cmp	w1, w0
   87438:	54000121 	b.ne	8745c <CEcoTimer1_0B569723Factory_QueryInterface+0x250>  // b.any
   8743c:	f94013a0 	ldr	x0, [x29, #32]
   87440:	91004400 	add	x0, x0, #0x11
   87444:	39400001 	ldrb	w1, [x0]
   87448:	d0000200 	adrp	x0, c9000 <g_xCEcoStackTask1List_C761620F+0x37e20>
   8744c:	9134e400 	add	x0, x0, #0xd39
   87450:	39400000 	ldrb	w0, [x0]
   87454:	6b00003f 	cmp	w1, w0
   87458:	54001200 	b.eq	87698 <CEcoTimer1_0B569723Factory_QueryInterface+0x48c>  // b.none
   8745c:	f94013a0 	ldr	x0, [x29, #32]
   87460:	39400001 	ldrb	w1, [x0]
   87464:	d0000200 	adrp	x0, c9000 <g_xCEcoStackTask1List_C761620F+0x37e20>
   87468:	91350000 	add	x0, x0, #0xd40
   8746c:	39400000 	ldrb	w0, [x0]
   87470:	6b00003f 	cmp	w1, w0
   87474:	540012a1 	b.ne	876c8 <CEcoTimer1_0B569723Factory_QueryInterface+0x4bc>  // b.any
   87478:	f94013a0 	ldr	x0, [x29, #32]
   8747c:	91000400 	add	x0, x0, #0x1
   87480:	39400001 	ldrb	w1, [x0]
   87484:	d0000200 	adrp	x0, c9000 <g_xCEcoStackTask1List_C761620F+0x37e20>
   87488:	91350400 	add	x0, x0, #0xd41
   8748c:	39400000 	ldrb	w0, [x0]
   87490:	6b00003f 	cmp	w1, w0
   87494:	540011a1 	b.ne	876c8 <CEcoTimer1_0B569723Factory_QueryInterface+0x4bc>  // b.any
   87498:	f94013a0 	ldr	x0, [x29, #32]
   8749c:	91000800 	add	x0, x0, #0x2
   874a0:	39400001 	ldrb	w1, [x0]
   874a4:	d0000200 	adrp	x0, c9000 <g_xCEcoStackTask1List_C761620F+0x37e20>
   874a8:	91350800 	add	x0, x0, #0xd42
   874ac:	39400000 	ldrb	w0, [x0]
   874b0:	6b00003f 	cmp	w1, w0
   874b4:	540010a1 	b.ne	876c8 <CEcoTimer1_0B569723Factory_QueryInterface+0x4bc>  // b.any
   874b8:	f94013a0 	ldr	x0, [x29, #32]
   874bc:	91000c00 	add	x0, x0, #0x3
   874c0:	39400001 	ldrb	w1, [x0]
   874c4:	d0000200 	adrp	x0, c9000 <g_xCEcoStackTask1List_C761620F+0x37e20>
   874c8:	91350c00 	add	x0, x0, #0xd43
   874cc:	39400000 	ldrb	w0, [x0]
   874d0:	6b00003f 	cmp	w1, w0
   874d4:	54000fa1 	b.ne	876c8 <CEcoTimer1_0B569723Factory_QueryInterface+0x4bc>  // b.any
   874d8:	f94013a0 	ldr	x0, [x29, #32]
   874dc:	91001000 	add	x0, x0, #0x4
   874e0:	39400001 	ldrb	w1, [x0]
   874e4:	d0000200 	adrp	x0, c9000 <g_xCEcoStackTask1List_C761620F+0x37e20>
   874e8:	91351000 	add	x0, x0, #0xd44
   874ec:	39400000 	ldrb	w0, [x0]
   874f0:	6b00003f 	cmp	w1, w0
   874f4:	54000ea1 	b.ne	876c8 <CEcoTimer1_0B569723Factory_QueryInterface+0x4bc>  // b.any
   874f8:	f94013a0 	ldr	x0, [x29, #32]
   874fc:	91001400 	add	x0, x0, #0x5
   87500:	39400001 	ldrb	w1, [x0]
   87504:	d0000200 	adrp	x0, c9000 <g_xCEcoStackTask1List_C761620F+0x37e20>
   87508:	91351400 	add	x0, x0, #0xd45
   8750c:	39400000 	ldrb	w0, [x0]
   87510:	6b00003f 	cmp	w1, w0
   87514:	54000da1 	b.ne	876c8 <CEcoTimer1_0B569723Factory_QueryInterface+0x4bc>  // b.any
   87518:	f94013a0 	ldr	x0, [x29, #32]
   8751c:	91001800 	add	x0, x0, #0x6
   87520:	39400001 	ldrb	w1, [x0]
   87524:	d0000200 	adrp	x0, c9000 <g_xCEcoStackTask1List_C761620F+0x37e20>
   87528:	91351800 	add	x0, x0, #0xd46
   8752c:	39400000 	ldrb	w0, [x0]
   87530:	6b00003f 	cmp	w1, w0
   87534:	54000ca1 	b.ne	876c8 <CEcoTimer1_0B569723Factory_QueryInterface+0x4bc>  // b.any
   87538:	f94013a0 	ldr	x0, [x29, #32]
   8753c:	91001c00 	add	x0, x0, #0x7
   87540:	39400001 	ldrb	w1, [x0]
   87544:	d0000200 	adrp	x0, c9000 <g_xCEcoStackTask1List_C761620F+0x37e20>
   87548:	91351c00 	add	x0, x0, #0xd47
   8754c:	39400000 	ldrb	w0, [x0]
   87550:	6b00003f 	cmp	w1, w0
   87554:	54000ba1 	b.ne	876c8 <CEcoTimer1_0B569723Factory_QueryInterface+0x4bc>  // b.any
   87558:	f94013a0 	ldr	x0, [x29, #32]
   8755c:	91002000 	add	x0, x0, #0x8
   87560:	39400001 	ldrb	w1, [x0]
   87564:	d0000200 	adrp	x0, c9000 <g_xCEcoStackTask1List_C761620F+0x37e20>
   87568:	91352000 	add	x0, x0, #0xd48
   8756c:	39400000 	ldrb	w0, [x0]
   87570:	6b00003f 	cmp	w1, w0
   87574:	54000aa1 	b.ne	876c8 <CEcoTimer1_0B569723Factory_QueryInterface+0x4bc>  // b.any
   87578:	f94013a0 	ldr	x0, [x29, #32]
   8757c:	91002400 	add	x0, x0, #0x9
   87580:	39400001 	ldrb	w1, [x0]
   87584:	d0000200 	adrp	x0, c9000 <g_xCEcoStackTask1List_C761620F+0x37e20>
   87588:	91352400 	add	x0, x0, #0xd49
   8758c:	39400000 	ldrb	w0, [x0]
   87590:	6b00003f 	cmp	w1, w0
   87594:	540009a1 	b.ne	876c8 <CEcoTimer1_0B569723Factory_QueryInterface+0x4bc>  // b.any
   87598:	f94013a0 	ldr	x0, [x29, #32]
   8759c:	91002800 	add	x0, x0, #0xa
   875a0:	39400001 	ldrb	w1, [x0]
   875a4:	d0000200 	adrp	x0, c9000 <g_xCEcoStackTask1List_C761620F+0x37e20>
   875a8:	91352800 	add	x0, x0, #0xd4a
   875ac:	39400000 	ldrb	w0, [x0]
   875b0:	6b00003f 	cmp	w1, w0
   875b4:	540008a1 	b.ne	876c8 <CEcoTimer1_0B569723Factory_QueryInterface+0x4bc>  // b.any
   875b8:	f94013a0 	ldr	x0, [x29, #32]
   875bc:	91002c00 	add	x0, x0, #0xb
   875c0:	39400001 	ldrb	w1, [x0]
   875c4:	d0000200 	adrp	x0, c9000 <g_xCEcoStackTask1List_C761620F+0x37e20>
   875c8:	91352c00 	add	x0, x0, #0xd4b
   875cc:	39400000 	ldrb	w0, [x0]
   875d0:	6b00003f 	cmp	w1, w0
   875d4:	540007a1 	b.ne	876c8 <CEcoTimer1_0B569723Factory_QueryInterface+0x4bc>  // b.any
   875d8:	f94013a0 	ldr	x0, [x29, #32]
   875dc:	91003000 	add	x0, x0, #0xc
   875e0:	39400001 	ldrb	w1, [x0]
   875e4:	d0000200 	adrp	x0, c9000 <g_xCEcoStackTask1List_C761620F+0x37e20>
   875e8:	91353000 	add	x0, x0, #0xd4c
   875ec:	39400000 	ldrb	w0, [x0]
   875f0:	6b00003f 	cmp	w1, w0
   875f4:	540006a1 	b.ne	876c8 <CEcoTimer1_0B569723Factory_QueryInterface+0x4bc>  // b.any
   875f8:	f94013a0 	ldr	x0, [x29, #32]
   875fc:	91003400 	add	x0, x0, #0xd
   87600:	39400001 	ldrb	w1, [x0]
   87604:	d0000200 	adrp	x0, c9000 <g_xCEcoStackTask1List_C761620F+0x37e20>
   87608:	91353400 	add	x0, x0, #0xd4d
   8760c:	39400000 	ldrb	w0, [x0]
   87610:	6b00003f 	cmp	w1, w0
   87614:	540005a1 	b.ne	876c8 <CEcoTimer1_0B569723Factory_QueryInterface+0x4bc>  // b.any
   87618:	f94013a0 	ldr	x0, [x29, #32]
   8761c:	91003800 	add	x0, x0, #0xe
   87620:	39400001 	ldrb	w1, [x0]
   87624:	d0000200 	adrp	x0, c9000 <g_xCEcoStackTask1List_C761620F+0x37e20>
   87628:	91353800 	add	x0, x0, #0xd4e
   8762c:	39400000 	ldrb	w0, [x0]
   87630:	6b00003f 	cmp	w1, w0
   87634:	540004a1 	b.ne	876c8 <CEcoTimer1_0B569723Factory_QueryInterface+0x4bc>  // b.any
   87638:	f94013a0 	ldr	x0, [x29, #32]
   8763c:	91003c00 	add	x0, x0, #0xf
   87640:	39400001 	ldrb	w1, [x0]
   87644:	d0000200 	adrp	x0, c9000 <g_xCEcoStackTask1List_C761620F+0x37e20>
   87648:	91353c00 	add	x0, x0, #0xd4f
   8764c:	39400000 	ldrb	w0, [x0]
   87650:	6b00003f 	cmp	w1, w0
   87654:	540003a1 	b.ne	876c8 <CEcoTimer1_0B569723Factory_QueryInterface+0x4bc>  // b.any
   87658:	f94013a0 	ldr	x0, [x29, #32]
   8765c:	91004000 	add	x0, x0, #0x10
   87660:	39400001 	ldrb	w1, [x0]
   87664:	d0000200 	adrp	x0, c9000 <g_xCEcoStackTask1List_C761620F+0x37e20>
   87668:	91354000 	add	x0, x0, #0xd50
   8766c:	39400000 	ldrb	w0, [x0]
   87670:	6b00003f 	cmp	w1, w0
   87674:	540002a1 	b.ne	876c8 <CEcoTimer1_0B569723Factory_QueryInterface+0x4bc>  // b.any
   87678:	f94013a0 	ldr	x0, [x29, #32]
   8767c:	91004400 	add	x0, x0, #0x11
   87680:	39400001 	ldrb	w1, [x0]
   87684:	d0000200 	adrp	x0, c9000 <g_xCEcoStackTask1List_C761620F+0x37e20>
   87688:	91354400 	add	x0, x0, #0xd51
   8768c:	39400000 	ldrb	w0, [x0]
   87690:	6b00003f 	cmp	w1, w0
   87694:	540001a1 	b.ne	876c8 <CEcoTimer1_0B569723Factory_QueryInterface+0x4bc>  // b.any
   87698:	f9400fa0 	ldr	x0, [x29, #24]
   8769c:	f94017a1 	ldr	x1, [x29, #40]
   876a0:	f9000001 	str	x1, [x0]
   876a4:	f9400fa0 	ldr	x0, [x29, #24]
   876a8:	f9400000 	ldr	x0, [x0]
   876ac:	f9400000 	ldr	x0, [x0]
   876b0:	f9400401 	ldr	x1, [x0, #8]
   876b4:	f9400fa0 	ldr	x0, [x29, #24]
   876b8:	f9400000 	ldr	x0, [x0]
   876bc:	d63f0020 	blr	x1
   876c0:	52800000 	mov	w0, #0x0                   	// #0
   876c4:	14000004 	b	876d4 <CEcoTimer1_0B569723Factory_QueryInterface+0x4c8>
   876c8:	f9400fa0 	ldr	x0, [x29, #24]
   876cc:	f900001f 	str	xzr, [x0]
   876d0:	12800000 	mov	w0, #0xffffffff            	// #-1
   876d4:	a8c37bfd 	ldp	x29, x30, [sp], #48
   876d8:	d65f03c0 	ret

00000000000876dc <CEcoTimer1_0B569723Factory_AddRef>:
   876dc:	d10083ff 	sub	sp, sp, #0x20
   876e0:	f90007e0 	str	x0, [sp, #8]
   876e4:	f94007e0 	ldr	x0, [sp, #8]
   876e8:	f9000fe0 	str	x0, [sp, #24]
   876ec:	f94007e0 	ldr	x0, [sp, #8]
   876f0:	f100001f 	cmp	x0, #0x0
   876f4:	54000061 	b.ne	87700 <CEcoTimer1_0B569723Factory_AddRef+0x24>  // b.any
   876f8:	12800000 	mov	w0, #0xffffffff            	// #-1
   876fc:	14000008 	b	8771c <CEcoTimer1_0B569723Factory_AddRef+0x40>
   87700:	f9400fe0 	ldr	x0, [sp, #24]
   87704:	b9400800 	ldr	w0, [x0, #8]
   87708:	11000401 	add	w1, w0, #0x1
   8770c:	f9400fe0 	ldr	x0, [sp, #24]
   87710:	b9000801 	str	w1, [x0, #8]
   87714:	f9400fe0 	ldr	x0, [sp, #24]
   87718:	b9400800 	ldr	w0, [x0, #8]
   8771c:	910083ff 	add	sp, sp, #0x20
   87720:	d65f03c0 	ret

0000000000087724 <CEcoTimer1_0B569723Factory_Release>:
   87724:	d10083ff 	sub	sp, sp, #0x20
   87728:	f90007e0 	str	x0, [sp, #8]
   8772c:	f94007e0 	ldr	x0, [sp, #8]
   87730:	f9000fe0 	str	x0, [sp, #24]
   87734:	f94007e0 	ldr	x0, [sp, #8]
   87738:	f100001f 	cmp	x0, #0x0
   8773c:	54000061 	b.ne	87748 <CEcoTimer1_0B569723Factory_Release+0x24>  // b.any
   87740:	12800000 	mov	w0, #0xffffffff            	// #-1
   87744:	1400000e 	b	8777c <CEcoTimer1_0B569723Factory_Release+0x58>
   87748:	f9400fe0 	ldr	x0, [sp, #24]
   8774c:	b9400800 	ldr	w0, [x0, #8]
   87750:	51000401 	sub	w1, w0, #0x1
   87754:	f9400fe0 	ldr	x0, [sp, #24]
   87758:	b9000801 	str	w1, [x0, #8]
   8775c:	f9400fe0 	ldr	x0, [sp, #24]
   87760:	b9400800 	ldr	w0, [x0, #8]
   87764:	7100001f 	cmp	w0, #0x0
   87768:	54000061 	b.ne	87774 <CEcoTimer1_0B569723Factory_Release+0x50>  // b.any
   8776c:	52800000 	mov	w0, #0x0                   	// #0
   87770:	14000003 	b	8777c <CEcoTimer1_0B569723Factory_Release+0x58>
   87774:	f9400fe0 	ldr	x0, [sp, #24]
   87778:	b9400800 	ldr	w0, [x0, #8]
   8777c:	910083ff 	add	sp, sp, #0x20
   87780:	d65f03c0 	ret

0000000000087784 <CEcoTimer1_0B569723Factory_Init>:
   87784:	a9bc7bfd 	stp	x29, x30, [sp, #-64]!
   87788:	910003fd 	mov	x29, sp
   8778c:	f90017a0 	str	x0, [x29, #40]
   87790:	f90013a1 	str	x1, [x29, #32]
   87794:	f9000fa2 	str	x2, [x29, #24]
   87798:	f94017a0 	ldr	x0, [x29, #40]
   8779c:	f9001fa0 	str	x0, [x29, #56]
   877a0:	12800000 	mov	w0, #0xffffffff            	// #-1
   877a4:	79006fa0 	strh	w0, [x29, #54]
   877a8:	f94017a0 	ldr	x0, [x29, #40]
   877ac:	f100001f 	cmp	x0, #0x0
   877b0:	54000061 	b.ne	877bc <CEcoTimer1_0B569723Factory_Init+0x38>  // b.any
   877b4:	12800000 	mov	w0, #0xffffffff            	// #-1
   877b8:	14000008 	b	877d8 <CEcoTimer1_0B569723Factory_Init+0x54>
   877bc:	f9401fa0 	ldr	x0, [x29, #56]
   877c0:	f9400c02 	ldr	x2, [x0, #24]
   877c4:	f94013a1 	ldr	x1, [x29, #32]
   877c8:	f9400fa0 	ldr	x0, [x29, #24]
   877cc:	d63f0040 	blr	x2
   877d0:	79006fa0 	strh	w0, [x29, #54]
   877d4:	79c06fa0 	ldrsh	w0, [x29, #54]
   877d8:	a8c47bfd 	ldp	x29, x30, [sp], #64
   877dc:	d65f03c0 	ret

00000000000877e0 <CEcoTimer1_0B569723Factory_Alloc>:
   877e0:	a9ba7bfd 	stp	x29, x30, [sp, #-96]!
   877e4:	910003fd 	mov	x29, sp
   877e8:	f9001fa0 	str	x0, [x29, #56]
   877ec:	f9001ba1 	str	x1, [x29, #48]
   877f0:	f90017a2 	str	x2, [x29, #40]
   877f4:	f90013a3 	str	x3, [x29, #32]
   877f8:	f9000fa4 	str	x4, [x29, #24]
   877fc:	f9401fa0 	ldr	x0, [x29, #56]
   87800:	f9002fa0 	str	x0, [x29, #88]
   87804:	f90027bf 	str	xzr, [x29, #72]
   87808:	12800000 	mov	w0, #0xffffffff            	// #-1
   8780c:	7900afa0 	strh	w0, [x29, #86]
   87810:	f9401fa0 	ldr	x0, [x29, #56]
   87814:	f100001f 	cmp	x0, #0x0
   87818:	54000061 	b.ne	87824 <CEcoTimer1_0B569723Factory_Alloc+0x44>  // b.any
   8781c:	12800000 	mov	w0, #0xffffffff            	// #-1
   87820:	140000bc 	b	87b10 <CEcoTimer1_0B569723Factory_Alloc+0x330>
   87824:	f94017a0 	ldr	x0, [x29, #40]
   87828:	f100001f 	cmp	x0, #0x0
   8782c:	54001240 	b.eq	87a74 <CEcoTimer1_0B569723Factory_Alloc+0x294>  // b.none
   87830:	f94013a0 	ldr	x0, [x29, #32]
   87834:	39400001 	ldrb	w1, [x0]
   87838:	d0000200 	adrp	x0, c9000 <g_xCEcoStackTask1List_C761620F+0x37e20>
   8783c:	9134a000 	add	x0, x0, #0xd28
   87840:	39400000 	ldrb	w0, [x0]
   87844:	6b00003f 	cmp	w1, w0
   87848:	54001121 	b.ne	87a6c <CEcoTimer1_0B569723Factory_Alloc+0x28c>  // b.any
   8784c:	f94013a0 	ldr	x0, [x29, #32]
   87850:	91000400 	add	x0, x0, #0x1
   87854:	39400001 	ldrb	w1, [x0]
   87858:	d0000200 	adrp	x0, c9000 <g_xCEcoStackTask1List_C761620F+0x37e20>
   8785c:	9134a400 	add	x0, x0, #0xd29
   87860:	39400000 	ldrb	w0, [x0]
   87864:	6b00003f 	cmp	w1, w0
   87868:	54001021 	b.ne	87a6c <CEcoTimer1_0B569723Factory_Alloc+0x28c>  // b.any
   8786c:	f94013a0 	ldr	x0, [x29, #32]
   87870:	91000800 	add	x0, x0, #0x2
   87874:	39400001 	ldrb	w1, [x0]
   87878:	d0000200 	adrp	x0, c9000 <g_xCEcoStackTask1List_C761620F+0x37e20>
   8787c:	9134a800 	add	x0, x0, #0xd2a
   87880:	39400000 	ldrb	w0, [x0]
   87884:	6b00003f 	cmp	w1, w0
   87888:	54000f21 	b.ne	87a6c <CEcoTimer1_0B569723Factory_Alloc+0x28c>  // b.any
   8788c:	f94013a0 	ldr	x0, [x29, #32]
   87890:	91000c00 	add	x0, x0, #0x3
   87894:	39400001 	ldrb	w1, [x0]
   87898:	d0000200 	adrp	x0, c9000 <g_xCEcoStackTask1List_C761620F+0x37e20>
   8789c:	9134ac00 	add	x0, x0, #0xd2b
   878a0:	39400000 	ldrb	w0, [x0]
   878a4:	6b00003f 	cmp	w1, w0
   878a8:	54000e21 	b.ne	87a6c <CEcoTimer1_0B569723Factory_Alloc+0x28c>  // b.any
   878ac:	f94013a0 	ldr	x0, [x29, #32]
   878b0:	91001000 	add	x0, x0, #0x4
   878b4:	39400001 	ldrb	w1, [x0]
   878b8:	d0000200 	adrp	x0, c9000 <g_xCEcoStackTask1List_C761620F+0x37e20>
   878bc:	9134b000 	add	x0, x0, #0xd2c
   878c0:	39400000 	ldrb	w0, [x0]
   878c4:	6b00003f 	cmp	w1, w0
   878c8:	54000d21 	b.ne	87a6c <CEcoTimer1_0B569723Factory_Alloc+0x28c>  // b.any
   878cc:	f94013a0 	ldr	x0, [x29, #32]
   878d0:	91001400 	add	x0, x0, #0x5
   878d4:	39400001 	ldrb	w1, [x0]
   878d8:	d0000200 	adrp	x0, c9000 <g_xCEcoStackTask1List_C761620F+0x37e20>
   878dc:	9134b400 	add	x0, x0, #0xd2d
   878e0:	39400000 	ldrb	w0, [x0]
   878e4:	6b00003f 	cmp	w1, w0
   878e8:	54000c21 	b.ne	87a6c <CEcoTimer1_0B569723Factory_Alloc+0x28c>  // b.any
   878ec:	f94013a0 	ldr	x0, [x29, #32]
   878f0:	91001800 	add	x0, x0, #0x6
   878f4:	39400001 	ldrb	w1, [x0]
   878f8:	d0000200 	adrp	x0, c9000 <g_xCEcoStackTask1List_C761620F+0x37e20>
   878fc:	9134b800 	add	x0, x0, #0xd2e
   87900:	39400000 	ldrb	w0, [x0]
   87904:	6b00003f 	cmp	w1, w0
   87908:	54000b21 	b.ne	87a6c <CEcoTimer1_0B569723Factory_Alloc+0x28c>  // b.any
   8790c:	f94013a0 	ldr	x0, [x29, #32]
   87910:	91001c00 	add	x0, x0, #0x7
   87914:	39400001 	ldrb	w1, [x0]
   87918:	d0000200 	adrp	x0, c9000 <g_xCEcoStackTask1List_C761620F+0x37e20>
   8791c:	9134bc00 	add	x0, x0, #0xd2f
   87920:	39400000 	ldrb	w0, [x0]
   87924:	6b00003f 	cmp	w1, w0
   87928:	54000a21 	b.ne	87a6c <CEcoTimer1_0B569723Factory_Alloc+0x28c>  // b.any
   8792c:	f94013a0 	ldr	x0, [x29, #32]
   87930:	91002000 	add	x0, x0, #0x8
   87934:	39400001 	ldrb	w1, [x0]
   87938:	d0000200 	adrp	x0, c9000 <g_xCEcoStackTask1List_C761620F+0x37e20>
   8793c:	9134c000 	add	x0, x0, #0xd30
   87940:	39400000 	ldrb	w0, [x0]
   87944:	6b00003f 	cmp	w1, w0
   87948:	54000921 	b.ne	87a6c <CEcoTimer1_0B569723Factory_Alloc+0x28c>  // b.any
   8794c:	f94013a0 	ldr	x0, [x29, #32]
   87950:	91002400 	add	x0, x0, #0x9
   87954:	39400001 	ldrb	w1, [x0]
   87958:	d0000200 	adrp	x0, c9000 <g_xCEcoStackTask1List_C761620F+0x37e20>
   8795c:	9134c400 	add	x0, x0, #0xd31
   87960:	39400000 	ldrb	w0, [x0]
   87964:	6b00003f 	cmp	w1, w0
   87968:	54000821 	b.ne	87a6c <CEcoTimer1_0B569723Factory_Alloc+0x28c>  // b.any
   8796c:	f94013a0 	ldr	x0, [x29, #32]
   87970:	91002800 	add	x0, x0, #0xa
   87974:	39400001 	ldrb	w1, [x0]
   87978:	d0000200 	adrp	x0, c9000 <g_xCEcoStackTask1List_C761620F+0x37e20>
   8797c:	9134c800 	add	x0, x0, #0xd32
   87980:	39400000 	ldrb	w0, [x0]
   87984:	6b00003f 	cmp	w1, w0
   87988:	54000721 	b.ne	87a6c <CEcoTimer1_0B569723Factory_Alloc+0x28c>  // b.any
   8798c:	f94013a0 	ldr	x0, [x29, #32]
   87990:	91002c00 	add	x0, x0, #0xb
   87994:	39400001 	ldrb	w1, [x0]
   87998:	d0000200 	adrp	x0, c9000 <g_xCEcoStackTask1List_C761620F+0x37e20>
   8799c:	9134cc00 	add	x0, x0, #0xd33
   879a0:	39400000 	ldrb	w0, [x0]
   879a4:	6b00003f 	cmp	w1, w0
   879a8:	54000621 	b.ne	87a6c <CEcoTimer1_0B569723Factory_Alloc+0x28c>  // b.any
   879ac:	f94013a0 	ldr	x0, [x29, #32]
   879b0:	91003000 	add	x0, x0, #0xc
   879b4:	39400001 	ldrb	w1, [x0]
   879b8:	d0000200 	adrp	x0, c9000 <g_xCEcoStackTask1List_C761620F+0x37e20>
   879bc:	9134d000 	add	x0, x0, #0xd34
   879c0:	39400000 	ldrb	w0, [x0]
   879c4:	6b00003f 	cmp	w1, w0
   879c8:	54000521 	b.ne	87a6c <CEcoTimer1_0B569723Factory_Alloc+0x28c>  // b.any
   879cc:	f94013a0 	ldr	x0, [x29, #32]
   879d0:	91003400 	add	x0, x0, #0xd
   879d4:	39400001 	ldrb	w1, [x0]
   879d8:	d0000200 	adrp	x0, c9000 <g_xCEcoStackTask1List_C761620F+0x37e20>
   879dc:	9134d400 	add	x0, x0, #0xd35
   879e0:	39400000 	ldrb	w0, [x0]
   879e4:	6b00003f 	cmp	w1, w0
   879e8:	54000421 	b.ne	87a6c <CEcoTimer1_0B569723Factory_Alloc+0x28c>  // b.any
   879ec:	f94013a0 	ldr	x0, [x29, #32]
   879f0:	91003800 	add	x0, x0, #0xe
   879f4:	39400001 	ldrb	w1, [x0]
   879f8:	d0000200 	adrp	x0, c9000 <g_xCEcoStackTask1List_C761620F+0x37e20>
   879fc:	9134d800 	add	x0, x0, #0xd36
   87a00:	39400000 	ldrb	w0, [x0]
   87a04:	6b00003f 	cmp	w1, w0
   87a08:	54000321 	b.ne	87a6c <CEcoTimer1_0B569723Factory_Alloc+0x28c>  // b.any
   87a0c:	f94013a0 	ldr	x0, [x29, #32]
   87a10:	91003c00 	add	x0, x0, #0xf
   87a14:	39400001 	ldrb	w1, [x0]
   87a18:	d0000200 	adrp	x0, c9000 <g_xCEcoStackTask1List_C761620F+0x37e20>
   87a1c:	9134dc00 	add	x0, x0, #0xd37
   87a20:	39400000 	ldrb	w0, [x0]
   87a24:	6b00003f 	cmp	w1, w0
   87a28:	54000221 	b.ne	87a6c <CEcoTimer1_0B569723Factory_Alloc+0x28c>  // b.any
   87a2c:	f94013a0 	ldr	x0, [x29, #32]
   87a30:	91004000 	add	x0, x0, #0x10
   87a34:	39400001 	ldrb	w1, [x0]
   87a38:	d0000200 	adrp	x0, c9000 <g_xCEcoStackTask1List_C761620F+0x37e20>
   87a3c:	9134e000 	add	x0, x0, #0xd38
   87a40:	39400000 	ldrb	w0, [x0]
   87a44:	6b00003f 	cmp	w1, w0
   87a48:	54000121 	b.ne	87a6c <CEcoTimer1_0B569723Factory_Alloc+0x28c>  // b.any
   87a4c:	f94013a0 	ldr	x0, [x29, #32]
   87a50:	91004400 	add	x0, x0, #0x11
   87a54:	39400001 	ldrb	w1, [x0]
   87a58:	d0000200 	adrp	x0, c9000 <g_xCEcoStackTask1List_C761620F+0x37e20>
   87a5c:	9134e400 	add	x0, x0, #0xd39
   87a60:	39400000 	ldrb	w0, [x0]
   87a64:	6b00003f 	cmp	w1, w0
   87a68:	54000060 	b.eq	87a74 <CEcoTimer1_0B569723Factory_Alloc+0x294>  // b.none
   87a6c:	12800000 	mov	w0, #0xffffffff            	// #-1
   87a70:	14000028 	b	87b10 <CEcoTimer1_0B569723Factory_Alloc+0x330>
   87a74:	f9402fa0 	ldr	x0, [x29, #88]
   87a78:	f9400803 	ldr	x3, [x0, #16]
   87a7c:	910123a0 	add	x0, x29, #0x48
   87a80:	aa0003e2 	mov	x2, x0
   87a84:	f94017a1 	ldr	x1, [x29, #40]
   87a88:	f9401ba0 	ldr	x0, [x29, #48]
   87a8c:	d63f0060 	blr	x3
   87a90:	7900afa0 	strh	w0, [x29, #86]
   87a94:	79c0afa0 	ldrsh	w0, [x29, #86]
   87a98:	7100001f 	cmp	w0, #0x0
   87a9c:	54000081 	b.ne	87aac <CEcoTimer1_0B569723Factory_Alloc+0x2cc>  // b.any
   87aa0:	f94027a0 	ldr	x0, [x29, #72]
   87aa4:	f100001f 	cmp	x0, #0x0
   87aa8:	54000061 	b.ne	87ab4 <CEcoTimer1_0B569723Factory_Alloc+0x2d4>  // b.any
   87aac:	12800000 	mov	w0, #0xffffffff            	// #-1
   87ab0:	14000018 	b	87b10 <CEcoTimer1_0B569723Factory_Alloc+0x330>
   87ab4:	f9401fa0 	ldr	x0, [x29, #56]
   87ab8:	f9400000 	ldr	x0, [x0]
   87abc:	f9401003 	ldr	x3, [x0, #32]
   87ac0:	f94027a0 	ldr	x0, [x29, #72]
   87ac4:	aa0003e2 	mov	x2, x0
   87ac8:	f9401ba1 	ldr	x1, [x29, #48]
   87acc:	f9401fa0 	ldr	x0, [x29, #56]
   87ad0:	d63f0060 	blr	x3
   87ad4:	7900afa0 	strh	w0, [x29, #86]
   87ad8:	f94027a0 	ldr	x0, [x29, #72]
   87adc:	f9400000 	ldr	x0, [x0]
   87ae0:	f9400003 	ldr	x3, [x0]
   87ae4:	f94027a0 	ldr	x0, [x29, #72]
   87ae8:	f9400fa2 	ldr	x2, [x29, #24]
   87aec:	f94013a1 	ldr	x1, [x29, #32]
   87af0:	d63f0060 	blr	x3
   87af4:	7900afa0 	strh	w0, [x29, #86]
   87af8:	f94027a0 	ldr	x0, [x29, #72]
   87afc:	f9400000 	ldr	x0, [x0]
   87b00:	f9400801 	ldr	x1, [x0, #16]
   87b04:	f94027a0 	ldr	x0, [x29, #72]
   87b08:	d63f0020 	blr	x1
   87b0c:	79c0afa0 	ldrsh	w0, [x29, #86]
   87b10:	a8c67bfd 	ldp	x29, x30, [sp], #96
   87b14:	d65f03c0 	ret

0000000000087b18 <CEcoTimer1_0B569723Factory_get_Name>:
   87b18:	d10083ff 	sub	sp, sp, #0x20
   87b1c:	f90007e0 	str	x0, [sp, #8]
   87b20:	f94007e0 	ldr	x0, [sp, #8]
   87b24:	f9000fe0 	str	x0, [sp, #24]
   87b28:	f94007e0 	ldr	x0, [sp, #8]
   87b2c:	f100001f 	cmp	x0, #0x0
   87b30:	54000061 	b.ne	87b3c <CEcoTimer1_0B569723Factory_get_Name+0x24>  // b.any
   87b34:	d2800000 	mov	x0, #0x0                   	// #0
   87b38:	14000003 	b	87b44 <CEcoTimer1_0B569723Factory_get_Name+0x2c>
   87b3c:	f9400fe0 	ldr	x0, [sp, #24]
   87b40:	91008000 	add	x0, x0, #0x20
   87b44:	910083ff 	add	sp, sp, #0x20
   87b48:	d65f03c0 	ret

0000000000087b4c <CEcoTimer1_0B569723Factory_get_Version>:
   87b4c:	d10083ff 	sub	sp, sp, #0x20
   87b50:	f90007e0 	str	x0, [sp, #8]
   87b54:	f94007e0 	ldr	x0, [sp, #8]
   87b58:	f9000fe0 	str	x0, [sp, #24]
   87b5c:	f94007e0 	ldr	x0, [sp, #8]
   87b60:	f100001f 	cmp	x0, #0x0
   87b64:	54000061 	b.ne	87b70 <CEcoTimer1_0B569723Factory_get_Version+0x24>  // b.any
   87b68:	d2800000 	mov	x0, #0x0                   	// #0
   87b6c:	14000003 	b	87b78 <CEcoTimer1_0B569723Factory_get_Version+0x2c>
   87b70:	f9400fe0 	ldr	x0, [sp, #24]
   87b74:	91018000 	add	x0, x0, #0x60
   87b78:	910083ff 	add	sp, sp, #0x20
   87b7c:	d65f03c0 	ret

0000000000087b80 <CEcoTimer1_0B569723Factory_get_Manufacturer>:
   87b80:	d10083ff 	sub	sp, sp, #0x20
   87b84:	f90007e0 	str	x0, [sp, #8]
   87b88:	f94007e0 	ldr	x0, [sp, #8]
   87b8c:	f9000fe0 	str	x0, [sp, #24]
   87b90:	f94007e0 	ldr	x0, [sp, #8]
   87b94:	f100001f 	cmp	x0, #0x0
   87b98:	54000061 	b.ne	87ba4 <CEcoTimer1_0B569723Factory_get_Manufacturer+0x24>  // b.any
   87b9c:	d2800000 	mov	x0, #0x0                   	// #0
   87ba0:	14000003 	b	87bac <CEcoTimer1_0B569723Factory_get_Manufacturer+0x2c>
   87ba4:	f9400fe0 	ldr	x0, [sp, #24]
   87ba8:	9101c000 	add	x0, x0, #0x70
   87bac:	910083ff 	add	sp, sp, #0x20
   87bb0:	d65f03c0 	ret

0000000000087bb4 <CEcoTimer1_0B569723_QueryInterface>:
   87bb4:	a9bc7bfd 	stp	x29, x30, [sp, #-64]!
   87bb8:	910003fd 	mov	x29, sp
   87bbc:	f90017a0 	str	x0, [x29, #40]
   87bc0:	f90013a1 	str	x1, [x29, #32]
   87bc4:	f9000fa2 	str	x2, [x29, #24]
   87bc8:	f94017a0 	ldr	x0, [x29, #40]
   87bcc:	f9001fa0 	str	x0, [x29, #56]
   87bd0:	f94017a0 	ldr	x0, [x29, #40]
   87bd4:	f100001f 	cmp	x0, #0x0
   87bd8:	54000080 	b.eq	87be8 <CEcoTimer1_0B569723_QueryInterface+0x34>  // b.none
   87bdc:	f9400fa0 	ldr	x0, [x29, #24]
   87be0:	f100001f 	cmp	x0, #0x0
   87be4:	54000061 	b.ne	87bf0 <CEcoTimer1_0B569723_QueryInterface+0x3c>  // b.any
   87be8:	12800000 	mov	w0, #0xffffffff            	// #-1
   87bec:	140001cf 	b	88328 <CEcoTimer1_0B569723_QueryInterface+0x774>
   87bf0:	f94013a0 	ldr	x0, [x29, #32]
   87bf4:	39400001 	ldrb	w1, [x0]
   87bf8:	d0000200 	adrp	x0, c9000 <g_xCEcoStackTask1List_C761620F+0x37e20>
   87bfc:	913a4000 	add	x0, x0, #0xe90
   87c00:	39400000 	ldrb	w0, [x0]
   87c04:	6b00003f 	cmp	w1, w0
   87c08:	54001241 	b.ne	87e50 <CEcoTimer1_0B569723_QueryInterface+0x29c>  // b.any
   87c0c:	f94013a0 	ldr	x0, [x29, #32]
   87c10:	91000400 	add	x0, x0, #0x1
   87c14:	39400001 	ldrb	w1, [x0]
   87c18:	d0000200 	adrp	x0, c9000 <g_xCEcoStackTask1List_C761620F+0x37e20>
   87c1c:	913a4400 	add	x0, x0, #0xe91
   87c20:	39400000 	ldrb	w0, [x0]
   87c24:	6b00003f 	cmp	w1, w0
   87c28:	54001141 	b.ne	87e50 <CEcoTimer1_0B569723_QueryInterface+0x29c>  // b.any
   87c2c:	f94013a0 	ldr	x0, [x29, #32]
   87c30:	91000800 	add	x0, x0, #0x2
   87c34:	39400001 	ldrb	w1, [x0]
   87c38:	d0000200 	adrp	x0, c9000 <g_xCEcoStackTask1List_C761620F+0x37e20>
   87c3c:	913a4800 	add	x0, x0, #0xe92
   87c40:	39400000 	ldrb	w0, [x0]
   87c44:	6b00003f 	cmp	w1, w0
   87c48:	54001041 	b.ne	87e50 <CEcoTimer1_0B569723_QueryInterface+0x29c>  // b.any
   87c4c:	f94013a0 	ldr	x0, [x29, #32]
   87c50:	91000c00 	add	x0, x0, #0x3
   87c54:	39400001 	ldrb	w1, [x0]
   87c58:	d0000200 	adrp	x0, c9000 <g_xCEcoStackTask1List_C761620F+0x37e20>
   87c5c:	913a4c00 	add	x0, x0, #0xe93
   87c60:	39400000 	ldrb	w0, [x0]
   87c64:	6b00003f 	cmp	w1, w0
   87c68:	54000f41 	b.ne	87e50 <CEcoTimer1_0B569723_QueryInterface+0x29c>  // b.any
   87c6c:	f94013a0 	ldr	x0, [x29, #32]
   87c70:	91001000 	add	x0, x0, #0x4
   87c74:	39400001 	ldrb	w1, [x0]
   87c78:	d0000200 	adrp	x0, c9000 <g_xCEcoStackTask1List_C761620F+0x37e20>
   87c7c:	913a5000 	add	x0, x0, #0xe94
   87c80:	39400000 	ldrb	w0, [x0]
   87c84:	6b00003f 	cmp	w1, w0
   87c88:	54000e41 	b.ne	87e50 <CEcoTimer1_0B569723_QueryInterface+0x29c>  // b.any
   87c8c:	f94013a0 	ldr	x0, [x29, #32]
   87c90:	91001400 	add	x0, x0, #0x5
   87c94:	39400001 	ldrb	w1, [x0]
   87c98:	d0000200 	adrp	x0, c9000 <g_xCEcoStackTask1List_C761620F+0x37e20>
   87c9c:	913a5400 	add	x0, x0, #0xe95
   87ca0:	39400000 	ldrb	w0, [x0]
   87ca4:	6b00003f 	cmp	w1, w0
   87ca8:	54000d41 	b.ne	87e50 <CEcoTimer1_0B569723_QueryInterface+0x29c>  // b.any
   87cac:	f94013a0 	ldr	x0, [x29, #32]
   87cb0:	91001800 	add	x0, x0, #0x6
   87cb4:	39400001 	ldrb	w1, [x0]
   87cb8:	d0000200 	adrp	x0, c9000 <g_xCEcoStackTask1List_C761620F+0x37e20>
   87cbc:	913a5800 	add	x0, x0, #0xe96
   87cc0:	39400000 	ldrb	w0, [x0]
   87cc4:	6b00003f 	cmp	w1, w0
   87cc8:	54000c41 	b.ne	87e50 <CEcoTimer1_0B569723_QueryInterface+0x29c>  // b.any
   87ccc:	f94013a0 	ldr	x0, [x29, #32]
   87cd0:	91001c00 	add	x0, x0, #0x7
   87cd4:	39400001 	ldrb	w1, [x0]
   87cd8:	d0000200 	adrp	x0, c9000 <g_xCEcoStackTask1List_C761620F+0x37e20>
   87cdc:	913a5c00 	add	x0, x0, #0xe97
   87ce0:	39400000 	ldrb	w0, [x0]
   87ce4:	6b00003f 	cmp	w1, w0
   87ce8:	54000b41 	b.ne	87e50 <CEcoTimer1_0B569723_QueryInterface+0x29c>  // b.any
   87cec:	f94013a0 	ldr	x0, [x29, #32]
   87cf0:	91002000 	add	x0, x0, #0x8
   87cf4:	39400001 	ldrb	w1, [x0]
   87cf8:	d0000200 	adrp	x0, c9000 <g_xCEcoStackTask1List_C761620F+0x37e20>
   87cfc:	913a6000 	add	x0, x0, #0xe98
   87d00:	39400000 	ldrb	w0, [x0]
   87d04:	6b00003f 	cmp	w1, w0
   87d08:	54000a41 	b.ne	87e50 <CEcoTimer1_0B569723_QueryInterface+0x29c>  // b.any
   87d0c:	f94013a0 	ldr	x0, [x29, #32]
   87d10:	91002400 	add	x0, x0, #0x9
   87d14:	39400001 	ldrb	w1, [x0]
   87d18:	d0000200 	adrp	x0, c9000 <g_xCEcoStackTask1List_C761620F+0x37e20>
   87d1c:	913a6400 	add	x0, x0, #0xe99
   87d20:	39400000 	ldrb	w0, [x0]
   87d24:	6b00003f 	cmp	w1, w0
   87d28:	54000941 	b.ne	87e50 <CEcoTimer1_0B569723_QueryInterface+0x29c>  // b.any
   87d2c:	f94013a0 	ldr	x0, [x29, #32]
   87d30:	91002800 	add	x0, x0, #0xa
   87d34:	39400001 	ldrb	w1, [x0]
   87d38:	d0000200 	adrp	x0, c9000 <g_xCEcoStackTask1List_C761620F+0x37e20>
   87d3c:	913a6800 	add	x0, x0, #0xe9a
   87d40:	39400000 	ldrb	w0, [x0]
   87d44:	6b00003f 	cmp	w1, w0
   87d48:	54000841 	b.ne	87e50 <CEcoTimer1_0B569723_QueryInterface+0x29c>  // b.any
   87d4c:	f94013a0 	ldr	x0, [x29, #32]
   87d50:	91002c00 	add	x0, x0, #0xb
   87d54:	39400001 	ldrb	w1, [x0]
   87d58:	d0000200 	adrp	x0, c9000 <g_xCEcoStackTask1List_C761620F+0x37e20>
   87d5c:	913a6c00 	add	x0, x0, #0xe9b
   87d60:	39400000 	ldrb	w0, [x0]
   87d64:	6b00003f 	cmp	w1, w0
   87d68:	54000741 	b.ne	87e50 <CEcoTimer1_0B569723_QueryInterface+0x29c>  // b.any
   87d6c:	f94013a0 	ldr	x0, [x29, #32]
   87d70:	91003000 	add	x0, x0, #0xc
   87d74:	39400001 	ldrb	w1, [x0]
   87d78:	d0000200 	adrp	x0, c9000 <g_xCEcoStackTask1List_C761620F+0x37e20>
   87d7c:	913a7000 	add	x0, x0, #0xe9c
   87d80:	39400000 	ldrb	w0, [x0]
   87d84:	6b00003f 	cmp	w1, w0
   87d88:	54000641 	b.ne	87e50 <CEcoTimer1_0B569723_QueryInterface+0x29c>  // b.any
   87d8c:	f94013a0 	ldr	x0, [x29, #32]
   87d90:	91003400 	add	x0, x0, #0xd
   87d94:	39400001 	ldrb	w1, [x0]
   87d98:	d0000200 	adrp	x0, c9000 <g_xCEcoStackTask1List_C761620F+0x37e20>
   87d9c:	913a7400 	add	x0, x0, #0xe9d
   87da0:	39400000 	ldrb	w0, [x0]
   87da4:	6b00003f 	cmp	w1, w0
   87da8:	54000541 	b.ne	87e50 <CEcoTimer1_0B569723_QueryInterface+0x29c>  // b.any
   87dac:	f94013a0 	ldr	x0, [x29, #32]
   87db0:	91003800 	add	x0, x0, #0xe
   87db4:	39400001 	ldrb	w1, [x0]
   87db8:	d0000200 	adrp	x0, c9000 <g_xCEcoStackTask1List_C761620F+0x37e20>
   87dbc:	913a7800 	add	x0, x0, #0xe9e
   87dc0:	39400000 	ldrb	w0, [x0]
   87dc4:	6b00003f 	cmp	w1, w0
   87dc8:	54000441 	b.ne	87e50 <CEcoTimer1_0B569723_QueryInterface+0x29c>  // b.any
   87dcc:	f94013a0 	ldr	x0, [x29, #32]
   87dd0:	91003c00 	add	x0, x0, #0xf
   87dd4:	39400001 	ldrb	w1, [x0]
   87dd8:	d0000200 	adrp	x0, c9000 <g_xCEcoStackTask1List_C761620F+0x37e20>
   87ddc:	913a7c00 	add	x0, x0, #0xe9f
   87de0:	39400000 	ldrb	w0, [x0]
   87de4:	6b00003f 	cmp	w1, w0
   87de8:	54000341 	b.ne	87e50 <CEcoTimer1_0B569723_QueryInterface+0x29c>  // b.any
   87dec:	f94013a0 	ldr	x0, [x29, #32]
   87df0:	91004000 	add	x0, x0, #0x10
   87df4:	39400001 	ldrb	w1, [x0]
   87df8:	d0000200 	adrp	x0, c9000 <g_xCEcoStackTask1List_C761620F+0x37e20>
   87dfc:	913a8000 	add	x0, x0, #0xea0
   87e00:	39400000 	ldrb	w0, [x0]
   87e04:	6b00003f 	cmp	w1, w0
   87e08:	54000241 	b.ne	87e50 <CEcoTimer1_0B569723_QueryInterface+0x29c>  // b.any
   87e0c:	f94013a0 	ldr	x0, [x29, #32]
   87e10:	91004400 	add	x0, x0, #0x11
   87e14:	39400001 	ldrb	w1, [x0]
   87e18:	d0000200 	adrp	x0, c9000 <g_xCEcoStackTask1List_C761620F+0x37e20>
   87e1c:	913a8400 	add	x0, x0, #0xea1
   87e20:	39400000 	ldrb	w0, [x0]
   87e24:	6b00003f 	cmp	w1, w0
   87e28:	54000141 	b.ne	87e50 <CEcoTimer1_0B569723_QueryInterface+0x29c>  // b.any
   87e2c:	f9401fa1 	ldr	x1, [x29, #56]
   87e30:	f9400fa0 	ldr	x0, [x29, #24]
   87e34:	f9000001 	str	x1, [x0]
   87e38:	f9401fa0 	ldr	x0, [x29, #56]
   87e3c:	f9400000 	ldr	x0, [x0]
   87e40:	f9400401 	ldr	x1, [x0, #8]
   87e44:	f9401fa0 	ldr	x0, [x29, #56]
   87e48:	d63f0020 	blr	x1
   87e4c:	14000136 	b	88324 <CEcoTimer1_0B569723_QueryInterface+0x770>
   87e50:	f94013a0 	ldr	x0, [x29, #32]
   87e54:	39400001 	ldrb	w1, [x0]
   87e58:	d0000200 	adrp	x0, c9000 <g_xCEcoStackTask1List_C761620F+0x37e20>
   87e5c:	913aa000 	add	x0, x0, #0xea8
   87e60:	39400000 	ldrb	w0, [x0]
   87e64:	6b00003f 	cmp	w1, w0
   87e68:	54001261 	b.ne	880b4 <CEcoTimer1_0B569723_QueryInterface+0x500>  // b.any
   87e6c:	f94013a0 	ldr	x0, [x29, #32]
   87e70:	91000400 	add	x0, x0, #0x1
   87e74:	39400001 	ldrb	w1, [x0]
   87e78:	d0000200 	adrp	x0, c9000 <g_xCEcoStackTask1List_C761620F+0x37e20>
   87e7c:	913aa400 	add	x0, x0, #0xea9
   87e80:	39400000 	ldrb	w0, [x0]
   87e84:	6b00003f 	cmp	w1, w0
   87e88:	54001161 	b.ne	880b4 <CEcoTimer1_0B569723_QueryInterface+0x500>  // b.any
   87e8c:	f94013a0 	ldr	x0, [x29, #32]
   87e90:	91000800 	add	x0, x0, #0x2
   87e94:	39400001 	ldrb	w1, [x0]
   87e98:	d0000200 	adrp	x0, c9000 <g_xCEcoStackTask1List_C761620F+0x37e20>
   87e9c:	913aa800 	add	x0, x0, #0xeaa
   87ea0:	39400000 	ldrb	w0, [x0]
   87ea4:	6b00003f 	cmp	w1, w0
   87ea8:	54001061 	b.ne	880b4 <CEcoTimer1_0B569723_QueryInterface+0x500>  // b.any
   87eac:	f94013a0 	ldr	x0, [x29, #32]
   87eb0:	91000c00 	add	x0, x0, #0x3
   87eb4:	39400001 	ldrb	w1, [x0]
   87eb8:	d0000200 	adrp	x0, c9000 <g_xCEcoStackTask1List_C761620F+0x37e20>
   87ebc:	913aac00 	add	x0, x0, #0xeab
   87ec0:	39400000 	ldrb	w0, [x0]
   87ec4:	6b00003f 	cmp	w1, w0
   87ec8:	54000f61 	b.ne	880b4 <CEcoTimer1_0B569723_QueryInterface+0x500>  // b.any
   87ecc:	f94013a0 	ldr	x0, [x29, #32]
   87ed0:	91001000 	add	x0, x0, #0x4
   87ed4:	39400001 	ldrb	w1, [x0]
   87ed8:	d0000200 	adrp	x0, c9000 <g_xCEcoStackTask1List_C761620F+0x37e20>
   87edc:	913ab000 	add	x0, x0, #0xeac
   87ee0:	39400000 	ldrb	w0, [x0]
   87ee4:	6b00003f 	cmp	w1, w0
   87ee8:	54000e61 	b.ne	880b4 <CEcoTimer1_0B569723_QueryInterface+0x500>  // b.any
   87eec:	f94013a0 	ldr	x0, [x29, #32]
   87ef0:	91001400 	add	x0, x0, #0x5
   87ef4:	39400001 	ldrb	w1, [x0]
   87ef8:	d0000200 	adrp	x0, c9000 <g_xCEcoStackTask1List_C761620F+0x37e20>
   87efc:	913ab400 	add	x0, x0, #0xead
   87f00:	39400000 	ldrb	w0, [x0]
   87f04:	6b00003f 	cmp	w1, w0
   87f08:	54000d61 	b.ne	880b4 <CEcoTimer1_0B569723_QueryInterface+0x500>  // b.any
   87f0c:	f94013a0 	ldr	x0, [x29, #32]
   87f10:	91001800 	add	x0, x0, #0x6
   87f14:	39400001 	ldrb	w1, [x0]
   87f18:	d0000200 	adrp	x0, c9000 <g_xCEcoStackTask1List_C761620F+0x37e20>
   87f1c:	913ab800 	add	x0, x0, #0xeae
   87f20:	39400000 	ldrb	w0, [x0]
   87f24:	6b00003f 	cmp	w1, w0
   87f28:	54000c61 	b.ne	880b4 <CEcoTimer1_0B569723_QueryInterface+0x500>  // b.any
   87f2c:	f94013a0 	ldr	x0, [x29, #32]
   87f30:	91001c00 	add	x0, x0, #0x7
   87f34:	39400001 	ldrb	w1, [x0]
   87f38:	d0000200 	adrp	x0, c9000 <g_xCEcoStackTask1List_C761620F+0x37e20>
   87f3c:	913abc00 	add	x0, x0, #0xeaf
   87f40:	39400000 	ldrb	w0, [x0]
   87f44:	6b00003f 	cmp	w1, w0
   87f48:	54000b61 	b.ne	880b4 <CEcoTimer1_0B569723_QueryInterface+0x500>  // b.any
   87f4c:	f94013a0 	ldr	x0, [x29, #32]
   87f50:	91002000 	add	x0, x0, #0x8
   87f54:	39400001 	ldrb	w1, [x0]
   87f58:	d0000200 	adrp	x0, c9000 <g_xCEcoStackTask1List_C761620F+0x37e20>
   87f5c:	913ac000 	add	x0, x0, #0xeb0
   87f60:	39400000 	ldrb	w0, [x0]
   87f64:	6b00003f 	cmp	w1, w0
   87f68:	54000a61 	b.ne	880b4 <CEcoTimer1_0B569723_QueryInterface+0x500>  // b.any
   87f6c:	f94013a0 	ldr	x0, [x29, #32]
   87f70:	91002400 	add	x0, x0, #0x9
   87f74:	39400001 	ldrb	w1, [x0]
   87f78:	d0000200 	adrp	x0, c9000 <g_xCEcoStackTask1List_C761620F+0x37e20>
   87f7c:	913ac400 	add	x0, x0, #0xeb1
   87f80:	39400000 	ldrb	w0, [x0]
   87f84:	6b00003f 	cmp	w1, w0
   87f88:	54000961 	b.ne	880b4 <CEcoTimer1_0B569723_QueryInterface+0x500>  // b.any
   87f8c:	f94013a0 	ldr	x0, [x29, #32]
   87f90:	91002800 	add	x0, x0, #0xa
   87f94:	39400001 	ldrb	w1, [x0]
   87f98:	d0000200 	adrp	x0, c9000 <g_xCEcoStackTask1List_C761620F+0x37e20>
   87f9c:	913ac800 	add	x0, x0, #0xeb2
   87fa0:	39400000 	ldrb	w0, [x0]
   87fa4:	6b00003f 	cmp	w1, w0
   87fa8:	54000861 	b.ne	880b4 <CEcoTimer1_0B569723_QueryInterface+0x500>  // b.any
   87fac:	f94013a0 	ldr	x0, [x29, #32]
   87fb0:	91002c00 	add	x0, x0, #0xb
   87fb4:	39400001 	ldrb	w1, [x0]
   87fb8:	d0000200 	adrp	x0, c9000 <g_xCEcoStackTask1List_C761620F+0x37e20>
   87fbc:	913acc00 	add	x0, x0, #0xeb3
   87fc0:	39400000 	ldrb	w0, [x0]
   87fc4:	6b00003f 	cmp	w1, w0
   87fc8:	54000761 	b.ne	880b4 <CEcoTimer1_0B569723_QueryInterface+0x500>  // b.any
   87fcc:	f94013a0 	ldr	x0, [x29, #32]
   87fd0:	91003000 	add	x0, x0, #0xc
   87fd4:	39400001 	ldrb	w1, [x0]
   87fd8:	d0000200 	adrp	x0, c9000 <g_xCEcoStackTask1List_C761620F+0x37e20>
   87fdc:	913ad000 	add	x0, x0, #0xeb4
   87fe0:	39400000 	ldrb	w0, [x0]
   87fe4:	6b00003f 	cmp	w1, w0
   87fe8:	54000661 	b.ne	880b4 <CEcoTimer1_0B569723_QueryInterface+0x500>  // b.any
   87fec:	f94013a0 	ldr	x0, [x29, #32]
   87ff0:	91003400 	add	x0, x0, #0xd
   87ff4:	39400001 	ldrb	w1, [x0]
   87ff8:	d0000200 	adrp	x0, c9000 <g_xCEcoStackTask1List_C761620F+0x37e20>
   87ffc:	913ad400 	add	x0, x0, #0xeb5
   88000:	39400000 	ldrb	w0, [x0]
   88004:	6b00003f 	cmp	w1, w0
   88008:	54000561 	b.ne	880b4 <CEcoTimer1_0B569723_QueryInterface+0x500>  // b.any
   8800c:	f94013a0 	ldr	x0, [x29, #32]
   88010:	91003800 	add	x0, x0, #0xe
   88014:	39400001 	ldrb	w1, [x0]
   88018:	b0000200 	adrp	x0, c9000 <g_xCEcoStackTask1List_C761620F+0x37e20>
   8801c:	913ad800 	add	x0, x0, #0xeb6
   88020:	39400000 	ldrb	w0, [x0]
   88024:	6b00003f 	cmp	w1, w0
   88028:	54000461 	b.ne	880b4 <CEcoTimer1_0B569723_QueryInterface+0x500>  // b.any
   8802c:	f94013a0 	ldr	x0, [x29, #32]
   88030:	91003c00 	add	x0, x0, #0xf
   88034:	39400001 	ldrb	w1, [x0]
   88038:	b0000200 	adrp	x0, c9000 <g_xCEcoStackTask1List_C761620F+0x37e20>
   8803c:	913adc00 	add	x0, x0, #0xeb7
   88040:	39400000 	ldrb	w0, [x0]
   88044:	6b00003f 	cmp	w1, w0
   88048:	54000361 	b.ne	880b4 <CEcoTimer1_0B569723_QueryInterface+0x500>  // b.any
   8804c:	f94013a0 	ldr	x0, [x29, #32]
   88050:	91004000 	add	x0, x0, #0x10
   88054:	39400001 	ldrb	w1, [x0]
   88058:	b0000200 	adrp	x0, c9000 <g_xCEcoStackTask1List_C761620F+0x37e20>
   8805c:	913ae000 	add	x0, x0, #0xeb8
   88060:	39400000 	ldrb	w0, [x0]
   88064:	6b00003f 	cmp	w1, w0
   88068:	54000261 	b.ne	880b4 <CEcoTimer1_0B569723_QueryInterface+0x500>  // b.any
   8806c:	f94013a0 	ldr	x0, [x29, #32]
   88070:	91004400 	add	x0, x0, #0x11
   88074:	39400001 	ldrb	w1, [x0]
   88078:	b0000200 	adrp	x0, c9000 <g_xCEcoStackTask1List_C761620F+0x37e20>
   8807c:	913ae400 	add	x0, x0, #0xeb9
   88080:	39400000 	ldrb	w0, [x0]
   88084:	6b00003f 	cmp	w1, w0
   88088:	54000161 	b.ne	880b4 <CEcoTimer1_0B569723_QueryInterface+0x500>  // b.any
   8808c:	f9401fa0 	ldr	x0, [x29, #56]
   88090:	91002001 	add	x1, x0, #0x8
   88094:	f9400fa0 	ldr	x0, [x29, #24]
   88098:	f9000001 	str	x1, [x0]
   8809c:	f9401fa0 	ldr	x0, [x29, #56]
   880a0:	f9400000 	ldr	x0, [x0]
   880a4:	f9400401 	ldr	x1, [x0, #8]
   880a8:	f9401fa0 	ldr	x0, [x29, #56]
   880ac:	d63f0020 	blr	x1
   880b0:	1400009d 	b	88324 <CEcoTimer1_0B569723_QueryInterface+0x770>
   880b4:	f94013a0 	ldr	x0, [x29, #32]
   880b8:	39400001 	ldrb	w1, [x0]
   880bc:	b0000200 	adrp	x0, c9000 <g_xCEcoStackTask1List_C761620F+0x37e20>
   880c0:	91386000 	add	x0, x0, #0xe18
   880c4:	39400000 	ldrb	w0, [x0]
   880c8:	6b00003f 	cmp	w1, w0
   880cc:	54001241 	b.ne	88314 <CEcoTimer1_0B569723_QueryInterface+0x760>  // b.any
   880d0:	f94013a0 	ldr	x0, [x29, #32]
   880d4:	91000400 	add	x0, x0, #0x1
   880d8:	39400001 	ldrb	w1, [x0]
   880dc:	b0000200 	adrp	x0, c9000 <g_xCEcoStackTask1List_C761620F+0x37e20>
   880e0:	91386400 	add	x0, x0, #0xe19
   880e4:	39400000 	ldrb	w0, [x0]
   880e8:	6b00003f 	cmp	w1, w0
   880ec:	54001141 	b.ne	88314 <CEcoTimer1_0B569723_QueryInterface+0x760>  // b.any
   880f0:	f94013a0 	ldr	x0, [x29, #32]
   880f4:	91000800 	add	x0, x0, #0x2
   880f8:	39400001 	ldrb	w1, [x0]
   880fc:	b0000200 	adrp	x0, c9000 <g_xCEcoStackTask1List_C761620F+0x37e20>
   88100:	91386800 	add	x0, x0, #0xe1a
   88104:	39400000 	ldrb	w0, [x0]
   88108:	6b00003f 	cmp	w1, w0
   8810c:	54001041 	b.ne	88314 <CEcoTimer1_0B569723_QueryInterface+0x760>  // b.any
   88110:	f94013a0 	ldr	x0, [x29, #32]
   88114:	91000c00 	add	x0, x0, #0x3
   88118:	39400001 	ldrb	w1, [x0]
   8811c:	b0000200 	adrp	x0, c9000 <g_xCEcoStackTask1List_C761620F+0x37e20>
   88120:	91386c00 	add	x0, x0, #0xe1b
   88124:	39400000 	ldrb	w0, [x0]
   88128:	6b00003f 	cmp	w1, w0
   8812c:	54000f41 	b.ne	88314 <CEcoTimer1_0B569723_QueryInterface+0x760>  // b.any
   88130:	f94013a0 	ldr	x0, [x29, #32]
   88134:	91001000 	add	x0, x0, #0x4
   88138:	39400001 	ldrb	w1, [x0]
   8813c:	b0000200 	adrp	x0, c9000 <g_xCEcoStackTask1List_C761620F+0x37e20>
   88140:	91387000 	add	x0, x0, #0xe1c
   88144:	39400000 	ldrb	w0, [x0]
   88148:	6b00003f 	cmp	w1, w0
   8814c:	54000e41 	b.ne	88314 <CEcoTimer1_0B569723_QueryInterface+0x760>  // b.any
   88150:	f94013a0 	ldr	x0, [x29, #32]
   88154:	91001400 	add	x0, x0, #0x5
   88158:	39400001 	ldrb	w1, [x0]
   8815c:	b0000200 	adrp	x0, c9000 <g_xCEcoStackTask1List_C761620F+0x37e20>
   88160:	91387400 	add	x0, x0, #0xe1d
   88164:	39400000 	ldrb	w0, [x0]
   88168:	6b00003f 	cmp	w1, w0
   8816c:	54000d41 	b.ne	88314 <CEcoTimer1_0B569723_QueryInterface+0x760>  // b.any
   88170:	f94013a0 	ldr	x0, [x29, #32]
   88174:	91001800 	add	x0, x0, #0x6
   88178:	39400001 	ldrb	w1, [x0]
   8817c:	b0000200 	adrp	x0, c9000 <g_xCEcoStackTask1List_C761620F+0x37e20>
   88180:	91387800 	add	x0, x0, #0xe1e
   88184:	39400000 	ldrb	w0, [x0]
   88188:	6b00003f 	cmp	w1, w0
   8818c:	54000c41 	b.ne	88314 <CEcoTimer1_0B569723_QueryInterface+0x760>  // b.any
   88190:	f94013a0 	ldr	x0, [x29, #32]
   88194:	91001c00 	add	x0, x0, #0x7
   88198:	39400001 	ldrb	w1, [x0]
   8819c:	b0000200 	adrp	x0, c9000 <g_xCEcoStackTask1List_C761620F+0x37e20>
   881a0:	91387c00 	add	x0, x0, #0xe1f
   881a4:	39400000 	ldrb	w0, [x0]
   881a8:	6b00003f 	cmp	w1, w0
   881ac:	54000b41 	b.ne	88314 <CEcoTimer1_0B569723_QueryInterface+0x760>  // b.any
   881b0:	f94013a0 	ldr	x0, [x29, #32]
   881b4:	91002000 	add	x0, x0, #0x8
   881b8:	39400001 	ldrb	w1, [x0]
   881bc:	b0000200 	adrp	x0, c9000 <g_xCEcoStackTask1List_C761620F+0x37e20>
   881c0:	91388000 	add	x0, x0, #0xe20
   881c4:	39400000 	ldrb	w0, [x0]
   881c8:	6b00003f 	cmp	w1, w0
   881cc:	54000a41 	b.ne	88314 <CEcoTimer1_0B569723_QueryInterface+0x760>  // b.any
   881d0:	f94013a0 	ldr	x0, [x29, #32]
   881d4:	91002400 	add	x0, x0, #0x9
   881d8:	39400001 	ldrb	w1, [x0]
   881dc:	b0000200 	adrp	x0, c9000 <g_xCEcoStackTask1List_C761620F+0x37e20>
   881e0:	91388400 	add	x0, x0, #0xe21
   881e4:	39400000 	ldrb	w0, [x0]
   881e8:	6b00003f 	cmp	w1, w0
   881ec:	54000941 	b.ne	88314 <CEcoTimer1_0B569723_QueryInterface+0x760>  // b.any
   881f0:	f94013a0 	ldr	x0, [x29, #32]
   881f4:	91002800 	add	x0, x0, #0xa
   881f8:	39400001 	ldrb	w1, [x0]
   881fc:	b0000200 	adrp	x0, c9000 <g_xCEcoStackTask1List_C761620F+0x37e20>
   88200:	91388800 	add	x0, x0, #0xe22
   88204:	39400000 	ldrb	w0, [x0]
   88208:	6b00003f 	cmp	w1, w0
   8820c:	54000841 	b.ne	88314 <CEcoTimer1_0B569723_QueryInterface+0x760>  // b.any
   88210:	f94013a0 	ldr	x0, [x29, #32]
   88214:	91002c00 	add	x0, x0, #0xb
   88218:	39400001 	ldrb	w1, [x0]
   8821c:	b0000200 	adrp	x0, c9000 <g_xCEcoStackTask1List_C761620F+0x37e20>
   88220:	91388c00 	add	x0, x0, #0xe23
   88224:	39400000 	ldrb	w0, [x0]
   88228:	6b00003f 	cmp	w1, w0
   8822c:	54000741 	b.ne	88314 <CEcoTimer1_0B569723_QueryInterface+0x760>  // b.any
   88230:	f94013a0 	ldr	x0, [x29, #32]
   88234:	91003000 	add	x0, x0, #0xc
   88238:	39400001 	ldrb	w1, [x0]
   8823c:	b0000200 	adrp	x0, c9000 <g_xCEcoStackTask1List_C761620F+0x37e20>
   88240:	91389000 	add	x0, x0, #0xe24
   88244:	39400000 	ldrb	w0, [x0]
   88248:	6b00003f 	cmp	w1, w0
   8824c:	54000641 	b.ne	88314 <CEcoTimer1_0B569723_QueryInterface+0x760>  // b.any
   88250:	f94013a0 	ldr	x0, [x29, #32]
   88254:	91003400 	add	x0, x0, #0xd
   88258:	39400001 	ldrb	w1, [x0]
   8825c:	b0000200 	adrp	x0, c9000 <g_xCEcoStackTask1List_C761620F+0x37e20>
   88260:	91389400 	add	x0, x0, #0xe25
   88264:	39400000 	ldrb	w0, [x0]
   88268:	6b00003f 	cmp	w1, w0
   8826c:	54000541 	b.ne	88314 <CEcoTimer1_0B569723_QueryInterface+0x760>  // b.any
   88270:	f94013a0 	ldr	x0, [x29, #32]
   88274:	91003800 	add	x0, x0, #0xe
   88278:	39400001 	ldrb	w1, [x0]
   8827c:	b0000200 	adrp	x0, c9000 <g_xCEcoStackTask1List_C761620F+0x37e20>
   88280:	91389800 	add	x0, x0, #0xe26
   88284:	39400000 	ldrb	w0, [x0]
   88288:	6b00003f 	cmp	w1, w0
   8828c:	54000441 	b.ne	88314 <CEcoTimer1_0B569723_QueryInterface+0x760>  // b.any
   88290:	f94013a0 	ldr	x0, [x29, #32]
   88294:	91003c00 	add	x0, x0, #0xf
   88298:	39400001 	ldrb	w1, [x0]
   8829c:	b0000200 	adrp	x0, c9000 <g_xCEcoStackTask1List_C761620F+0x37e20>
   882a0:	91389c00 	add	x0, x0, #0xe27
   882a4:	39400000 	ldrb	w0, [x0]
   882a8:	6b00003f 	cmp	w1, w0
   882ac:	54000341 	b.ne	88314 <CEcoTimer1_0B569723_QueryInterface+0x760>  // b.any
   882b0:	f94013a0 	ldr	x0, [x29, #32]
   882b4:	91004000 	add	x0, x0, #0x10
   882b8:	39400001 	ldrb	w1, [x0]
   882bc:	b0000200 	adrp	x0, c9000 <g_xCEcoStackTask1List_C761620F+0x37e20>
   882c0:	9138a000 	add	x0, x0, #0xe28
   882c4:	39400000 	ldrb	w0, [x0]
   882c8:	6b00003f 	cmp	w1, w0
   882cc:	54000241 	b.ne	88314 <CEcoTimer1_0B569723_QueryInterface+0x760>  // b.any
   882d0:	f94013a0 	ldr	x0, [x29, #32]
   882d4:	91004400 	add	x0, x0, #0x11
   882d8:	39400001 	ldrb	w1, [x0]
   882dc:	b0000200 	adrp	x0, c9000 <g_xCEcoStackTask1List_C761620F+0x37e20>
   882e0:	9138a400 	add	x0, x0, #0xe29
   882e4:	39400000 	ldrb	w0, [x0]
   882e8:	6b00003f 	cmp	w1, w0
   882ec:	54000141 	b.ne	88314 <CEcoTimer1_0B569723_QueryInterface+0x760>  // b.any
   882f0:	f9401fa1 	ldr	x1, [x29, #56]
   882f4:	f9400fa0 	ldr	x0, [x29, #24]
   882f8:	f9000001 	str	x1, [x0]
   882fc:	f9401fa0 	ldr	x0, [x29, #56]
   88300:	f9400000 	ldr	x0, [x0]
   88304:	f9400401 	ldr	x1, [x0, #8]
   88308:	f9401fa0 	ldr	x0, [x29, #56]
   8830c:	d63f0020 	blr	x1
   88310:	14000005 	b	88324 <CEcoTimer1_0B569723_QueryInterface+0x770>
   88314:	f9400fa0 	ldr	x0, [x29, #24]
   88318:	f900001f 	str	xzr, [x0]
   8831c:	12800000 	mov	w0, #0xffffffff            	// #-1
   88320:	14000002 	b	88328 <CEcoTimer1_0B569723_QueryInterface+0x774>
   88324:	52800000 	mov	w0, #0x0                   	// #0
   88328:	a8c47bfd 	ldp	x29, x30, [sp], #64
   8832c:	d65f03c0 	ret

0000000000088330 <CEcoTimer1_0B569723_AddRef>:
   88330:	d10083ff 	sub	sp, sp, #0x20
   88334:	f90007e0 	str	x0, [sp, #8]
   88338:	f94007e0 	ldr	x0, [sp, #8]
   8833c:	f9000fe0 	str	x0, [sp, #24]
   88340:	f94007e0 	ldr	x0, [sp, #8]
   88344:	f100001f 	cmp	x0, #0x0
   88348:	54000061 	b.ne	88354 <CEcoTimer1_0B569723_AddRef+0x24>  // b.any
   8834c:	12800000 	mov	w0, #0xffffffff            	// #-1
   88350:	14000008 	b	88370 <CEcoTimer1_0B569723_AddRef+0x40>
   88354:	f9400fe0 	ldr	x0, [sp, #24]
   88358:	b9401000 	ldr	w0, [x0, #16]
   8835c:	11000401 	add	w1, w0, #0x1
   88360:	f9400fe0 	ldr	x0, [sp, #24]
   88364:	b9001001 	str	w1, [x0, #16]
   88368:	f9400fe0 	ldr	x0, [sp, #24]
   8836c:	b9401000 	ldr	w0, [x0, #16]
   88370:	910083ff 	add	sp, sp, #0x20
   88374:	d65f03c0 	ret

0000000000088378 <CEcoTimer1_0B569723_Release>:
   88378:	a9bd7bfd 	stp	x29, x30, [sp, #-48]!
   8837c:	910003fd 	mov	x29, sp
   88380:	f9000fa0 	str	x0, [x29, #24]
   88384:	f9400fa0 	ldr	x0, [x29, #24]
   88388:	f90017a0 	str	x0, [x29, #40]
   8838c:	f9400fa0 	ldr	x0, [x29, #24]
   88390:	f100001f 	cmp	x0, #0x0
   88394:	54000061 	b.ne	883a0 <CEcoTimer1_0B569723_Release+0x28>  // b.any
   88398:	12800000 	mov	w0, #0xffffffff            	// #-1
   8839c:	14000010 	b	883dc <CEcoTimer1_0B569723_Release+0x64>
   883a0:	f94017a0 	ldr	x0, [x29, #40]
   883a4:	b9401000 	ldr	w0, [x0, #16]
   883a8:	51000401 	sub	w1, w0, #0x1
   883ac:	f94017a0 	ldr	x0, [x29, #40]
   883b0:	b9001001 	str	w1, [x0, #16]
   883b4:	f94017a0 	ldr	x0, [x29, #40]
   883b8:	b9401000 	ldr	w0, [x0, #16]
   883bc:	7100001f 	cmp	w0, #0x0
   883c0:	540000a1 	b.ne	883d4 <CEcoTimer1_0B569723_Release+0x5c>  // b.any
   883c4:	f94017a0 	ldr	x0, [x29, #40]
   883c8:	940003bc 	bl	892b8 <deleteCEcoTimer1_0B569723>
   883cc:	52800000 	mov	w0, #0x0                   	// #0
   883d0:	14000003 	b	883dc <CEcoTimer1_0B569723_Release+0x64>
   883d4:	f94017a0 	ldr	x0, [x29, #40]
   883d8:	b9401000 	ldr	w0, [x0, #16]
   883dc:	a8c37bfd 	ldp	x29, x30, [sp], #48
   883e0:	d65f03c0 	ret

00000000000883e4 <CEcoTimer1_0B569723_set_Interval>:
   883e4:	d10083ff 	sub	sp, sp, #0x20
   883e8:	f90007e0 	str	x0, [sp, #8]
   883ec:	b90007e1 	str	w1, [sp, #4]
   883f0:	f94007e0 	ldr	x0, [sp, #8]
   883f4:	f9000fe0 	str	x0, [sp, #24]
   883f8:	f94007e0 	ldr	x0, [sp, #8]
   883fc:	f100001f 	cmp	x0, #0x0
   88400:	540000c0 	b.eq	88418 <CEcoTimer1_0B569723_set_Interval+0x34>  // b.none
   88404:	f9400fe0 	ldr	x0, [sp, #24]
   88408:	b94007e1 	ldr	w1, [sp, #4]
   8840c:	b9003801 	str	w1, [x0, #56]
   88410:	d503201f 	nop
   88414:	14000002 	b	8841c <CEcoTimer1_0B569723_set_Interval+0x38>
   88418:	d503201f 	nop
   8841c:	910083ff 	add	sp, sp, #0x20
   88420:	d65f03c0 	ret

0000000000088424 <CEcoTimer1_0B569723_get_Interval>:
   88424:	d10083ff 	sub	sp, sp, #0x20
   88428:	f90007e0 	str	x0, [sp, #8]
   8842c:	f94007e0 	ldr	x0, [sp, #8]
   88430:	f9000fe0 	str	x0, [sp, #24]
   88434:	f94007e0 	ldr	x0, [sp, #8]
   88438:	f100001f 	cmp	x0, #0x0
   8843c:	54000061 	b.ne	88448 <CEcoTimer1_0B569723_get_Interval+0x24>  // b.any
   88440:	12800000 	mov	w0, #0xffffffff            	// #-1
   88444:	14000003 	b	88450 <CEcoTimer1_0B569723_get_Interval+0x2c>
   88448:	f9400fe0 	ldr	x0, [sp, #24]
   8844c:	b9403800 	ldr	w0, [x0, #56]
   88450:	910083ff 	add	sp, sp, #0x20
   88454:	d65f03c0 	ret

0000000000088458 <CEcoTimer1_0B569723_TimerHandler>:
   88458:	a9bf7bfd 	stp	x29, x30, [sp, #-16]!
   8845c:	910003fd 	mov	x29, sp
   88460:	b0000200 	adrp	x0, c9000 <g_xCEcoStackTask1List_C761620F+0x37e20>
   88464:	9107c000 	add	x0, x0, #0x1f0
   88468:	f9401400 	ldr	x0, [x0, #40]
   8846c:	d63f0000 	blr	x0
   88470:	f0000020 	adrp	x0, 8f000 <_malloc_r+0x818>
   88474:	9117e000 	add	x0, x0, #0x5f8
   88478:	b9400001 	ldr	w1, [x0]
   8847c:	52968000 	mov	w0, #0xb400                	// #46080
   88480:	0b000020 	add	w0, w1, w0
   88484:	2a0003e0 	mov	w0, w0
   88488:	aa0003e1 	mov	x1, x0
   8848c:	52800020 	mov	w0, #0x1                   	// #1
   88490:	b9000c20 	str	w0, [x1, #12]
   88494:	d503201f 	nop
   88498:	a8c17bfd 	ldp	x29, x30, [sp], #16
   8849c:	d65f03c0 	ret

00000000000884a0 <CEcoTimer1_0B569723_set_IrqHandler>:
   884a0:	d10183ff 	sub	sp, sp, #0x60
   884a4:	a9017bfd 	stp	x29, x30, [sp, #16]
   884a8:	910043fd 	add	x29, sp, #0x10
   884ac:	f9000fa0 	str	x0, [x29, #24]
   884b0:	f9000ba1 	str	x1, [x29, #16]
   884b4:	f9400fa0 	ldr	x0, [x29, #24]
   884b8:	f90027a0 	str	x0, [x29, #72]
   884bc:	f9400fa0 	ldr	x0, [x29, #24]
   884c0:	f100001f 	cmp	x0, #0x0
   884c4:	54000061 	b.ne	884d0 <CEcoTimer1_0B569723_set_IrqHandler+0x30>  // b.any
   884c8:	d2800000 	mov	x0, #0x0                   	// #0
   884cc:	1400007f 	b	886c8 <CEcoTimer1_0B569723_set_IrqHandler+0x228>
   884d0:	f94027a0 	ldr	x0, [x29, #72]
   884d4:	f9400ba1 	ldr	x1, [x29, #16]
   884d8:	f9001401 	str	x1, [x0, #40]
   884dc:	f90017bf 	str	xzr, [x29, #40]
   884e0:	f9001bbf 	str	xzr, [x29, #48]
   884e4:	b9003bbf 	str	wzr, [x29, #56]
   884e8:	f0000020 	adrp	x0, 8f000 <_malloc_r+0x818>
   884ec:	9117e000 	add	x0, x0, #0x5f8
   884f0:	b9400001 	ldr	w1, [x0]
   884f4:	52968000 	mov	w0, #0xb400                	// #46080
   884f8:	0b000020 	add	w0, w1, w0
   884fc:	2a0003e0 	mov	w0, w0
   88500:	aa0003e1 	mov	x1, x0
   88504:	b9400820 	ldr	w0, [x1, #8]
   88508:	12187800 	and	w0, w0, #0xffffff7f
   8850c:	b9000820 	str	w0, [x1, #8]
   88510:	f94027a0 	ldr	x0, [x29, #72]
   88514:	f9401800 	ldr	x0, [x0, #48]
   88518:	f9400000 	ldr	x0, [x0]
   8851c:	f9401c08 	ldr	x8, [x0, #56]
   88520:	f94027a0 	ldr	x0, [x29, #72]
   88524:	f9401800 	ldr	x0, [x0, #48]
   88528:	9100a3a1 	add	x1, x29, #0x28
   8852c:	b90003ff 	str	wzr, [sp]
   88530:	52800087 	mov	w7, #0x4                   	// #4
   88534:	52800106 	mov	w6, #0x8                   	// #8
   88538:	52800105 	mov	w5, #0x8                   	// #8
   8853c:	52800044 	mov	w4, #0x2                   	// #2
   88540:	72a00064 	movk	w4, #0x3, lsl #16
   88544:	528000a3 	mov	w3, #0x5                   	// #5
   88548:	aa0103e2 	mov	x2, x1
   8854c:	52800101 	mov	w1, #0x8                   	// #8
   88550:	d63f0100 	blr	x8
   88554:	b9403ba1 	ldr	w1, [x29, #56]
   88558:	5289ba60 	mov	w0, #0x4dd3                	// #19923
   8855c:	72a20c40 	movk	w0, #0x1062, lsl #16
   88560:	9ba07c20 	umull	x0, w1, w0
   88564:	d360fc00 	lsr	x0, x0, #32
   88568:	53047c00 	lsr	w0, w0, #4
   8856c:	b9003ba0 	str	w0, [x29, #56]
   88570:	f94027a0 	ldr	x0, [x29, #72]
   88574:	b9403800 	ldr	w0, [x0, #56]
   88578:	2a0003e1 	mov	w1, w0
   8857c:	b9403ba0 	ldr	w0, [x29, #56]
   88580:	2a0003e0 	mov	w0, w0
   88584:	9b007c21 	mul	x1, x1, x0
   88588:	d2869b60 	mov	x0, #0x34db                	// #13531
   8858c:	f2baf6c0 	movk	x0, #0xd7b6, lsl #16
   88590:	f2dbd040 	movk	x0, #0xde82, lsl #32
   88594:	f2e86360 	movk	x0, #0x431b, lsl #48
   88598:	9bc07c20 	umulh	x0, x1, x0
   8859c:	d352fc00 	lsr	x0, x0, #18
   885a0:	b90047a0 	str	w0, [x29, #68]
   885a4:	90000000 	adrp	x0, 88000 <CEcoTimer1_0B569723_QueryInterface+0x44c>
   885a8:	91116000 	add	x0, x0, #0x458
   885ac:	97ffe495 	bl	81800 <setTimerIrqAddress>
   885b0:	b90043a0 	str	w0, [x29, #64]
   885b4:	f0000020 	adrp	x0, 8f000 <_malloc_r+0x818>
   885b8:	9117e000 	add	x0, x0, #0x5f8
   885bc:	b9400001 	ldr	w1, [x0]
   885c0:	52964000 	mov	w0, #0xb200                	// #45568
   885c4:	0b000020 	add	w0, w1, w0
   885c8:	2a0003e0 	mov	w0, w0
   885cc:	aa0003e1 	mov	x1, x0
   885d0:	b9401820 	ldr	w0, [x1, #24]
   885d4:	32000000 	orr	w0, w0, #0x1
   885d8:	b9001820 	str	w0, [x1, #24]
   885dc:	f0000020 	adrp	x0, 8f000 <_malloc_r+0x818>
   885e0:	9117e000 	add	x0, x0, #0x5f8
   885e4:	b9400001 	ldr	w1, [x0]
   885e8:	52968000 	mov	w0, #0xb400                	// #46080
   885ec:	0b000020 	add	w0, w1, w0
   885f0:	2a0003e0 	mov	w0, w0
   885f4:	aa0003e1 	mov	x1, x0
   885f8:	b94047a0 	ldr	w0, [x29, #68]
   885fc:	b9000020 	str	w0, [x1]
   88600:	f0000020 	adrp	x0, 8f000 <_malloc_r+0x818>
   88604:	9117e000 	add	x0, x0, #0x5f8
   88608:	b9400001 	ldr	w1, [x0]
   8860c:	52968000 	mov	w0, #0xb400                	// #46080
   88610:	0b000020 	add	w0, w1, w0
   88614:	2a0003e0 	mov	w0, w0
   88618:	aa0003e1 	mov	x1, x0
   8861c:	b9400820 	ldr	w0, [x1, #8]
   88620:	321f0000 	orr	w0, w0, #0x2
   88624:	b9000820 	str	w0, [x1, #8]
   88628:	f0000020 	adrp	x0, 8f000 <_malloc_r+0x818>
   8862c:	9117e000 	add	x0, x0, #0x5f8
   88630:	b9400001 	ldr	w1, [x0]
   88634:	52968000 	mov	w0, #0xb400                	// #46080
   88638:	0b000020 	add	w0, w1, w0
   8863c:	2a0003e0 	mov	w0, w0
   88640:	aa0003e1 	mov	x1, x0
   88644:	b9400820 	ldr	w0, [x1, #8]
   88648:	121c7400 	and	w0, w0, #0xfffffff3
   8864c:	b9000820 	str	w0, [x1, #8]
   88650:	f0000020 	adrp	x0, 8f000 <_malloc_r+0x818>
   88654:	9117e000 	add	x0, x0, #0x5f8
   88658:	b9400001 	ldr	w1, [x0]
   8865c:	52968000 	mov	w0, #0xb400                	// #46080
   88660:	0b000020 	add	w0, w1, w0
   88664:	2a0003e0 	mov	w0, w0
   88668:	aa0003e1 	mov	x1, x0
   8866c:	b9400820 	ldr	w0, [x1, #8]
   88670:	321b0000 	orr	w0, w0, #0x20
   88674:	b9000820 	str	w0, [x1, #8]
   88678:	f0000020 	adrp	x0, 8f000 <_malloc_r+0x818>
   8867c:	9117e000 	add	x0, x0, #0x5f8
   88680:	b9400001 	ldr	w1, [x0]
   88684:	52968000 	mov	w0, #0xb400                	// #46080
   88688:	0b000020 	add	w0, w1, w0
   8868c:	2a0003e0 	mov	w0, w0
   88690:	aa0003e1 	mov	x1, x0
   88694:	b9400820 	ldr	w0, [x1, #8]
   88698:	32190000 	orr	w0, w0, #0x80
   8869c:	b9000820 	str	w0, [x1, #8]
   886a0:	f0000020 	adrp	x0, 8f000 <_malloc_r+0x818>
   886a4:	9117e000 	add	x0, x0, #0x5f8
   886a8:	b9400001 	ldr	w1, [x0]
   886ac:	52968000 	mov	w0, #0xb400                	// #46080
   886b0:	0b000020 	add	w0, w1, w0
   886b4:	2a0003e0 	mov	w0, w0
   886b8:	aa0003e1 	mov	x1, x0
   886bc:	52800020 	mov	w0, #0x1                   	// #1
   886c0:	b9000c20 	str	w0, [x1, #12]
   886c4:	d2800000 	mov	x0, #0x0                   	// #0
   886c8:	a9417bfd 	ldp	x29, x30, [sp, #16]
   886cc:	910183ff 	add	sp, sp, #0x60
   886d0:	d65f03c0 	ret

00000000000886d4 <CEcoTimer1_0B569723_Reset>:
   886d4:	d10083ff 	sub	sp, sp, #0x20
   886d8:	f90007e0 	str	x0, [sp, #8]
   886dc:	f94007e0 	ldr	x0, [sp, #8]
   886e0:	f9000fe0 	str	x0, [sp, #24]
   886e4:	f94007e0 	ldr	x0, [sp, #8]
   886e8:	f100001f 	cmp	x0, #0x0
   886ec:	54000160 	b.eq	88718 <CEcoTimer1_0B569723_Reset+0x44>  // b.none
   886f0:	f0000020 	adrp	x0, 8f000 <_malloc_r+0x818>
   886f4:	9117e000 	add	x0, x0, #0x5f8
   886f8:	b9400001 	ldr	w1, [x0]
   886fc:	52968000 	mov	w0, #0xb400                	// #46080
   88700:	0b000020 	add	w0, w1, w0
   88704:	2a0003e0 	mov	w0, w0
   88708:	aa0003e1 	mov	x1, x0
   8870c:	52800020 	mov	w0, #0x1                   	// #1
   88710:	b9000c20 	str	w0, [x1, #12]
   88714:	14000002 	b	8871c <CEcoTimer1_0B569723_Reset+0x48>
   88718:	d503201f 	nop
   8871c:	910083ff 	add	sp, sp, #0x20
   88720:	d65f03c0 	ret

0000000000088724 <CEcoTimer1_0B569723_Start>:
   88724:	d10083ff 	sub	sp, sp, #0x20
   88728:	f90007e0 	str	x0, [sp, #8]
   8872c:	f94007e0 	ldr	x0, [sp, #8]
   88730:	f9000fe0 	str	x0, [sp, #24]
   88734:	f94007e0 	ldr	x0, [sp, #8]
   88738:	f100001f 	cmp	x0, #0x0
   8873c:	54000061 	b.ne	88748 <CEcoTimer1_0B569723_Start+0x24>  // b.any
   88740:	529fffe0 	mov	w0, #0xffff                	// #65535
   88744:	14000003 	b	88750 <CEcoTimer1_0B569723_Start+0x2c>
   88748:	d50342ff 	msr	daifclr, #0x2
   8874c:	52800000 	mov	w0, #0x0                   	// #0
   88750:	910083ff 	add	sp, sp, #0x20
   88754:	d65f03c0 	ret

0000000000088758 <CEcoTimer1_0B569723_Stop>:
   88758:	d10083ff 	sub	sp, sp, #0x20
   8875c:	f90007e0 	str	x0, [sp, #8]
   88760:	f94007e0 	ldr	x0, [sp, #8]
   88764:	f9000fe0 	str	x0, [sp, #24]
   88768:	f94007e0 	ldr	x0, [sp, #8]
   8876c:	f100001f 	cmp	x0, #0x0
   88770:	54000061 	b.ne	8877c <CEcoTimer1_0B569723_Stop+0x24>  // b.any
   88774:	529fffe0 	mov	w0, #0xffff                	// #65535
   88778:	14000003 	b	88784 <CEcoTimer1_0B569723_Stop+0x2c>
   8877c:	d50342df 	msr	daifset, #0x2
   88780:	52800000 	mov	w0, #0x0                   	// #0
   88784:	910083ff 	add	sp, sp, #0x20
   88788:	d65f03c0 	ret

000000000008878c <CEcoTimer1_System_0B569723_QueryInterface>:
   8878c:	a9bc7bfd 	stp	x29, x30, [sp, #-64]!
   88790:	910003fd 	mov	x29, sp
   88794:	f90017a0 	str	x0, [x29, #40]
   88798:	f90013a1 	str	x1, [x29, #32]
   8879c:	f9000fa2 	str	x2, [x29, #24]
   887a0:	f94017a0 	ldr	x0, [x29, #40]
   887a4:	d1002000 	sub	x0, x0, #0x8
   887a8:	f9001fa0 	str	x0, [x29, #56]
   887ac:	f94017a0 	ldr	x0, [x29, #40]
   887b0:	f100001f 	cmp	x0, #0x0
   887b4:	54000080 	b.eq	887c4 <CEcoTimer1_System_0B569723_QueryInterface+0x38>  // b.none
   887b8:	f9400fa0 	ldr	x0, [x29, #24]
   887bc:	f100001f 	cmp	x0, #0x0
   887c0:	54000061 	b.ne	887cc <CEcoTimer1_System_0B569723_QueryInterface+0x40>  // b.any
   887c4:	12800000 	mov	w0, #0xffffffff            	// #-1
   887c8:	140001cf 	b	88f04 <CEcoTimer1_System_0B569723_QueryInterface+0x778>
   887cc:	f94013a0 	ldr	x0, [x29, #32]
   887d0:	39400001 	ldrb	w1, [x0]
   887d4:	b0000200 	adrp	x0, c9000 <g_xCEcoStackTask1List_C761620F+0x37e20>
   887d8:	913a4000 	add	x0, x0, #0xe90
   887dc:	39400000 	ldrb	w0, [x0]
   887e0:	6b00003f 	cmp	w1, w0
   887e4:	54001241 	b.ne	88a2c <CEcoTimer1_System_0B569723_QueryInterface+0x2a0>  // b.any
   887e8:	f94013a0 	ldr	x0, [x29, #32]
   887ec:	91000400 	add	x0, x0, #0x1
   887f0:	39400001 	ldrb	w1, [x0]
   887f4:	b0000200 	adrp	x0, c9000 <g_xCEcoStackTask1List_C761620F+0x37e20>
   887f8:	913a4400 	add	x0, x0, #0xe91
   887fc:	39400000 	ldrb	w0, [x0]
   88800:	6b00003f 	cmp	w1, w0
   88804:	54001141 	b.ne	88a2c <CEcoTimer1_System_0B569723_QueryInterface+0x2a0>  // b.any
   88808:	f94013a0 	ldr	x0, [x29, #32]
   8880c:	91000800 	add	x0, x0, #0x2
   88810:	39400001 	ldrb	w1, [x0]
   88814:	b0000200 	adrp	x0, c9000 <g_xCEcoStackTask1List_C761620F+0x37e20>
   88818:	913a4800 	add	x0, x0, #0xe92
   8881c:	39400000 	ldrb	w0, [x0]
   88820:	6b00003f 	cmp	w1, w0
   88824:	54001041 	b.ne	88a2c <CEcoTimer1_System_0B569723_QueryInterface+0x2a0>  // b.any
   88828:	f94013a0 	ldr	x0, [x29, #32]
   8882c:	91000c00 	add	x0, x0, #0x3
   88830:	39400001 	ldrb	w1, [x0]
   88834:	b0000200 	adrp	x0, c9000 <g_xCEcoStackTask1List_C761620F+0x37e20>
   88838:	913a4c00 	add	x0, x0, #0xe93
   8883c:	39400000 	ldrb	w0, [x0]
   88840:	6b00003f 	cmp	w1, w0
   88844:	54000f41 	b.ne	88a2c <CEcoTimer1_System_0B569723_QueryInterface+0x2a0>  // b.any
   88848:	f94013a0 	ldr	x0, [x29, #32]
   8884c:	91001000 	add	x0, x0, #0x4
   88850:	39400001 	ldrb	w1, [x0]
   88854:	b0000200 	adrp	x0, c9000 <g_xCEcoStackTask1List_C761620F+0x37e20>
   88858:	913a5000 	add	x0, x0, #0xe94
   8885c:	39400000 	ldrb	w0, [x0]
   88860:	6b00003f 	cmp	w1, w0
   88864:	54000e41 	b.ne	88a2c <CEcoTimer1_System_0B569723_QueryInterface+0x2a0>  // b.any
   88868:	f94013a0 	ldr	x0, [x29, #32]
   8886c:	91001400 	add	x0, x0, #0x5
   88870:	39400001 	ldrb	w1, [x0]
   88874:	b0000200 	adrp	x0, c9000 <g_xCEcoStackTask1List_C761620F+0x37e20>
   88878:	913a5400 	add	x0, x0, #0xe95
   8887c:	39400000 	ldrb	w0, [x0]
   88880:	6b00003f 	cmp	w1, w0
   88884:	54000d41 	b.ne	88a2c <CEcoTimer1_System_0B569723_QueryInterface+0x2a0>  // b.any
   88888:	f94013a0 	ldr	x0, [x29, #32]
   8888c:	91001800 	add	x0, x0, #0x6
   88890:	39400001 	ldrb	w1, [x0]
   88894:	b0000200 	adrp	x0, c9000 <g_xCEcoStackTask1List_C761620F+0x37e20>
   88898:	913a5800 	add	x0, x0, #0xe96
   8889c:	39400000 	ldrb	w0, [x0]
   888a0:	6b00003f 	cmp	w1, w0
   888a4:	54000c41 	b.ne	88a2c <CEcoTimer1_System_0B569723_QueryInterface+0x2a0>  // b.any
   888a8:	f94013a0 	ldr	x0, [x29, #32]
   888ac:	91001c00 	add	x0, x0, #0x7
   888b0:	39400001 	ldrb	w1, [x0]
   888b4:	b0000200 	adrp	x0, c9000 <g_xCEcoStackTask1List_C761620F+0x37e20>
   888b8:	913a5c00 	add	x0, x0, #0xe97
   888bc:	39400000 	ldrb	w0, [x0]
   888c0:	6b00003f 	cmp	w1, w0
   888c4:	54000b41 	b.ne	88a2c <CEcoTimer1_System_0B569723_QueryInterface+0x2a0>  // b.any
   888c8:	f94013a0 	ldr	x0, [x29, #32]
   888cc:	91002000 	add	x0, x0, #0x8
   888d0:	39400001 	ldrb	w1, [x0]
   888d4:	b0000200 	adrp	x0, c9000 <g_xCEcoStackTask1List_C761620F+0x37e20>
   888d8:	913a6000 	add	x0, x0, #0xe98
   888dc:	39400000 	ldrb	w0, [x0]
   888e0:	6b00003f 	cmp	w1, w0
   888e4:	54000a41 	b.ne	88a2c <CEcoTimer1_System_0B569723_QueryInterface+0x2a0>  // b.any
   888e8:	f94013a0 	ldr	x0, [x29, #32]
   888ec:	91002400 	add	x0, x0, #0x9
   888f0:	39400001 	ldrb	w1, [x0]
   888f4:	b0000200 	adrp	x0, c9000 <g_xCEcoStackTask1List_C761620F+0x37e20>
   888f8:	913a6400 	add	x0, x0, #0xe99
   888fc:	39400000 	ldrb	w0, [x0]
   88900:	6b00003f 	cmp	w1, w0
   88904:	54000941 	b.ne	88a2c <CEcoTimer1_System_0B569723_QueryInterface+0x2a0>  // b.any
   88908:	f94013a0 	ldr	x0, [x29, #32]
   8890c:	91002800 	add	x0, x0, #0xa
   88910:	39400001 	ldrb	w1, [x0]
   88914:	b0000200 	adrp	x0, c9000 <g_xCEcoStackTask1List_C761620F+0x37e20>
   88918:	913a6800 	add	x0, x0, #0xe9a
   8891c:	39400000 	ldrb	w0, [x0]
   88920:	6b00003f 	cmp	w1, w0
   88924:	54000841 	b.ne	88a2c <CEcoTimer1_System_0B569723_QueryInterface+0x2a0>  // b.any
   88928:	f94013a0 	ldr	x0, [x29, #32]
   8892c:	91002c00 	add	x0, x0, #0xb
   88930:	39400001 	ldrb	w1, [x0]
   88934:	b0000200 	adrp	x0, c9000 <g_xCEcoStackTask1List_C761620F+0x37e20>
   88938:	913a6c00 	add	x0, x0, #0xe9b
   8893c:	39400000 	ldrb	w0, [x0]
   88940:	6b00003f 	cmp	w1, w0
   88944:	54000741 	b.ne	88a2c <CEcoTimer1_System_0B569723_QueryInterface+0x2a0>  // b.any
   88948:	f94013a0 	ldr	x0, [x29, #32]
   8894c:	91003000 	add	x0, x0, #0xc
   88950:	39400001 	ldrb	w1, [x0]
   88954:	b0000200 	adrp	x0, c9000 <g_xCEcoStackTask1List_C761620F+0x37e20>
   88958:	913a7000 	add	x0, x0, #0xe9c
   8895c:	39400000 	ldrb	w0, [x0]
   88960:	6b00003f 	cmp	w1, w0
   88964:	54000641 	b.ne	88a2c <CEcoTimer1_System_0B569723_QueryInterface+0x2a0>  // b.any
   88968:	f94013a0 	ldr	x0, [x29, #32]
   8896c:	91003400 	add	x0, x0, #0xd
   88970:	39400001 	ldrb	w1, [x0]
   88974:	b0000200 	adrp	x0, c9000 <g_xCEcoStackTask1List_C761620F+0x37e20>
   88978:	913a7400 	add	x0, x0, #0xe9d
   8897c:	39400000 	ldrb	w0, [x0]
   88980:	6b00003f 	cmp	w1, w0
   88984:	54000541 	b.ne	88a2c <CEcoTimer1_System_0B569723_QueryInterface+0x2a0>  // b.any
   88988:	f94013a0 	ldr	x0, [x29, #32]
   8898c:	91003800 	add	x0, x0, #0xe
   88990:	39400001 	ldrb	w1, [x0]
   88994:	b0000200 	adrp	x0, c9000 <g_xCEcoStackTask1List_C761620F+0x37e20>
   88998:	913a7800 	add	x0, x0, #0xe9e
   8899c:	39400000 	ldrb	w0, [x0]
   889a0:	6b00003f 	cmp	w1, w0
   889a4:	54000441 	b.ne	88a2c <CEcoTimer1_System_0B569723_QueryInterface+0x2a0>  // b.any
   889a8:	f94013a0 	ldr	x0, [x29, #32]
   889ac:	91003c00 	add	x0, x0, #0xf
   889b0:	39400001 	ldrb	w1, [x0]
   889b4:	b0000200 	adrp	x0, c9000 <g_xCEcoStackTask1List_C761620F+0x37e20>
   889b8:	913a7c00 	add	x0, x0, #0xe9f
   889bc:	39400000 	ldrb	w0, [x0]
   889c0:	6b00003f 	cmp	w1, w0
   889c4:	54000341 	b.ne	88a2c <CEcoTimer1_System_0B569723_QueryInterface+0x2a0>  // b.any
   889c8:	f94013a0 	ldr	x0, [x29, #32]
   889cc:	91004000 	add	x0, x0, #0x10
   889d0:	39400001 	ldrb	w1, [x0]
   889d4:	b0000200 	adrp	x0, c9000 <g_xCEcoStackTask1List_C761620F+0x37e20>
   889d8:	913a8000 	add	x0, x0, #0xea0
   889dc:	39400000 	ldrb	w0, [x0]
   889e0:	6b00003f 	cmp	w1, w0
   889e4:	54000241 	b.ne	88a2c <CEcoTimer1_System_0B569723_QueryInterface+0x2a0>  // b.any
   889e8:	f94013a0 	ldr	x0, [x29, #32]
   889ec:	91004400 	add	x0, x0, #0x11
   889f0:	39400001 	ldrb	w1, [x0]
   889f4:	b0000200 	adrp	x0, c9000 <g_xCEcoStackTask1List_C761620F+0x37e20>
   889f8:	913a8400 	add	x0, x0, #0xea1
   889fc:	39400000 	ldrb	w0, [x0]
   88a00:	6b00003f 	cmp	w1, w0
   88a04:	54000141 	b.ne	88a2c <CEcoTimer1_System_0B569723_QueryInterface+0x2a0>  // b.any
   88a08:	f9401fa1 	ldr	x1, [x29, #56]
   88a0c:	f9400fa0 	ldr	x0, [x29, #24]
   88a10:	f9000001 	str	x1, [x0]
   88a14:	f9401fa0 	ldr	x0, [x29, #56]
   88a18:	f9400000 	ldr	x0, [x0]
   88a1c:	f9400401 	ldr	x1, [x0, #8]
   88a20:	f9401fa0 	ldr	x0, [x29, #56]
   88a24:	d63f0020 	blr	x1
   88a28:	14000136 	b	88f00 <CEcoTimer1_System_0B569723_QueryInterface+0x774>
   88a2c:	f94013a0 	ldr	x0, [x29, #32]
   88a30:	39400001 	ldrb	w1, [x0]
   88a34:	b0000200 	adrp	x0, c9000 <g_xCEcoStackTask1List_C761620F+0x37e20>
   88a38:	913aa000 	add	x0, x0, #0xea8
   88a3c:	39400000 	ldrb	w0, [x0]
   88a40:	6b00003f 	cmp	w1, w0
   88a44:	54001261 	b.ne	88c90 <CEcoTimer1_System_0B569723_QueryInterface+0x504>  // b.any
   88a48:	f94013a0 	ldr	x0, [x29, #32]
   88a4c:	91000400 	add	x0, x0, #0x1
   88a50:	39400001 	ldrb	w1, [x0]
   88a54:	b0000200 	adrp	x0, c9000 <g_xCEcoStackTask1List_C761620F+0x37e20>
   88a58:	913aa400 	add	x0, x0, #0xea9
   88a5c:	39400000 	ldrb	w0, [x0]
   88a60:	6b00003f 	cmp	w1, w0
   88a64:	54001161 	b.ne	88c90 <CEcoTimer1_System_0B569723_QueryInterface+0x504>  // b.any
   88a68:	f94013a0 	ldr	x0, [x29, #32]
   88a6c:	91000800 	add	x0, x0, #0x2
   88a70:	39400001 	ldrb	w1, [x0]
   88a74:	b0000200 	adrp	x0, c9000 <g_xCEcoStackTask1List_C761620F+0x37e20>
   88a78:	913aa800 	add	x0, x0, #0xeaa
   88a7c:	39400000 	ldrb	w0, [x0]
   88a80:	6b00003f 	cmp	w1, w0
   88a84:	54001061 	b.ne	88c90 <CEcoTimer1_System_0B569723_QueryInterface+0x504>  // b.any
   88a88:	f94013a0 	ldr	x0, [x29, #32]
   88a8c:	91000c00 	add	x0, x0, #0x3
   88a90:	39400001 	ldrb	w1, [x0]
   88a94:	b0000200 	adrp	x0, c9000 <g_xCEcoStackTask1List_C761620F+0x37e20>
   88a98:	913aac00 	add	x0, x0, #0xeab
   88a9c:	39400000 	ldrb	w0, [x0]
   88aa0:	6b00003f 	cmp	w1, w0
   88aa4:	54000f61 	b.ne	88c90 <CEcoTimer1_System_0B569723_QueryInterface+0x504>  // b.any
   88aa8:	f94013a0 	ldr	x0, [x29, #32]
   88aac:	91001000 	add	x0, x0, #0x4
   88ab0:	39400001 	ldrb	w1, [x0]
   88ab4:	b0000200 	adrp	x0, c9000 <g_xCEcoStackTask1List_C761620F+0x37e20>
   88ab8:	913ab000 	add	x0, x0, #0xeac
   88abc:	39400000 	ldrb	w0, [x0]
   88ac0:	6b00003f 	cmp	w1, w0
   88ac4:	54000e61 	b.ne	88c90 <CEcoTimer1_System_0B569723_QueryInterface+0x504>  // b.any
   88ac8:	f94013a0 	ldr	x0, [x29, #32]
   88acc:	91001400 	add	x0, x0, #0x5
   88ad0:	39400001 	ldrb	w1, [x0]
   88ad4:	b0000200 	adrp	x0, c9000 <g_xCEcoStackTask1List_C761620F+0x37e20>
   88ad8:	913ab400 	add	x0, x0, #0xead
   88adc:	39400000 	ldrb	w0, [x0]
   88ae0:	6b00003f 	cmp	w1, w0
   88ae4:	54000d61 	b.ne	88c90 <CEcoTimer1_System_0B569723_QueryInterface+0x504>  // b.any
   88ae8:	f94013a0 	ldr	x0, [x29, #32]
   88aec:	91001800 	add	x0, x0, #0x6
   88af0:	39400001 	ldrb	w1, [x0]
   88af4:	b0000200 	adrp	x0, c9000 <g_xCEcoStackTask1List_C761620F+0x37e20>
   88af8:	913ab800 	add	x0, x0, #0xeae
   88afc:	39400000 	ldrb	w0, [x0]
   88b00:	6b00003f 	cmp	w1, w0
   88b04:	54000c61 	b.ne	88c90 <CEcoTimer1_System_0B569723_QueryInterface+0x504>  // b.any
   88b08:	f94013a0 	ldr	x0, [x29, #32]
   88b0c:	91001c00 	add	x0, x0, #0x7
   88b10:	39400001 	ldrb	w1, [x0]
   88b14:	b0000200 	adrp	x0, c9000 <g_xCEcoStackTask1List_C761620F+0x37e20>
   88b18:	913abc00 	add	x0, x0, #0xeaf
   88b1c:	39400000 	ldrb	w0, [x0]
   88b20:	6b00003f 	cmp	w1, w0
   88b24:	54000b61 	b.ne	88c90 <CEcoTimer1_System_0B569723_QueryInterface+0x504>  // b.any
   88b28:	f94013a0 	ldr	x0, [x29, #32]
   88b2c:	91002000 	add	x0, x0, #0x8
   88b30:	39400001 	ldrb	w1, [x0]
   88b34:	b0000200 	adrp	x0, c9000 <g_xCEcoStackTask1List_C761620F+0x37e20>
   88b38:	913ac000 	add	x0, x0, #0xeb0
   88b3c:	39400000 	ldrb	w0, [x0]
   88b40:	6b00003f 	cmp	w1, w0
   88b44:	54000a61 	b.ne	88c90 <CEcoTimer1_System_0B569723_QueryInterface+0x504>  // b.any
   88b48:	f94013a0 	ldr	x0, [x29, #32]
   88b4c:	91002400 	add	x0, x0, #0x9
   88b50:	39400001 	ldrb	w1, [x0]
   88b54:	b0000200 	adrp	x0, c9000 <g_xCEcoStackTask1List_C761620F+0x37e20>
   88b58:	913ac400 	add	x0, x0, #0xeb1
   88b5c:	39400000 	ldrb	w0, [x0]
   88b60:	6b00003f 	cmp	w1, w0
   88b64:	54000961 	b.ne	88c90 <CEcoTimer1_System_0B569723_QueryInterface+0x504>  // b.any
   88b68:	f94013a0 	ldr	x0, [x29, #32]
   88b6c:	91002800 	add	x0, x0, #0xa
   88b70:	39400001 	ldrb	w1, [x0]
   88b74:	b0000200 	adrp	x0, c9000 <g_xCEcoStackTask1List_C761620F+0x37e20>
   88b78:	913ac800 	add	x0, x0, #0xeb2
   88b7c:	39400000 	ldrb	w0, [x0]
   88b80:	6b00003f 	cmp	w1, w0
   88b84:	54000861 	b.ne	88c90 <CEcoTimer1_System_0B569723_QueryInterface+0x504>  // b.any
   88b88:	f94013a0 	ldr	x0, [x29, #32]
   88b8c:	91002c00 	add	x0, x0, #0xb
   88b90:	39400001 	ldrb	w1, [x0]
   88b94:	b0000200 	adrp	x0, c9000 <g_xCEcoStackTask1List_C761620F+0x37e20>
   88b98:	913acc00 	add	x0, x0, #0xeb3
   88b9c:	39400000 	ldrb	w0, [x0]
   88ba0:	6b00003f 	cmp	w1, w0
   88ba4:	54000761 	b.ne	88c90 <CEcoTimer1_System_0B569723_QueryInterface+0x504>  // b.any
   88ba8:	f94013a0 	ldr	x0, [x29, #32]
   88bac:	91003000 	add	x0, x0, #0xc
   88bb0:	39400001 	ldrb	w1, [x0]
   88bb4:	b0000200 	adrp	x0, c9000 <g_xCEcoStackTask1List_C761620F+0x37e20>
   88bb8:	913ad000 	add	x0, x0, #0xeb4
   88bbc:	39400000 	ldrb	w0, [x0]
   88bc0:	6b00003f 	cmp	w1, w0
   88bc4:	54000661 	b.ne	88c90 <CEcoTimer1_System_0B569723_QueryInterface+0x504>  // b.any
   88bc8:	f94013a0 	ldr	x0, [x29, #32]
   88bcc:	91003400 	add	x0, x0, #0xd
   88bd0:	39400001 	ldrb	w1, [x0]
   88bd4:	b0000200 	adrp	x0, c9000 <g_xCEcoStackTask1List_C761620F+0x37e20>
   88bd8:	913ad400 	add	x0, x0, #0xeb5
   88bdc:	39400000 	ldrb	w0, [x0]
   88be0:	6b00003f 	cmp	w1, w0
   88be4:	54000561 	b.ne	88c90 <CEcoTimer1_System_0B569723_QueryInterface+0x504>  // b.any
   88be8:	f94013a0 	ldr	x0, [x29, #32]
   88bec:	91003800 	add	x0, x0, #0xe
   88bf0:	39400001 	ldrb	w1, [x0]
   88bf4:	b0000200 	adrp	x0, c9000 <g_xCEcoStackTask1List_C761620F+0x37e20>
   88bf8:	913ad800 	add	x0, x0, #0xeb6
   88bfc:	39400000 	ldrb	w0, [x0]
   88c00:	6b00003f 	cmp	w1, w0
   88c04:	54000461 	b.ne	88c90 <CEcoTimer1_System_0B569723_QueryInterface+0x504>  // b.any
   88c08:	f94013a0 	ldr	x0, [x29, #32]
   88c0c:	91003c00 	add	x0, x0, #0xf
   88c10:	39400001 	ldrb	w1, [x0]
   88c14:	b0000200 	adrp	x0, c9000 <g_xCEcoStackTask1List_C761620F+0x37e20>
   88c18:	913adc00 	add	x0, x0, #0xeb7
   88c1c:	39400000 	ldrb	w0, [x0]
   88c20:	6b00003f 	cmp	w1, w0
   88c24:	54000361 	b.ne	88c90 <CEcoTimer1_System_0B569723_QueryInterface+0x504>  // b.any
   88c28:	f94013a0 	ldr	x0, [x29, #32]
   88c2c:	91004000 	add	x0, x0, #0x10
   88c30:	39400001 	ldrb	w1, [x0]
   88c34:	b0000200 	adrp	x0, c9000 <g_xCEcoStackTask1List_C761620F+0x37e20>
   88c38:	913ae000 	add	x0, x0, #0xeb8
   88c3c:	39400000 	ldrb	w0, [x0]
   88c40:	6b00003f 	cmp	w1, w0
   88c44:	54000261 	b.ne	88c90 <CEcoTimer1_System_0B569723_QueryInterface+0x504>  // b.any
   88c48:	f94013a0 	ldr	x0, [x29, #32]
   88c4c:	91004400 	add	x0, x0, #0x11
   88c50:	39400001 	ldrb	w1, [x0]
   88c54:	b0000200 	adrp	x0, c9000 <g_xCEcoStackTask1List_C761620F+0x37e20>
   88c58:	913ae400 	add	x0, x0, #0xeb9
   88c5c:	39400000 	ldrb	w0, [x0]
   88c60:	6b00003f 	cmp	w1, w0
   88c64:	54000161 	b.ne	88c90 <CEcoTimer1_System_0B569723_QueryInterface+0x504>  // b.any
   88c68:	f9401fa0 	ldr	x0, [x29, #56]
   88c6c:	91002001 	add	x1, x0, #0x8
   88c70:	f9400fa0 	ldr	x0, [x29, #24]
   88c74:	f9000001 	str	x1, [x0]
   88c78:	f9401fa0 	ldr	x0, [x29, #56]
   88c7c:	f9400000 	ldr	x0, [x0]
   88c80:	f9400401 	ldr	x1, [x0, #8]
   88c84:	f9401fa0 	ldr	x0, [x29, #56]
   88c88:	d63f0020 	blr	x1
   88c8c:	1400009d 	b	88f00 <CEcoTimer1_System_0B569723_QueryInterface+0x774>
   88c90:	f94013a0 	ldr	x0, [x29, #32]
   88c94:	39400001 	ldrb	w1, [x0]
   88c98:	b0000200 	adrp	x0, c9000 <g_xCEcoStackTask1List_C761620F+0x37e20>
   88c9c:	91386000 	add	x0, x0, #0xe18
   88ca0:	39400000 	ldrb	w0, [x0]
   88ca4:	6b00003f 	cmp	w1, w0
   88ca8:	54001241 	b.ne	88ef0 <CEcoTimer1_System_0B569723_QueryInterface+0x764>  // b.any
   88cac:	f94013a0 	ldr	x0, [x29, #32]
   88cb0:	91000400 	add	x0, x0, #0x1
   88cb4:	39400001 	ldrb	w1, [x0]
   88cb8:	b0000200 	adrp	x0, c9000 <g_xCEcoStackTask1List_C761620F+0x37e20>
   88cbc:	91386400 	add	x0, x0, #0xe19
   88cc0:	39400000 	ldrb	w0, [x0]
   88cc4:	6b00003f 	cmp	w1, w0
   88cc8:	54001141 	b.ne	88ef0 <CEcoTimer1_System_0B569723_QueryInterface+0x764>  // b.any
   88ccc:	f94013a0 	ldr	x0, [x29, #32]
   88cd0:	91000800 	add	x0, x0, #0x2
   88cd4:	39400001 	ldrb	w1, [x0]
   88cd8:	b0000200 	adrp	x0, c9000 <g_xCEcoStackTask1List_C761620F+0x37e20>
   88cdc:	91386800 	add	x0, x0, #0xe1a
   88ce0:	39400000 	ldrb	w0, [x0]
   88ce4:	6b00003f 	cmp	w1, w0
   88ce8:	54001041 	b.ne	88ef0 <CEcoTimer1_System_0B569723_QueryInterface+0x764>  // b.any
   88cec:	f94013a0 	ldr	x0, [x29, #32]
   88cf0:	91000c00 	add	x0, x0, #0x3
   88cf4:	39400001 	ldrb	w1, [x0]
   88cf8:	b0000200 	adrp	x0, c9000 <g_xCEcoStackTask1List_C761620F+0x37e20>
   88cfc:	91386c00 	add	x0, x0, #0xe1b
   88d00:	39400000 	ldrb	w0, [x0]
   88d04:	6b00003f 	cmp	w1, w0
   88d08:	54000f41 	b.ne	88ef0 <CEcoTimer1_System_0B569723_QueryInterface+0x764>  // b.any
   88d0c:	f94013a0 	ldr	x0, [x29, #32]
   88d10:	91001000 	add	x0, x0, #0x4
   88d14:	39400001 	ldrb	w1, [x0]
   88d18:	b0000200 	adrp	x0, c9000 <g_xCEcoStackTask1List_C761620F+0x37e20>
   88d1c:	91387000 	add	x0, x0, #0xe1c
   88d20:	39400000 	ldrb	w0, [x0]
   88d24:	6b00003f 	cmp	w1, w0
   88d28:	54000e41 	b.ne	88ef0 <CEcoTimer1_System_0B569723_QueryInterface+0x764>  // b.any
   88d2c:	f94013a0 	ldr	x0, [x29, #32]
   88d30:	91001400 	add	x0, x0, #0x5
   88d34:	39400001 	ldrb	w1, [x0]
   88d38:	b0000200 	adrp	x0, c9000 <g_xCEcoStackTask1List_C761620F+0x37e20>
   88d3c:	91387400 	add	x0, x0, #0xe1d
   88d40:	39400000 	ldrb	w0, [x0]
   88d44:	6b00003f 	cmp	w1, w0
   88d48:	54000d41 	b.ne	88ef0 <CEcoTimer1_System_0B569723_QueryInterface+0x764>  // b.any
   88d4c:	f94013a0 	ldr	x0, [x29, #32]
   88d50:	91001800 	add	x0, x0, #0x6
   88d54:	39400001 	ldrb	w1, [x0]
   88d58:	b0000200 	adrp	x0, c9000 <g_xCEcoStackTask1List_C761620F+0x37e20>
   88d5c:	91387800 	add	x0, x0, #0xe1e
   88d60:	39400000 	ldrb	w0, [x0]
   88d64:	6b00003f 	cmp	w1, w0
   88d68:	54000c41 	b.ne	88ef0 <CEcoTimer1_System_0B569723_QueryInterface+0x764>  // b.any
   88d6c:	f94013a0 	ldr	x0, [x29, #32]
   88d70:	91001c00 	add	x0, x0, #0x7
   88d74:	39400001 	ldrb	w1, [x0]
   88d78:	b0000200 	adrp	x0, c9000 <g_xCEcoStackTask1List_C761620F+0x37e20>
   88d7c:	91387c00 	add	x0, x0, #0xe1f
   88d80:	39400000 	ldrb	w0, [x0]
   88d84:	6b00003f 	cmp	w1, w0
   88d88:	54000b41 	b.ne	88ef0 <CEcoTimer1_System_0B569723_QueryInterface+0x764>  // b.any
   88d8c:	f94013a0 	ldr	x0, [x29, #32]
   88d90:	91002000 	add	x0, x0, #0x8
   88d94:	39400001 	ldrb	w1, [x0]
   88d98:	b0000200 	adrp	x0, c9000 <g_xCEcoStackTask1List_C761620F+0x37e20>
   88d9c:	91388000 	add	x0, x0, #0xe20
   88da0:	39400000 	ldrb	w0, [x0]
   88da4:	6b00003f 	cmp	w1, w0
   88da8:	54000a41 	b.ne	88ef0 <CEcoTimer1_System_0B569723_QueryInterface+0x764>  // b.any
   88dac:	f94013a0 	ldr	x0, [x29, #32]
   88db0:	91002400 	add	x0, x0, #0x9
   88db4:	39400001 	ldrb	w1, [x0]
   88db8:	b0000200 	adrp	x0, c9000 <g_xCEcoStackTask1List_C761620F+0x37e20>
   88dbc:	91388400 	add	x0, x0, #0xe21
   88dc0:	39400000 	ldrb	w0, [x0]
   88dc4:	6b00003f 	cmp	w1, w0
   88dc8:	54000941 	b.ne	88ef0 <CEcoTimer1_System_0B569723_QueryInterface+0x764>  // b.any
   88dcc:	f94013a0 	ldr	x0, [x29, #32]
   88dd0:	91002800 	add	x0, x0, #0xa
   88dd4:	39400001 	ldrb	w1, [x0]
   88dd8:	b0000200 	adrp	x0, c9000 <g_xCEcoStackTask1List_C761620F+0x37e20>
   88ddc:	91388800 	add	x0, x0, #0xe22
   88de0:	39400000 	ldrb	w0, [x0]
   88de4:	6b00003f 	cmp	w1, w0
   88de8:	54000841 	b.ne	88ef0 <CEcoTimer1_System_0B569723_QueryInterface+0x764>  // b.any
   88dec:	f94013a0 	ldr	x0, [x29, #32]
   88df0:	91002c00 	add	x0, x0, #0xb
   88df4:	39400001 	ldrb	w1, [x0]
   88df8:	b0000200 	adrp	x0, c9000 <g_xCEcoStackTask1List_C761620F+0x37e20>
   88dfc:	91388c00 	add	x0, x0, #0xe23
   88e00:	39400000 	ldrb	w0, [x0]
   88e04:	6b00003f 	cmp	w1, w0
   88e08:	54000741 	b.ne	88ef0 <CEcoTimer1_System_0B569723_QueryInterface+0x764>  // b.any
   88e0c:	f94013a0 	ldr	x0, [x29, #32]
   88e10:	91003000 	add	x0, x0, #0xc
   88e14:	39400001 	ldrb	w1, [x0]
   88e18:	b0000200 	adrp	x0, c9000 <g_xCEcoStackTask1List_C761620F+0x37e20>
   88e1c:	91389000 	add	x0, x0, #0xe24
   88e20:	39400000 	ldrb	w0, [x0]
   88e24:	6b00003f 	cmp	w1, w0
   88e28:	54000641 	b.ne	88ef0 <CEcoTimer1_System_0B569723_QueryInterface+0x764>  // b.any
   88e2c:	f94013a0 	ldr	x0, [x29, #32]
   88e30:	91003400 	add	x0, x0, #0xd
   88e34:	39400001 	ldrb	w1, [x0]
   88e38:	b0000200 	adrp	x0, c9000 <g_xCEcoStackTask1List_C761620F+0x37e20>
   88e3c:	91389400 	add	x0, x0, #0xe25
   88e40:	39400000 	ldrb	w0, [x0]
   88e44:	6b00003f 	cmp	w1, w0
   88e48:	54000541 	b.ne	88ef0 <CEcoTimer1_System_0B569723_QueryInterface+0x764>  // b.any
   88e4c:	f94013a0 	ldr	x0, [x29, #32]
   88e50:	91003800 	add	x0, x0, #0xe
   88e54:	39400001 	ldrb	w1, [x0]
   88e58:	b0000200 	adrp	x0, c9000 <g_xCEcoStackTask1List_C761620F+0x37e20>
   88e5c:	91389800 	add	x0, x0, #0xe26
   88e60:	39400000 	ldrb	w0, [x0]
   88e64:	6b00003f 	cmp	w1, w0
   88e68:	54000441 	b.ne	88ef0 <CEcoTimer1_System_0B569723_QueryInterface+0x764>  // b.any
   88e6c:	f94013a0 	ldr	x0, [x29, #32]
   88e70:	91003c00 	add	x0, x0, #0xf
   88e74:	39400001 	ldrb	w1, [x0]
   88e78:	b0000200 	adrp	x0, c9000 <g_xCEcoStackTask1List_C761620F+0x37e20>
   88e7c:	91389c00 	add	x0, x0, #0xe27
   88e80:	39400000 	ldrb	w0, [x0]
   88e84:	6b00003f 	cmp	w1, w0
   88e88:	54000341 	b.ne	88ef0 <CEcoTimer1_System_0B569723_QueryInterface+0x764>  // b.any
   88e8c:	f94013a0 	ldr	x0, [x29, #32]
   88e90:	91004000 	add	x0, x0, #0x10
   88e94:	39400001 	ldrb	w1, [x0]
   88e98:	b0000200 	adrp	x0, c9000 <g_xCEcoStackTask1List_C761620F+0x37e20>
   88e9c:	9138a000 	add	x0, x0, #0xe28
   88ea0:	39400000 	ldrb	w0, [x0]
   88ea4:	6b00003f 	cmp	w1, w0
   88ea8:	54000241 	b.ne	88ef0 <CEcoTimer1_System_0B569723_QueryInterface+0x764>  // b.any
   88eac:	f94013a0 	ldr	x0, [x29, #32]
   88eb0:	91004400 	add	x0, x0, #0x11
   88eb4:	39400001 	ldrb	w1, [x0]
   88eb8:	b0000200 	adrp	x0, c9000 <g_xCEcoStackTask1List_C761620F+0x37e20>
   88ebc:	9138a400 	add	x0, x0, #0xe29
   88ec0:	39400000 	ldrb	w0, [x0]
   88ec4:	6b00003f 	cmp	w1, w0
   88ec8:	54000141 	b.ne	88ef0 <CEcoTimer1_System_0B569723_QueryInterface+0x764>  // b.any
   88ecc:	f9401fa1 	ldr	x1, [x29, #56]
   88ed0:	f9400fa0 	ldr	x0, [x29, #24]
   88ed4:	f9000001 	str	x1, [x0]
   88ed8:	f9401fa0 	ldr	x0, [x29, #56]
   88edc:	f9400000 	ldr	x0, [x0]
   88ee0:	f9400401 	ldr	x1, [x0, #8]
   88ee4:	f9401fa0 	ldr	x0, [x29, #56]
   88ee8:	d63f0020 	blr	x1
   88eec:	14000005 	b	88f00 <CEcoTimer1_System_0B569723_QueryInterface+0x774>
   88ef0:	f9400fa0 	ldr	x0, [x29, #24]
   88ef4:	f900001f 	str	xzr, [x0]
   88ef8:	12800000 	mov	w0, #0xffffffff            	// #-1
   88efc:	14000002 	b	88f04 <CEcoTimer1_System_0B569723_QueryInterface+0x778>
   88f00:	52800000 	mov	w0, #0x0                   	// #0
   88f04:	a8c47bfd 	ldp	x29, x30, [sp], #64
   88f08:	d65f03c0 	ret

0000000000088f0c <CEcoTimer1_System_0B569723_AddRef>:
   88f0c:	d10083ff 	sub	sp, sp, #0x20
   88f10:	f90007e0 	str	x0, [sp, #8]
   88f14:	f94007e0 	ldr	x0, [sp, #8]
   88f18:	d1002000 	sub	x0, x0, #0x8
   88f1c:	f9000fe0 	str	x0, [sp, #24]
   88f20:	f94007e0 	ldr	x0, [sp, #8]
   88f24:	f100001f 	cmp	x0, #0x0
   88f28:	54000061 	b.ne	88f34 <CEcoTimer1_System_0B569723_AddRef+0x28>  // b.any
   88f2c:	12800000 	mov	w0, #0xffffffff            	// #-1
   88f30:	14000008 	b	88f50 <CEcoTimer1_System_0B569723_AddRef+0x44>
   88f34:	f9400fe0 	ldr	x0, [sp, #24]
   88f38:	b9401000 	ldr	w0, [x0, #16]
   88f3c:	11000401 	add	w1, w0, #0x1
   88f40:	f9400fe0 	ldr	x0, [sp, #24]
   88f44:	b9001001 	str	w1, [x0, #16]
   88f48:	f9400fe0 	ldr	x0, [sp, #24]
   88f4c:	b9401000 	ldr	w0, [x0, #16]
   88f50:	910083ff 	add	sp, sp, #0x20
   88f54:	d65f03c0 	ret

0000000000088f58 <CEcoTimer1_System_0B569723_Release>:
   88f58:	a9bd7bfd 	stp	x29, x30, [sp, #-48]!
   88f5c:	910003fd 	mov	x29, sp
   88f60:	f9000fa0 	str	x0, [x29, #24]
   88f64:	f9400fa0 	ldr	x0, [x29, #24]
   88f68:	d1002000 	sub	x0, x0, #0x8
   88f6c:	f90017a0 	str	x0, [x29, #40]
   88f70:	f9400fa0 	ldr	x0, [x29, #24]
   88f74:	f100001f 	cmp	x0, #0x0
   88f78:	54000061 	b.ne	88f84 <CEcoTimer1_System_0B569723_Release+0x2c>  // b.any
   88f7c:	12800000 	mov	w0, #0xffffffff            	// #-1
   88f80:	14000010 	b	88fc0 <CEcoTimer1_System_0B569723_Release+0x68>
   88f84:	f94017a0 	ldr	x0, [x29, #40]
   88f88:	b9401000 	ldr	w0, [x0, #16]
   88f8c:	51000401 	sub	w1, w0, #0x1
   88f90:	f94017a0 	ldr	x0, [x29, #40]
   88f94:	b9001001 	str	w1, [x0, #16]
   88f98:	f94017a0 	ldr	x0, [x29, #40]
   88f9c:	b9401000 	ldr	w0, [x0, #16]
   88fa0:	7100001f 	cmp	w0, #0x0
   88fa4:	540000a1 	b.ne	88fb8 <CEcoTimer1_System_0B569723_Release+0x60>  // b.any
   88fa8:	f94017a0 	ldr	x0, [x29, #40]
   88fac:	940000c3 	bl	892b8 <deleteCEcoTimer1_0B569723>
   88fb0:	52800000 	mov	w0, #0x0                   	// #0
   88fb4:	14000003 	b	88fc0 <CEcoTimer1_System_0B569723_Release+0x68>
   88fb8:	f94017a0 	ldr	x0, [x29, #40]
   88fbc:	b9401000 	ldr	w0, [x0, #16]
   88fc0:	a8c37bfd 	ldp	x29, x30, [sp], #48
   88fc4:	d65f03c0 	ret

0000000000088fc8 <CEcoTimer1_System_0B569723_set_TimeCounter>:
   88fc8:	d10083ff 	sub	sp, sp, #0x20
   88fcc:	f90007e0 	str	x0, [sp, #8]
   88fd0:	b90007e1 	str	w1, [sp, #4]
   88fd4:	b90003e2 	str	w2, [sp]
   88fd8:	f94007e0 	ldr	x0, [sp, #8]
   88fdc:	d1002000 	sub	x0, x0, #0x8
   88fe0:	f9000fe0 	str	x0, [sp, #24]
   88fe4:	f94007e0 	ldr	x0, [sp, #8]
   88fe8:	f100001f 	cmp	x0, #0x0
   88fec:	54000061 	b.ne	88ff8 <CEcoTimer1_System_0B569723_set_TimeCounter+0x30>  // b.any
   88ff0:	12800000 	mov	w0, #0xffffffff            	// #-1
   88ff4:	14000002 	b	88ffc <CEcoTimer1_System_0B569723_set_TimeCounter+0x34>
   88ff8:	52800000 	mov	w0, #0x0                   	// #0
   88ffc:	910083ff 	add	sp, sp, #0x20
   89000:	d65f03c0 	ret

0000000000089004 <CEcoTimer1_System_0B569723_get_TimeCounter>:
   89004:	d100c3ff 	sub	sp, sp, #0x30
   89008:	f9000fe0 	str	x0, [sp, #24]
   8900c:	f9000be1 	str	x1, [sp, #16]
   89010:	f90007e2 	str	x2, [sp, #8]
   89014:	f9400fe0 	ldr	x0, [sp, #24]
   89018:	d1002000 	sub	x0, x0, #0x8
   8901c:	f90017e0 	str	x0, [sp, #40]
   89020:	f9400fe0 	ldr	x0, [sp, #24]
   89024:	f100001f 	cmp	x0, #0x0
   89028:	54000061 	b.ne	89034 <CEcoTimer1_System_0B569723_get_TimeCounter+0x30>  // b.any
   8902c:	12800000 	mov	w0, #0xffffffff            	// #-1
   89030:	14000002 	b	89038 <CEcoTimer1_System_0B569723_get_TimeCounter+0x34>
   89034:	52800000 	mov	w0, #0x0                   	// #0
   89038:	9100c3ff 	add	sp, sp, #0x30
   8903c:	d65f03c0 	ret

0000000000089040 <CEcoTimer1_System_0B569723_get_SingleTimerCounter>:
   89040:	d100c3ff 	sub	sp, sp, #0x30
   89044:	f90007e0 	str	x0, [sp, #8]
   89048:	f94007e0 	ldr	x0, [sp, #8]
   8904c:	d1002000 	sub	x0, x0, #0x8
   89050:	f90017e0 	str	x0, [sp, #40]
   89054:	f90013ff 	str	xzr, [sp, #32]
   89058:	f94007e0 	ldr	x0, [sp, #8]
   8905c:	f100001f 	cmp	x0, #0x0
   89060:	54000061 	b.ne	8906c <CEcoTimer1_System_0B569723_get_SingleTimerCounter+0x2c>  // b.any
   89064:	92800000 	mov	x0, #0xffffffffffffffff    	// #-1
   89068:	1400001a 	b	890d0 <CEcoTimer1_System_0B569723_get_SingleTimerCounter+0x90>
   8906c:	f94017e0 	ldr	x0, [sp, #40]
   89070:	b9403c00 	ldr	w0, [x0, #60]
   89074:	2a0003e0 	mov	w0, w0
   89078:	b9400800 	ldr	w0, [x0, #8]
   8907c:	2a0003e0 	mov	w0, w0
   89080:	f90013e0 	str	x0, [sp, #32]
   89084:	f94017e0 	ldr	x0, [sp, #40]
   89088:	b9403c00 	ldr	w0, [x0, #60]
   8908c:	2a0003e0 	mov	w0, w0
   89090:	b9400400 	ldr	w0, [x0, #4]
   89094:	b9001fe0 	str	w0, [sp, #28]
   89098:	f94017e0 	ldr	x0, [sp, #40]
   8909c:	b9403c00 	ldr	w0, [x0, #60]
   890a0:	2a0003e0 	mov	w0, w0
   890a4:	b9400800 	ldr	w0, [x0, #8]
   890a8:	2a0003e0 	mov	w0, w0
   890ac:	f94013e1 	ldr	x1, [sp, #32]
   890b0:	eb00003f 	cmp	x1, x0
   890b4:	54fffdc1 	b.ne	8906c <CEcoTimer1_System_0B569723_get_SingleTimerCounter+0x2c>  // b.any
   890b8:	f94013e0 	ldr	x0, [sp, #32]
   890bc:	d3607c01 	lsl	x1, x0, #32
   890c0:	b9401fe0 	ldr	w0, [sp, #28]
   890c4:	aa000020 	orr	x0, x1, x0
   890c8:	f90013e0 	str	x0, [sp, #32]
   890cc:	f94013e0 	ldr	x0, [sp, #32]
   890d0:	9100c3ff 	add	sp, sp, #0x30
   890d4:	d65f03c0 	ret

00000000000890d8 <initCEcoTimer1_0B569723>:
   890d8:	d10083ff 	sub	sp, sp, #0x20
   890dc:	f90007e0 	str	x0, [sp, #8]
   890e0:	f90003e1 	str	x1, [sp]
   890e4:	79003fff 	strh	wzr, [sp, #30]
   890e8:	f94007e0 	ldr	x0, [sp, #8]
   890ec:	f100001f 	cmp	x0, #0x0
   890f0:	54000061 	b.ne	890fc <initCEcoTimer1_0B569723+0x24>  // b.any
   890f4:	79c03fe0 	ldrsh	w0, [sp, #30]
   890f8:	14000002 	b	89100 <initCEcoTimer1_0B569723+0x28>
   890fc:	79c03fe0 	ldrsh	w0, [sp, #30]
   89100:	910083ff 	add	sp, sp, #0x20
   89104:	d65f03c0 	ret

0000000000089108 <createCEcoTimer1_0B569723>:
   89108:	a9b97bfd 	stp	x29, x30, [sp, #-112]!
   8910c:	910003fd 	mov	x29, sp
   89110:	f90017a0 	str	x0, [x29, #40]
   89114:	f90013a1 	str	x1, [x29, #32]
   89118:	f9000fa2 	str	x2, [x29, #24]
   8911c:	12800000 	mov	w0, #0xffffffff            	// #-1
   89120:	7900dfa0 	strh	w0, [x29, #110]
   89124:	f90023bf 	str	xzr, [x29, #64]
   89128:	f9001fbf 	str	xzr, [x29, #56]
   8912c:	f90033bf 	str	xzr, [x29, #96]
   89130:	f9002fbf 	str	xzr, [x29, #88]
   89134:	f9002bbf 	str	xzr, [x29, #80]
   89138:	90000200 	adrp	x0, c9000 <g_xCEcoStackTask1List_C761620F+0x37e20>
   8913c:	913bc000 	add	x0, x0, #0xef0
   89140:	f90027a0 	str	x0, [x29, #72]
   89144:	f9400fa0 	ldr	x0, [x29, #24]
   89148:	f100001f 	cmp	x0, #0x0
   8914c:	54000080 	b.eq	8915c <createCEcoTimer1_0B569723+0x54>  // b.none
   89150:	f94017a0 	ldr	x0, [x29, #40]
   89154:	f100001f 	cmp	x0, #0x0
   89158:	54000061 	b.ne	89164 <createCEcoTimer1_0B569723+0x5c>  // b.any
   8915c:	79c0dfa0 	ldrsh	w0, [x29, #110]
   89160:	14000054 	b	892b0 <createCEcoTimer1_0B569723+0x1a8>
   89164:	f94017a0 	ldr	x0, [x29, #40]
   89168:	f9400000 	ldr	x0, [x0]
   8916c:	f9400003 	ldr	x3, [x0]
   89170:	910103a1 	add	x1, x29, #0x40
   89174:	90000200 	adrp	x0, c9000 <g_xCEcoStackTask1List_C761620F+0x37e20>
   89178:	91392000 	add	x0, x0, #0xe48
   8917c:	aa0103e2 	mov	x2, x1
   89180:	aa0003e1 	mov	x1, x0
   89184:	f94017a0 	ldr	x0, [x29, #40]
   89188:	d63f0060 	blr	x3
   8918c:	7900dfa0 	strh	w0, [x29, #110]
   89190:	79c0dfa0 	ldrsh	w0, [x29, #110]
   89194:	7100001f 	cmp	w0, #0x0
   89198:	540000c0 	b.eq	891b0 <createCEcoTimer1_0B569723+0xa8>  // b.none
   8919c:	f94023a0 	ldr	x0, [x29, #64]
   891a0:	f100001f 	cmp	x0, #0x0
   891a4:	54000061 	b.ne	891b0 <createCEcoTimer1_0B569723+0xa8>  // b.any
   891a8:	79c0dfa0 	ldrsh	w0, [x29, #110]
   891ac:	14000041 	b	892b0 <createCEcoTimer1_0B569723+0x1a8>
   891b0:	f94023a0 	ldr	x0, [x29, #64]
   891b4:	f9400000 	ldr	x0, [x0]
   891b8:	f9400003 	ldr	x3, [x0]
   891bc:	f94023a4 	ldr	x4, [x29, #64]
   891c0:	9100e3a1 	add	x1, x29, #0x38
   891c4:	90000200 	adrp	x0, c9000 <g_xCEcoStackTask1List_C761620F+0x37e20>
   891c8:	91398000 	add	x0, x0, #0xe60
   891cc:	aa0103e2 	mov	x2, x1
   891d0:	aa0003e1 	mov	x1, x0
   891d4:	aa0403e0 	mov	x0, x4
   891d8:	d63f0060 	blr	x3
   891dc:	7900dfa0 	strh	w0, [x29, #110]
   891e0:	90000200 	adrp	x0, c9000 <g_xCEcoStackTask1List_C761620F+0x37e20>
   891e4:	9107c000 	add	x0, x0, #0x1f0
   891e8:	f9002ba0 	str	x0, [x29, #80]
   891ec:	f9402ba0 	ldr	x0, [x29, #80]
   891f0:	b9401000 	ldr	w0, [x0, #16]
   891f4:	7100001f 	cmp	w0, #0x0
   891f8:	540004a1 	b.ne	8928c <createCEcoTimer1_0B569723+0x184>  // b.any
   891fc:	f9402ba0 	ldr	x0, [x29, #80]
   89200:	52800021 	mov	w1, #0x1                   	// #1
   89204:	b9001001 	str	w1, [x0, #16]
   89208:	f9402ba0 	ldr	x0, [x29, #80]
   8920c:	d0000021 	adrp	x1, 8f000 <_malloc_r+0x818>
   89210:	912d8021 	add	x1, x1, #0xb60
   89214:	f9000001 	str	x1, [x0]
   89218:	f9402ba0 	ldr	x0, [x29, #80]
   8921c:	d0000021 	adrp	x1, 8f000 <_malloc_r+0x818>
   89220:	912ea021 	add	x1, x1, #0xba8
   89224:	f9000401 	str	x1, [x0, #8]
   89228:	f9402ba0 	ldr	x0, [x29, #80]
   8922c:	52860001 	mov	w1, #0x3000                	// #12288
   89230:	72a7e001 	movk	w1, #0x3f00, lsl #16
   89234:	b9003c01 	str	w1, [x0, #60]
   89238:	f9402ba0 	ldr	x0, [x29, #80]
   8923c:	f900201f 	str	xzr, [x0, #64]
   89240:	f9402ba0 	ldr	x0, [x29, #80]
   89244:	b900381f 	str	wzr, [x0, #56]
   89248:	f9401fa0 	ldr	x0, [x29, #56]
   8924c:	f9400000 	ldr	x0, [x0]
   89250:	f9401c05 	ldr	x5, [x0, #56]
   89254:	f9401fa6 	ldr	x6, [x29, #56]
   89258:	f9402ba0 	ldr	x0, [x29, #80]
   8925c:	9100c002 	add	x2, x0, #0x30
   89260:	90000200 	adrp	x0, c9000 <g_xCEcoStackTask1List_C761620F+0x37e20>
   89264:	913c2001 	add	x1, x0, #0xf08
   89268:	90000200 	adrp	x0, c9000 <g_xCEcoStackTask1List_C761620F+0x37e20>
   8926c:	913c8000 	add	x0, x0, #0xf20
   89270:	aa0203e4 	mov	x4, x2
   89274:	aa0103e3 	mov	x3, x1
   89278:	d2800002 	mov	x2, #0x0                   	// #0
   8927c:	aa0003e1 	mov	x1, x0
   89280:	aa0603e0 	mov	x0, x6
   89284:	d63f00a0 	blr	x5
   89288:	7900dfa0 	strh	w0, [x29, #110]
   8928c:	f9400fa0 	ldr	x0, [x29, #24]
   89290:	f9402ba1 	ldr	x1, [x29, #80]
   89294:	f9000001 	str	x1, [x0]
   89298:	f9401fa0 	ldr	x0, [x29, #56]
   8929c:	f9400000 	ldr	x0, [x0]
   892a0:	f9400801 	ldr	x1, [x0, #16]
   892a4:	f9401fa0 	ldr	x0, [x29, #56]
   892a8:	d63f0020 	blr	x1
   892ac:	52800000 	mov	w0, #0x0                   	// #0
   892b0:	a8c77bfd 	ldp	x29, x30, [sp], #112
   892b4:	d65f03c0 	ret

00000000000892b8 <deleteCEcoTimer1_0B569723>:
   892b8:	a9bd7bfd 	stp	x29, x30, [sp, #-48]!
   892bc:	910003fd 	mov	x29, sp
   892c0:	f9000fa0 	str	x0, [x29, #24]
   892c4:	f9400fa0 	ldr	x0, [x29, #24]
   892c8:	f90017a0 	str	x0, [x29, #40]
   892cc:	f90013bf 	str	xzr, [x29, #32]
   892d0:	f9400fa0 	ldr	x0, [x29, #24]
   892d4:	f100001f 	cmp	x0, #0x0
   892d8:	54000340 	b.eq	89340 <deleteCEcoTimer1_0B569723+0x88>  // b.none
   892dc:	f94017a0 	ldr	x0, [x29, #40]
   892e0:	f9400c00 	ldr	x0, [x0, #24]
   892e4:	f90013a0 	str	x0, [x29, #32]
   892e8:	f94017a0 	ldr	x0, [x29, #40]
   892ec:	f9401000 	ldr	x0, [x0, #32]
   892f0:	f100001f 	cmp	x0, #0x0
   892f4:	54000100 	b.eq	89314 <deleteCEcoTimer1_0B569723+0x5c>  // b.none
   892f8:	f94017a0 	ldr	x0, [x29, #40]
   892fc:	f9401000 	ldr	x0, [x0, #32]
   89300:	f9400000 	ldr	x0, [x0]
   89304:	f9400801 	ldr	x1, [x0, #16]
   89308:	f94017a0 	ldr	x0, [x29, #40]
   8930c:	f9401000 	ldr	x0, [x0, #32]
   89310:	d63f0020 	blr	x1
   89314:	f94013a0 	ldr	x0, [x29, #32]
   89318:	f9400000 	ldr	x0, [x0]
   8931c:	f9401002 	ldr	x2, [x0, #32]
   89320:	f94017a1 	ldr	x1, [x29, #40]
   89324:	f94013a0 	ldr	x0, [x29, #32]
   89328:	d63f0040 	blr	x2
   8932c:	f94013a0 	ldr	x0, [x29, #32]
   89330:	f9400000 	ldr	x0, [x0]
   89334:	f9400801 	ldr	x1, [x0, #16]
   89338:	f94013a0 	ldr	x0, [x29, #32]
   8933c:	d63f0020 	blr	x1
   89340:	d503201f 	nop
   89344:	a8c37bfd 	ldp	x29, x30, [sp], #48
   89348:	d65f03c0 	ret

000000000008934c <CEcoVFB1_AF252188Factory_QueryInterface>:
   8934c:	a9bd7bfd 	stp	x29, x30, [sp, #-48]!
   89350:	910003fd 	mov	x29, sp
   89354:	f90017a0 	str	x0, [x29, #40]
   89358:	f90013a1 	str	x1, [x29, #32]
   8935c:	f9000fa2 	str	x2, [x29, #24]
   89360:	f94013a0 	ldr	x0, [x29, #32]
   89364:	39400001 	ldrb	w1, [x0]
   89368:	90000200 	adrp	x0, c9000 <g_xCEcoStackTask1List_C761620F+0x37e20>
   8936c:	913ce000 	add	x0, x0, #0xf38
   89370:	39400000 	ldrb	w0, [x0]
   89374:	6b00003f 	cmp	w1, w0
   89378:	54001121 	b.ne	8959c <CEcoVFB1_AF252188Factory_QueryInterface+0x250>  // b.any
   8937c:	f94013a0 	ldr	x0, [x29, #32]
   89380:	91000400 	add	x0, x0, #0x1
   89384:	39400001 	ldrb	w1, [x0]
   89388:	90000200 	adrp	x0, c9000 <g_xCEcoStackTask1List_C761620F+0x37e20>
   8938c:	913ce400 	add	x0, x0, #0xf39
   89390:	39400000 	ldrb	w0, [x0]
   89394:	6b00003f 	cmp	w1, w0
   89398:	54001021 	b.ne	8959c <CEcoVFB1_AF252188Factory_QueryInterface+0x250>  // b.any
   8939c:	f94013a0 	ldr	x0, [x29, #32]
   893a0:	91000800 	add	x0, x0, #0x2
   893a4:	39400001 	ldrb	w1, [x0]
   893a8:	90000200 	adrp	x0, c9000 <g_xCEcoStackTask1List_C761620F+0x37e20>
   893ac:	913ce800 	add	x0, x0, #0xf3a
   893b0:	39400000 	ldrb	w0, [x0]
   893b4:	6b00003f 	cmp	w1, w0
   893b8:	54000f21 	b.ne	8959c <CEcoVFB1_AF252188Factory_QueryInterface+0x250>  // b.any
   893bc:	f94013a0 	ldr	x0, [x29, #32]
   893c0:	91000c00 	add	x0, x0, #0x3
   893c4:	39400001 	ldrb	w1, [x0]
   893c8:	90000200 	adrp	x0, c9000 <g_xCEcoStackTask1List_C761620F+0x37e20>
   893cc:	913cec00 	add	x0, x0, #0xf3b
   893d0:	39400000 	ldrb	w0, [x0]
   893d4:	6b00003f 	cmp	w1, w0
   893d8:	54000e21 	b.ne	8959c <CEcoVFB1_AF252188Factory_QueryInterface+0x250>  // b.any
   893dc:	f94013a0 	ldr	x0, [x29, #32]
   893e0:	91001000 	add	x0, x0, #0x4
   893e4:	39400001 	ldrb	w1, [x0]
   893e8:	90000200 	adrp	x0, c9000 <g_xCEcoStackTask1List_C761620F+0x37e20>
   893ec:	913cf000 	add	x0, x0, #0xf3c
   893f0:	39400000 	ldrb	w0, [x0]
   893f4:	6b00003f 	cmp	w1, w0
   893f8:	54000d21 	b.ne	8959c <CEcoVFB1_AF252188Factory_QueryInterface+0x250>  // b.any
   893fc:	f94013a0 	ldr	x0, [x29, #32]
   89400:	91001400 	add	x0, x0, #0x5
   89404:	39400001 	ldrb	w1, [x0]
   89408:	90000200 	adrp	x0, c9000 <g_xCEcoStackTask1List_C761620F+0x37e20>
   8940c:	913cf400 	add	x0, x0, #0xf3d
   89410:	39400000 	ldrb	w0, [x0]
   89414:	6b00003f 	cmp	w1, w0
   89418:	54000c21 	b.ne	8959c <CEcoVFB1_AF252188Factory_QueryInterface+0x250>  // b.any
   8941c:	f94013a0 	ldr	x0, [x29, #32]
   89420:	91001800 	add	x0, x0, #0x6
   89424:	39400001 	ldrb	w1, [x0]
   89428:	90000200 	adrp	x0, c9000 <g_xCEcoStackTask1List_C761620F+0x37e20>
   8942c:	913cf800 	add	x0, x0, #0xf3e
   89430:	39400000 	ldrb	w0, [x0]
   89434:	6b00003f 	cmp	w1, w0
   89438:	54000b21 	b.ne	8959c <CEcoVFB1_AF252188Factory_QueryInterface+0x250>  // b.any
   8943c:	f94013a0 	ldr	x0, [x29, #32]
   89440:	91001c00 	add	x0, x0, #0x7
   89444:	39400001 	ldrb	w1, [x0]
   89448:	90000200 	adrp	x0, c9000 <g_xCEcoStackTask1List_C761620F+0x37e20>
   8944c:	913cfc00 	add	x0, x0, #0xf3f
   89450:	39400000 	ldrb	w0, [x0]
   89454:	6b00003f 	cmp	w1, w0
   89458:	54000a21 	b.ne	8959c <CEcoVFB1_AF252188Factory_QueryInterface+0x250>  // b.any
   8945c:	f94013a0 	ldr	x0, [x29, #32]
   89460:	91002000 	add	x0, x0, #0x8
   89464:	39400001 	ldrb	w1, [x0]
   89468:	90000200 	adrp	x0, c9000 <g_xCEcoStackTask1List_C761620F+0x37e20>
   8946c:	913d0000 	add	x0, x0, #0xf40
   89470:	39400000 	ldrb	w0, [x0]
   89474:	6b00003f 	cmp	w1, w0
   89478:	54000921 	b.ne	8959c <CEcoVFB1_AF252188Factory_QueryInterface+0x250>  // b.any
   8947c:	f94013a0 	ldr	x0, [x29, #32]
   89480:	91002400 	add	x0, x0, #0x9
   89484:	39400001 	ldrb	w1, [x0]
   89488:	90000200 	adrp	x0, c9000 <g_xCEcoStackTask1List_C761620F+0x37e20>
   8948c:	913d0400 	add	x0, x0, #0xf41
   89490:	39400000 	ldrb	w0, [x0]
   89494:	6b00003f 	cmp	w1, w0
   89498:	54000821 	b.ne	8959c <CEcoVFB1_AF252188Factory_QueryInterface+0x250>  // b.any
   8949c:	f94013a0 	ldr	x0, [x29, #32]
   894a0:	91002800 	add	x0, x0, #0xa
   894a4:	39400001 	ldrb	w1, [x0]
   894a8:	90000200 	adrp	x0, c9000 <g_xCEcoStackTask1List_C761620F+0x37e20>
   894ac:	913d0800 	add	x0, x0, #0xf42
   894b0:	39400000 	ldrb	w0, [x0]
   894b4:	6b00003f 	cmp	w1, w0
   894b8:	54000721 	b.ne	8959c <CEcoVFB1_AF252188Factory_QueryInterface+0x250>  // b.any
   894bc:	f94013a0 	ldr	x0, [x29, #32]
   894c0:	91002c00 	add	x0, x0, #0xb
   894c4:	39400001 	ldrb	w1, [x0]
   894c8:	90000200 	adrp	x0, c9000 <g_xCEcoStackTask1List_C761620F+0x37e20>
   894cc:	913d0c00 	add	x0, x0, #0xf43
   894d0:	39400000 	ldrb	w0, [x0]
   894d4:	6b00003f 	cmp	w1, w0
   894d8:	54000621 	b.ne	8959c <CEcoVFB1_AF252188Factory_QueryInterface+0x250>  // b.any
   894dc:	f94013a0 	ldr	x0, [x29, #32]
   894e0:	91003000 	add	x0, x0, #0xc
   894e4:	39400001 	ldrb	w1, [x0]
   894e8:	90000200 	adrp	x0, c9000 <g_xCEcoStackTask1List_C761620F+0x37e20>
   894ec:	913d1000 	add	x0, x0, #0xf44
   894f0:	39400000 	ldrb	w0, [x0]
   894f4:	6b00003f 	cmp	w1, w0
   894f8:	54000521 	b.ne	8959c <CEcoVFB1_AF252188Factory_QueryInterface+0x250>  // b.any
   894fc:	f94013a0 	ldr	x0, [x29, #32]
   89500:	91003400 	add	x0, x0, #0xd
   89504:	39400001 	ldrb	w1, [x0]
   89508:	90000200 	adrp	x0, c9000 <g_xCEcoStackTask1List_C761620F+0x37e20>
   8950c:	913d1400 	add	x0, x0, #0xf45
   89510:	39400000 	ldrb	w0, [x0]
   89514:	6b00003f 	cmp	w1, w0
   89518:	54000421 	b.ne	8959c <CEcoVFB1_AF252188Factory_QueryInterface+0x250>  // b.any
   8951c:	f94013a0 	ldr	x0, [x29, #32]
   89520:	91003800 	add	x0, x0, #0xe
   89524:	39400001 	ldrb	w1, [x0]
   89528:	90000200 	adrp	x0, c9000 <g_xCEcoStackTask1List_C761620F+0x37e20>
   8952c:	913d1800 	add	x0, x0, #0xf46
   89530:	39400000 	ldrb	w0, [x0]
   89534:	6b00003f 	cmp	w1, w0
   89538:	54000321 	b.ne	8959c <CEcoVFB1_AF252188Factory_QueryInterface+0x250>  // b.any
   8953c:	f94013a0 	ldr	x0, [x29, #32]
   89540:	91003c00 	add	x0, x0, #0xf
   89544:	39400001 	ldrb	w1, [x0]
   89548:	90000200 	adrp	x0, c9000 <g_xCEcoStackTask1List_C761620F+0x37e20>
   8954c:	913d1c00 	add	x0, x0, #0xf47
   89550:	39400000 	ldrb	w0, [x0]
   89554:	6b00003f 	cmp	w1, w0
   89558:	54000221 	b.ne	8959c <CEcoVFB1_AF252188Factory_QueryInterface+0x250>  // b.any
   8955c:	f94013a0 	ldr	x0, [x29, #32]
   89560:	91004000 	add	x0, x0, #0x10
   89564:	39400001 	ldrb	w1, [x0]
   89568:	90000200 	adrp	x0, c9000 <g_xCEcoStackTask1List_C761620F+0x37e20>
   8956c:	913d2000 	add	x0, x0, #0xf48
   89570:	39400000 	ldrb	w0, [x0]
   89574:	6b00003f 	cmp	w1, w0
   89578:	54000121 	b.ne	8959c <CEcoVFB1_AF252188Factory_QueryInterface+0x250>  // b.any
   8957c:	f94013a0 	ldr	x0, [x29, #32]
   89580:	91004400 	add	x0, x0, #0x11
   89584:	39400001 	ldrb	w1, [x0]
   89588:	90000200 	adrp	x0, c9000 <g_xCEcoStackTask1List_C761620F+0x37e20>
   8958c:	913d2400 	add	x0, x0, #0xf49
   89590:	39400000 	ldrb	w0, [x0]
   89594:	6b00003f 	cmp	w1, w0
   89598:	54001200 	b.eq	897d8 <CEcoVFB1_AF252188Factory_QueryInterface+0x48c>  // b.none
   8959c:	f94013a0 	ldr	x0, [x29, #32]
   895a0:	39400001 	ldrb	w1, [x0]
   895a4:	90000200 	adrp	x0, c9000 <g_xCEcoStackTask1List_C761620F+0x37e20>
   895a8:	913d4000 	add	x0, x0, #0xf50
   895ac:	39400000 	ldrb	w0, [x0]
   895b0:	6b00003f 	cmp	w1, w0
   895b4:	540012a1 	b.ne	89808 <CEcoVFB1_AF252188Factory_QueryInterface+0x4bc>  // b.any
   895b8:	f94013a0 	ldr	x0, [x29, #32]
   895bc:	91000400 	add	x0, x0, #0x1
   895c0:	39400001 	ldrb	w1, [x0]
   895c4:	90000200 	adrp	x0, c9000 <g_xCEcoStackTask1List_C761620F+0x37e20>
   895c8:	913d4400 	add	x0, x0, #0xf51
   895cc:	39400000 	ldrb	w0, [x0]
   895d0:	6b00003f 	cmp	w1, w0
   895d4:	540011a1 	b.ne	89808 <CEcoVFB1_AF252188Factory_QueryInterface+0x4bc>  // b.any
   895d8:	f94013a0 	ldr	x0, [x29, #32]
   895dc:	91000800 	add	x0, x0, #0x2
   895e0:	39400001 	ldrb	w1, [x0]
   895e4:	90000200 	adrp	x0, c9000 <g_xCEcoStackTask1List_C761620F+0x37e20>
   895e8:	913d4800 	add	x0, x0, #0xf52
   895ec:	39400000 	ldrb	w0, [x0]
   895f0:	6b00003f 	cmp	w1, w0
   895f4:	540010a1 	b.ne	89808 <CEcoVFB1_AF252188Factory_QueryInterface+0x4bc>  // b.any
   895f8:	f94013a0 	ldr	x0, [x29, #32]
   895fc:	91000c00 	add	x0, x0, #0x3
   89600:	39400001 	ldrb	w1, [x0]
   89604:	90000200 	adrp	x0, c9000 <g_xCEcoStackTask1List_C761620F+0x37e20>
   89608:	913d4c00 	add	x0, x0, #0xf53
   8960c:	39400000 	ldrb	w0, [x0]
   89610:	6b00003f 	cmp	w1, w0
   89614:	54000fa1 	b.ne	89808 <CEcoVFB1_AF252188Factory_QueryInterface+0x4bc>  // b.any
   89618:	f94013a0 	ldr	x0, [x29, #32]
   8961c:	91001000 	add	x0, x0, #0x4
   89620:	39400001 	ldrb	w1, [x0]
   89624:	90000200 	adrp	x0, c9000 <g_xCEcoStackTask1List_C761620F+0x37e20>
   89628:	913d5000 	add	x0, x0, #0xf54
   8962c:	39400000 	ldrb	w0, [x0]
   89630:	6b00003f 	cmp	w1, w0
   89634:	54000ea1 	b.ne	89808 <CEcoVFB1_AF252188Factory_QueryInterface+0x4bc>  // b.any
   89638:	f94013a0 	ldr	x0, [x29, #32]
   8963c:	91001400 	add	x0, x0, #0x5
   89640:	39400001 	ldrb	w1, [x0]
   89644:	90000200 	adrp	x0, c9000 <g_xCEcoStackTask1List_C761620F+0x37e20>
   89648:	913d5400 	add	x0, x0, #0xf55
   8964c:	39400000 	ldrb	w0, [x0]
   89650:	6b00003f 	cmp	w1, w0
   89654:	54000da1 	b.ne	89808 <CEcoVFB1_AF252188Factory_QueryInterface+0x4bc>  // b.any
   89658:	f94013a0 	ldr	x0, [x29, #32]
   8965c:	91001800 	add	x0, x0, #0x6
   89660:	39400001 	ldrb	w1, [x0]
   89664:	90000200 	adrp	x0, c9000 <g_xCEcoStackTask1List_C761620F+0x37e20>
   89668:	913d5800 	add	x0, x0, #0xf56
   8966c:	39400000 	ldrb	w0, [x0]
   89670:	6b00003f 	cmp	w1, w0
   89674:	54000ca1 	b.ne	89808 <CEcoVFB1_AF252188Factory_QueryInterface+0x4bc>  // b.any
   89678:	f94013a0 	ldr	x0, [x29, #32]
   8967c:	91001c00 	add	x0, x0, #0x7
   89680:	39400001 	ldrb	w1, [x0]
   89684:	90000200 	adrp	x0, c9000 <g_xCEcoStackTask1List_C761620F+0x37e20>
   89688:	913d5c00 	add	x0, x0, #0xf57
   8968c:	39400000 	ldrb	w0, [x0]
   89690:	6b00003f 	cmp	w1, w0
   89694:	54000ba1 	b.ne	89808 <CEcoVFB1_AF252188Factory_QueryInterface+0x4bc>  // b.any
   89698:	f94013a0 	ldr	x0, [x29, #32]
   8969c:	91002000 	add	x0, x0, #0x8
   896a0:	39400001 	ldrb	w1, [x0]
   896a4:	90000200 	adrp	x0, c9000 <g_xCEcoStackTask1List_C761620F+0x37e20>
   896a8:	913d6000 	add	x0, x0, #0xf58
   896ac:	39400000 	ldrb	w0, [x0]
   896b0:	6b00003f 	cmp	w1, w0
   896b4:	54000aa1 	b.ne	89808 <CEcoVFB1_AF252188Factory_QueryInterface+0x4bc>  // b.any
   896b8:	f94013a0 	ldr	x0, [x29, #32]
   896bc:	91002400 	add	x0, x0, #0x9
   896c0:	39400001 	ldrb	w1, [x0]
   896c4:	90000200 	adrp	x0, c9000 <g_xCEcoStackTask1List_C761620F+0x37e20>
   896c8:	913d6400 	add	x0, x0, #0xf59
   896cc:	39400000 	ldrb	w0, [x0]
   896d0:	6b00003f 	cmp	w1, w0
   896d4:	540009a1 	b.ne	89808 <CEcoVFB1_AF252188Factory_QueryInterface+0x4bc>  // b.any
   896d8:	f94013a0 	ldr	x0, [x29, #32]
   896dc:	91002800 	add	x0, x0, #0xa
   896e0:	39400001 	ldrb	w1, [x0]
   896e4:	90000200 	adrp	x0, c9000 <g_xCEcoStackTask1List_C761620F+0x37e20>
   896e8:	913d6800 	add	x0, x0, #0xf5a
   896ec:	39400000 	ldrb	w0, [x0]
   896f0:	6b00003f 	cmp	w1, w0
   896f4:	540008a1 	b.ne	89808 <CEcoVFB1_AF252188Factory_QueryInterface+0x4bc>  // b.any
   896f8:	f94013a0 	ldr	x0, [x29, #32]
   896fc:	91002c00 	add	x0, x0, #0xb
   89700:	39400001 	ldrb	w1, [x0]
   89704:	90000200 	adrp	x0, c9000 <g_xCEcoStackTask1List_C761620F+0x37e20>
   89708:	913d6c00 	add	x0, x0, #0xf5b
   8970c:	39400000 	ldrb	w0, [x0]
   89710:	6b00003f 	cmp	w1, w0
   89714:	540007a1 	b.ne	89808 <CEcoVFB1_AF252188Factory_QueryInterface+0x4bc>  // b.any
   89718:	f94013a0 	ldr	x0, [x29, #32]
   8971c:	91003000 	add	x0, x0, #0xc
   89720:	39400001 	ldrb	w1, [x0]
   89724:	90000200 	adrp	x0, c9000 <g_xCEcoStackTask1List_C761620F+0x37e20>
   89728:	913d7000 	add	x0, x0, #0xf5c
   8972c:	39400000 	ldrb	w0, [x0]
   89730:	6b00003f 	cmp	w1, w0
   89734:	540006a1 	b.ne	89808 <CEcoVFB1_AF252188Factory_QueryInterface+0x4bc>  // b.any
   89738:	f94013a0 	ldr	x0, [x29, #32]
   8973c:	91003400 	add	x0, x0, #0xd
   89740:	39400001 	ldrb	w1, [x0]
   89744:	90000200 	adrp	x0, c9000 <g_xCEcoStackTask1List_C761620F+0x37e20>
   89748:	913d7400 	add	x0, x0, #0xf5d
   8974c:	39400000 	ldrb	w0, [x0]
   89750:	6b00003f 	cmp	w1, w0
   89754:	540005a1 	b.ne	89808 <CEcoVFB1_AF252188Factory_QueryInterface+0x4bc>  // b.any
   89758:	f94013a0 	ldr	x0, [x29, #32]
   8975c:	91003800 	add	x0, x0, #0xe
   89760:	39400001 	ldrb	w1, [x0]
   89764:	90000200 	adrp	x0, c9000 <g_xCEcoStackTask1List_C761620F+0x37e20>
   89768:	913d7800 	add	x0, x0, #0xf5e
   8976c:	39400000 	ldrb	w0, [x0]
   89770:	6b00003f 	cmp	w1, w0
   89774:	540004a1 	b.ne	89808 <CEcoVFB1_AF252188Factory_QueryInterface+0x4bc>  // b.any
   89778:	f94013a0 	ldr	x0, [x29, #32]
   8977c:	91003c00 	add	x0, x0, #0xf
   89780:	39400001 	ldrb	w1, [x0]
   89784:	90000200 	adrp	x0, c9000 <g_xCEcoStackTask1List_C761620F+0x37e20>
   89788:	913d7c00 	add	x0, x0, #0xf5f
   8978c:	39400000 	ldrb	w0, [x0]
   89790:	6b00003f 	cmp	w1, w0
   89794:	540003a1 	b.ne	89808 <CEcoVFB1_AF252188Factory_QueryInterface+0x4bc>  // b.any
   89798:	f94013a0 	ldr	x0, [x29, #32]
   8979c:	91004000 	add	x0, x0, #0x10
   897a0:	39400001 	ldrb	w1, [x0]
   897a4:	90000200 	adrp	x0, c9000 <g_xCEcoStackTask1List_C761620F+0x37e20>
   897a8:	913d8000 	add	x0, x0, #0xf60
   897ac:	39400000 	ldrb	w0, [x0]
   897b0:	6b00003f 	cmp	w1, w0
   897b4:	540002a1 	b.ne	89808 <CEcoVFB1_AF252188Factory_QueryInterface+0x4bc>  // b.any
   897b8:	f94013a0 	ldr	x0, [x29, #32]
   897bc:	91004400 	add	x0, x0, #0x11
   897c0:	39400001 	ldrb	w1, [x0]
   897c4:	90000200 	adrp	x0, c9000 <g_xCEcoStackTask1List_C761620F+0x37e20>
   897c8:	913d8400 	add	x0, x0, #0xf61
   897cc:	39400000 	ldrb	w0, [x0]
   897d0:	6b00003f 	cmp	w1, w0
   897d4:	540001a1 	b.ne	89808 <CEcoVFB1_AF252188Factory_QueryInterface+0x4bc>  // b.any
   897d8:	f9400fa0 	ldr	x0, [x29, #24]
   897dc:	f94017a1 	ldr	x1, [x29, #40]
   897e0:	f9000001 	str	x1, [x0]
   897e4:	f9400fa0 	ldr	x0, [x29, #24]
   897e8:	f9400000 	ldr	x0, [x0]
   897ec:	f9400000 	ldr	x0, [x0]
   897f0:	f9400401 	ldr	x1, [x0, #8]
   897f4:	f9400fa0 	ldr	x0, [x29, #24]
   897f8:	f9400000 	ldr	x0, [x0]
   897fc:	d63f0020 	blr	x1
   89800:	52800000 	mov	w0, #0x0                   	// #0
   89804:	14000004 	b	89814 <CEcoVFB1_AF252188Factory_QueryInterface+0x4c8>
   89808:	f9400fa0 	ldr	x0, [x29, #24]
   8980c:	f900001f 	str	xzr, [x0]
   89810:	12800000 	mov	w0, #0xffffffff            	// #-1
   89814:	a8c37bfd 	ldp	x29, x30, [sp], #48
   89818:	d65f03c0 	ret

000000000008981c <CEcoVFB1_AF252188Factory_AddRef>:
   8981c:	d10083ff 	sub	sp, sp, #0x20
   89820:	f90007e0 	str	x0, [sp, #8]
   89824:	f94007e0 	ldr	x0, [sp, #8]
   89828:	f9000fe0 	str	x0, [sp, #24]
   8982c:	f94007e0 	ldr	x0, [sp, #8]
   89830:	f100001f 	cmp	x0, #0x0
   89834:	54000061 	b.ne	89840 <CEcoVFB1_AF252188Factory_AddRef+0x24>  // b.any
   89838:	12800000 	mov	w0, #0xffffffff            	// #-1
   8983c:	14000008 	b	8985c <CEcoVFB1_AF252188Factory_AddRef+0x40>
   89840:	f9400fe0 	ldr	x0, [sp, #24]
   89844:	b9400800 	ldr	w0, [x0, #8]
   89848:	11000401 	add	w1, w0, #0x1
   8984c:	f9400fe0 	ldr	x0, [sp, #24]
   89850:	b9000801 	str	w1, [x0, #8]
   89854:	f9400fe0 	ldr	x0, [sp, #24]
   89858:	b9400800 	ldr	w0, [x0, #8]
   8985c:	910083ff 	add	sp, sp, #0x20
   89860:	d65f03c0 	ret

0000000000089864 <CEcoVFB1_AF252188Factory_Release>:
   89864:	d10083ff 	sub	sp, sp, #0x20
   89868:	f90007e0 	str	x0, [sp, #8]
   8986c:	f94007e0 	ldr	x0, [sp, #8]
   89870:	f9000fe0 	str	x0, [sp, #24]
   89874:	f94007e0 	ldr	x0, [sp, #8]
   89878:	f100001f 	cmp	x0, #0x0
   8987c:	54000061 	b.ne	89888 <CEcoVFB1_AF252188Factory_Release+0x24>  // b.any
   89880:	12800000 	mov	w0, #0xffffffff            	// #-1
   89884:	1400000e 	b	898bc <CEcoVFB1_AF252188Factory_Release+0x58>
   89888:	f9400fe0 	ldr	x0, [sp, #24]
   8988c:	b9400800 	ldr	w0, [x0, #8]
   89890:	51000401 	sub	w1, w0, #0x1
   89894:	f9400fe0 	ldr	x0, [sp, #24]
   89898:	b9000801 	str	w1, [x0, #8]
   8989c:	f9400fe0 	ldr	x0, [sp, #24]
   898a0:	b9400800 	ldr	w0, [x0, #8]
   898a4:	7100001f 	cmp	w0, #0x0
   898a8:	54000061 	b.ne	898b4 <CEcoVFB1_AF252188Factory_Release+0x50>  // b.any
   898ac:	52800000 	mov	w0, #0x0                   	// #0
   898b0:	14000003 	b	898bc <CEcoVFB1_AF252188Factory_Release+0x58>
   898b4:	f9400fe0 	ldr	x0, [sp, #24]
   898b8:	b9400800 	ldr	w0, [x0, #8]
   898bc:	910083ff 	add	sp, sp, #0x20
   898c0:	d65f03c0 	ret

00000000000898c4 <CEcoVFB1_AF252188Factory_Init>:
   898c4:	a9bc7bfd 	stp	x29, x30, [sp, #-64]!
   898c8:	910003fd 	mov	x29, sp
   898cc:	f90017a0 	str	x0, [x29, #40]
   898d0:	f90013a1 	str	x1, [x29, #32]
   898d4:	f9000fa2 	str	x2, [x29, #24]
   898d8:	f94017a0 	ldr	x0, [x29, #40]
   898dc:	f9001fa0 	str	x0, [x29, #56]
   898e0:	12800000 	mov	w0, #0xffffffff            	// #-1
   898e4:	79006fa0 	strh	w0, [x29, #54]
   898e8:	f94017a0 	ldr	x0, [x29, #40]
   898ec:	f100001f 	cmp	x0, #0x0
   898f0:	54000061 	b.ne	898fc <CEcoVFB1_AF252188Factory_Init+0x38>  // b.any
   898f4:	12800000 	mov	w0, #0xffffffff            	// #-1
   898f8:	14000008 	b	89918 <CEcoVFB1_AF252188Factory_Init+0x54>
   898fc:	f9401fa0 	ldr	x0, [x29, #56]
   89900:	f9400c02 	ldr	x2, [x0, #24]
   89904:	f94013a1 	ldr	x1, [x29, #32]
   89908:	f9400fa0 	ldr	x0, [x29, #24]
   8990c:	d63f0040 	blr	x2
   89910:	79006fa0 	strh	w0, [x29, #54]
   89914:	79c06fa0 	ldrsh	w0, [x29, #54]
   89918:	a8c47bfd 	ldp	x29, x30, [sp], #64
   8991c:	d65f03c0 	ret

0000000000089920 <CEcoVFB1_AF252188Factory_Alloc>:
   89920:	a9ba7bfd 	stp	x29, x30, [sp, #-96]!
   89924:	910003fd 	mov	x29, sp
   89928:	f9001fa0 	str	x0, [x29, #56]
   8992c:	f9001ba1 	str	x1, [x29, #48]
   89930:	f90017a2 	str	x2, [x29, #40]
   89934:	f90013a3 	str	x3, [x29, #32]
   89938:	f9000fa4 	str	x4, [x29, #24]
   8993c:	f9401fa0 	ldr	x0, [x29, #56]
   89940:	f9002fa0 	str	x0, [x29, #88]
   89944:	f90027bf 	str	xzr, [x29, #72]
   89948:	12800000 	mov	w0, #0xffffffff            	// #-1
   8994c:	7900afa0 	strh	w0, [x29, #86]
   89950:	f9401fa0 	ldr	x0, [x29, #56]
   89954:	f100001f 	cmp	x0, #0x0
   89958:	54000061 	b.ne	89964 <CEcoVFB1_AF252188Factory_Alloc+0x44>  // b.any
   8995c:	12800000 	mov	w0, #0xffffffff            	// #-1
   89960:	140000bc 	b	89c50 <CEcoVFB1_AF252188Factory_Alloc+0x330>
   89964:	f94017a0 	ldr	x0, [x29, #40]
   89968:	f100001f 	cmp	x0, #0x0
   8996c:	54001240 	b.eq	89bb4 <CEcoVFB1_AF252188Factory_Alloc+0x294>  // b.none
   89970:	f94013a0 	ldr	x0, [x29, #32]
   89974:	39400001 	ldrb	w1, [x0]
   89978:	90000200 	adrp	x0, c9000 <g_xCEcoStackTask1List_C761620F+0x37e20>
   8997c:	913ce000 	add	x0, x0, #0xf38
   89980:	39400000 	ldrb	w0, [x0]
   89984:	6b00003f 	cmp	w1, w0
   89988:	54001121 	b.ne	89bac <CEcoVFB1_AF252188Factory_Alloc+0x28c>  // b.any
   8998c:	f94013a0 	ldr	x0, [x29, #32]
   89990:	91000400 	add	x0, x0, #0x1
   89994:	39400001 	ldrb	w1, [x0]
   89998:	90000200 	adrp	x0, c9000 <g_xCEcoStackTask1List_C761620F+0x37e20>
   8999c:	913ce400 	add	x0, x0, #0xf39
   899a0:	39400000 	ldrb	w0, [x0]
   899a4:	6b00003f 	cmp	w1, w0
   899a8:	54001021 	b.ne	89bac <CEcoVFB1_AF252188Factory_Alloc+0x28c>  // b.any
   899ac:	f94013a0 	ldr	x0, [x29, #32]
   899b0:	91000800 	add	x0, x0, #0x2
   899b4:	39400001 	ldrb	w1, [x0]
   899b8:	90000200 	adrp	x0, c9000 <g_xCEcoStackTask1List_C761620F+0x37e20>
   899bc:	913ce800 	add	x0, x0, #0xf3a
   899c0:	39400000 	ldrb	w0, [x0]
   899c4:	6b00003f 	cmp	w1, w0
   899c8:	54000f21 	b.ne	89bac <CEcoVFB1_AF252188Factory_Alloc+0x28c>  // b.any
   899cc:	f94013a0 	ldr	x0, [x29, #32]
   899d0:	91000c00 	add	x0, x0, #0x3
   899d4:	39400001 	ldrb	w1, [x0]
   899d8:	90000200 	adrp	x0, c9000 <g_xCEcoStackTask1List_C761620F+0x37e20>
   899dc:	913cec00 	add	x0, x0, #0xf3b
   899e0:	39400000 	ldrb	w0, [x0]
   899e4:	6b00003f 	cmp	w1, w0
   899e8:	54000e21 	b.ne	89bac <CEcoVFB1_AF252188Factory_Alloc+0x28c>  // b.any
   899ec:	f94013a0 	ldr	x0, [x29, #32]
   899f0:	91001000 	add	x0, x0, #0x4
   899f4:	39400001 	ldrb	w1, [x0]
   899f8:	90000200 	adrp	x0, c9000 <g_xCEcoStackTask1List_C761620F+0x37e20>
   899fc:	913cf000 	add	x0, x0, #0xf3c
   89a00:	39400000 	ldrb	w0, [x0]
   89a04:	6b00003f 	cmp	w1, w0
   89a08:	54000d21 	b.ne	89bac <CEcoVFB1_AF252188Factory_Alloc+0x28c>  // b.any
   89a0c:	f94013a0 	ldr	x0, [x29, #32]
   89a10:	91001400 	add	x0, x0, #0x5
   89a14:	39400001 	ldrb	w1, [x0]
   89a18:	90000200 	adrp	x0, c9000 <g_xCEcoStackTask1List_C761620F+0x37e20>
   89a1c:	913cf400 	add	x0, x0, #0xf3d
   89a20:	39400000 	ldrb	w0, [x0]
   89a24:	6b00003f 	cmp	w1, w0
   89a28:	54000c21 	b.ne	89bac <CEcoVFB1_AF252188Factory_Alloc+0x28c>  // b.any
   89a2c:	f94013a0 	ldr	x0, [x29, #32]
   89a30:	91001800 	add	x0, x0, #0x6
   89a34:	39400001 	ldrb	w1, [x0]
   89a38:	90000200 	adrp	x0, c9000 <g_xCEcoStackTask1List_C761620F+0x37e20>
   89a3c:	913cf800 	add	x0, x0, #0xf3e
   89a40:	39400000 	ldrb	w0, [x0]
   89a44:	6b00003f 	cmp	w1, w0
   89a48:	54000b21 	b.ne	89bac <CEcoVFB1_AF252188Factory_Alloc+0x28c>  // b.any
   89a4c:	f94013a0 	ldr	x0, [x29, #32]
   89a50:	91001c00 	add	x0, x0, #0x7
   89a54:	39400001 	ldrb	w1, [x0]
   89a58:	90000200 	adrp	x0, c9000 <g_xCEcoStackTask1List_C761620F+0x37e20>
   89a5c:	913cfc00 	add	x0, x0, #0xf3f
   89a60:	39400000 	ldrb	w0, [x0]
   89a64:	6b00003f 	cmp	w1, w0
   89a68:	54000a21 	b.ne	89bac <CEcoVFB1_AF252188Factory_Alloc+0x28c>  // b.any
   89a6c:	f94013a0 	ldr	x0, [x29, #32]
   89a70:	91002000 	add	x0, x0, #0x8
   89a74:	39400001 	ldrb	w1, [x0]
   89a78:	90000200 	adrp	x0, c9000 <g_xCEcoStackTask1List_C761620F+0x37e20>
   89a7c:	913d0000 	add	x0, x0, #0xf40
   89a80:	39400000 	ldrb	w0, [x0]
   89a84:	6b00003f 	cmp	w1, w0
   89a88:	54000921 	b.ne	89bac <CEcoVFB1_AF252188Factory_Alloc+0x28c>  // b.any
   89a8c:	f94013a0 	ldr	x0, [x29, #32]
   89a90:	91002400 	add	x0, x0, #0x9
   89a94:	39400001 	ldrb	w1, [x0]
   89a98:	90000200 	adrp	x0, c9000 <g_xCEcoStackTask1List_C761620F+0x37e20>
   89a9c:	913d0400 	add	x0, x0, #0xf41
   89aa0:	39400000 	ldrb	w0, [x0]
   89aa4:	6b00003f 	cmp	w1, w0
   89aa8:	54000821 	b.ne	89bac <CEcoVFB1_AF252188Factory_Alloc+0x28c>  // b.any
   89aac:	f94013a0 	ldr	x0, [x29, #32]
   89ab0:	91002800 	add	x0, x0, #0xa
   89ab4:	39400001 	ldrb	w1, [x0]
   89ab8:	90000200 	adrp	x0, c9000 <g_xCEcoStackTask1List_C761620F+0x37e20>
   89abc:	913d0800 	add	x0, x0, #0xf42
   89ac0:	39400000 	ldrb	w0, [x0]
   89ac4:	6b00003f 	cmp	w1, w0
   89ac8:	54000721 	b.ne	89bac <CEcoVFB1_AF252188Factory_Alloc+0x28c>  // b.any
   89acc:	f94013a0 	ldr	x0, [x29, #32]
   89ad0:	91002c00 	add	x0, x0, #0xb
   89ad4:	39400001 	ldrb	w1, [x0]
   89ad8:	90000200 	adrp	x0, c9000 <g_xCEcoStackTask1List_C761620F+0x37e20>
   89adc:	913d0c00 	add	x0, x0, #0xf43
   89ae0:	39400000 	ldrb	w0, [x0]
   89ae4:	6b00003f 	cmp	w1, w0
   89ae8:	54000621 	b.ne	89bac <CEcoVFB1_AF252188Factory_Alloc+0x28c>  // b.any
   89aec:	f94013a0 	ldr	x0, [x29, #32]
   89af0:	91003000 	add	x0, x0, #0xc
   89af4:	39400001 	ldrb	w1, [x0]
   89af8:	90000200 	adrp	x0, c9000 <g_xCEcoStackTask1List_C761620F+0x37e20>
   89afc:	913d1000 	add	x0, x0, #0xf44
   89b00:	39400000 	ldrb	w0, [x0]
   89b04:	6b00003f 	cmp	w1, w0
   89b08:	54000521 	b.ne	89bac <CEcoVFB1_AF252188Factory_Alloc+0x28c>  // b.any
   89b0c:	f94013a0 	ldr	x0, [x29, #32]
   89b10:	91003400 	add	x0, x0, #0xd
   89b14:	39400001 	ldrb	w1, [x0]
   89b18:	90000200 	adrp	x0, c9000 <g_xCEcoStackTask1List_C761620F+0x37e20>
   89b1c:	913d1400 	add	x0, x0, #0xf45
   89b20:	39400000 	ldrb	w0, [x0]
   89b24:	6b00003f 	cmp	w1, w0
   89b28:	54000421 	b.ne	89bac <CEcoVFB1_AF252188Factory_Alloc+0x28c>  // b.any
   89b2c:	f94013a0 	ldr	x0, [x29, #32]
   89b30:	91003800 	add	x0, x0, #0xe
   89b34:	39400001 	ldrb	w1, [x0]
   89b38:	90000200 	adrp	x0, c9000 <g_xCEcoStackTask1List_C761620F+0x37e20>
   89b3c:	913d1800 	add	x0, x0, #0xf46
   89b40:	39400000 	ldrb	w0, [x0]
   89b44:	6b00003f 	cmp	w1, w0
   89b48:	54000321 	b.ne	89bac <CEcoVFB1_AF252188Factory_Alloc+0x28c>  // b.any
   89b4c:	f94013a0 	ldr	x0, [x29, #32]
   89b50:	91003c00 	add	x0, x0, #0xf
   89b54:	39400001 	ldrb	w1, [x0]
   89b58:	90000200 	adrp	x0, c9000 <g_xCEcoStackTask1List_C761620F+0x37e20>
   89b5c:	913d1c00 	add	x0, x0, #0xf47
   89b60:	39400000 	ldrb	w0, [x0]
   89b64:	6b00003f 	cmp	w1, w0
   89b68:	54000221 	b.ne	89bac <CEcoVFB1_AF252188Factory_Alloc+0x28c>  // b.any
   89b6c:	f94013a0 	ldr	x0, [x29, #32]
   89b70:	91004000 	add	x0, x0, #0x10
   89b74:	39400001 	ldrb	w1, [x0]
   89b78:	90000200 	adrp	x0, c9000 <g_xCEcoStackTask1List_C761620F+0x37e20>
   89b7c:	913d2000 	add	x0, x0, #0xf48
   89b80:	39400000 	ldrb	w0, [x0]
   89b84:	6b00003f 	cmp	w1, w0
   89b88:	54000121 	b.ne	89bac <CEcoVFB1_AF252188Factory_Alloc+0x28c>  // b.any
   89b8c:	f94013a0 	ldr	x0, [x29, #32]
   89b90:	91004400 	add	x0, x0, #0x11
   89b94:	39400001 	ldrb	w1, [x0]
   89b98:	90000200 	adrp	x0, c9000 <g_xCEcoStackTask1List_C761620F+0x37e20>
   89b9c:	913d2400 	add	x0, x0, #0xf49
   89ba0:	39400000 	ldrb	w0, [x0]
   89ba4:	6b00003f 	cmp	w1, w0
   89ba8:	54000060 	b.eq	89bb4 <CEcoVFB1_AF252188Factory_Alloc+0x294>  // b.none
   89bac:	12800000 	mov	w0, #0xffffffff            	// #-1
   89bb0:	14000028 	b	89c50 <CEcoVFB1_AF252188Factory_Alloc+0x330>
   89bb4:	f9402fa0 	ldr	x0, [x29, #88]
   89bb8:	f9400803 	ldr	x3, [x0, #16]
   89bbc:	910123a0 	add	x0, x29, #0x48
   89bc0:	aa0003e2 	mov	x2, x0
   89bc4:	f94017a1 	ldr	x1, [x29, #40]
   89bc8:	f9401ba0 	ldr	x0, [x29, #48]
   89bcc:	d63f0060 	blr	x3
   89bd0:	7900afa0 	strh	w0, [x29, #86]
   89bd4:	79c0afa0 	ldrsh	w0, [x29, #86]
   89bd8:	7100001f 	cmp	w0, #0x0
   89bdc:	54000081 	b.ne	89bec <CEcoVFB1_AF252188Factory_Alloc+0x2cc>  // b.any
   89be0:	f94027a0 	ldr	x0, [x29, #72]
   89be4:	f100001f 	cmp	x0, #0x0
   89be8:	54000061 	b.ne	89bf4 <CEcoVFB1_AF252188Factory_Alloc+0x2d4>  // b.any
   89bec:	12800000 	mov	w0, #0xffffffff            	// #-1
   89bf0:	14000018 	b	89c50 <CEcoVFB1_AF252188Factory_Alloc+0x330>
   89bf4:	f9401fa0 	ldr	x0, [x29, #56]
   89bf8:	f9400000 	ldr	x0, [x0]
   89bfc:	f9401003 	ldr	x3, [x0, #32]
   89c00:	f94027a0 	ldr	x0, [x29, #72]
   89c04:	aa0003e2 	mov	x2, x0
   89c08:	f9401ba1 	ldr	x1, [x29, #48]
   89c0c:	f9401fa0 	ldr	x0, [x29, #56]
   89c10:	d63f0060 	blr	x3
   89c14:	7900afa0 	strh	w0, [x29, #86]
   89c18:	f94027a0 	ldr	x0, [x29, #72]
   89c1c:	f9400000 	ldr	x0, [x0]
   89c20:	f9400003 	ldr	x3, [x0]
   89c24:	f94027a0 	ldr	x0, [x29, #72]
   89c28:	f9400fa2 	ldr	x2, [x29, #24]
   89c2c:	f94013a1 	ldr	x1, [x29, #32]
   89c30:	d63f0060 	blr	x3
   89c34:	7900afa0 	strh	w0, [x29, #86]
   89c38:	f94027a0 	ldr	x0, [x29, #72]
   89c3c:	f9400000 	ldr	x0, [x0]
   89c40:	f9400801 	ldr	x1, [x0, #16]
   89c44:	f94027a0 	ldr	x0, [x29, #72]
   89c48:	d63f0020 	blr	x1
   89c4c:	79c0afa0 	ldrsh	w0, [x29, #86]
   89c50:	a8c67bfd 	ldp	x29, x30, [sp], #96
   89c54:	d65f03c0 	ret

0000000000089c58 <CEcoVFB1_AF252188Factory_get_Name>:
   89c58:	d10083ff 	sub	sp, sp, #0x20
   89c5c:	f90007e0 	str	x0, [sp, #8]
   89c60:	f94007e0 	ldr	x0, [sp, #8]
   89c64:	f9000fe0 	str	x0, [sp, #24]
   89c68:	f94007e0 	ldr	x0, [sp, #8]
   89c6c:	f100001f 	cmp	x0, #0x0
   89c70:	54000061 	b.ne	89c7c <CEcoVFB1_AF252188Factory_get_Name+0x24>  // b.any
   89c74:	d2800000 	mov	x0, #0x0                   	// #0
   89c78:	14000003 	b	89c84 <CEcoVFB1_AF252188Factory_get_Name+0x2c>
   89c7c:	f9400fe0 	ldr	x0, [sp, #24]
   89c80:	91008000 	add	x0, x0, #0x20
   89c84:	910083ff 	add	sp, sp, #0x20
   89c88:	d65f03c0 	ret

0000000000089c8c <CEcoVFB1_AF252188Factory_get_Version>:
   89c8c:	d10083ff 	sub	sp, sp, #0x20
   89c90:	f90007e0 	str	x0, [sp, #8]
   89c94:	f94007e0 	ldr	x0, [sp, #8]
   89c98:	f9000fe0 	str	x0, [sp, #24]
   89c9c:	f94007e0 	ldr	x0, [sp, #8]
   89ca0:	f100001f 	cmp	x0, #0x0
   89ca4:	54000061 	b.ne	89cb0 <CEcoVFB1_AF252188Factory_get_Version+0x24>  // b.any
   89ca8:	d2800000 	mov	x0, #0x0                   	// #0
   89cac:	14000003 	b	89cb8 <CEcoVFB1_AF252188Factory_get_Version+0x2c>
   89cb0:	f9400fe0 	ldr	x0, [sp, #24]
   89cb4:	91018000 	add	x0, x0, #0x60
   89cb8:	910083ff 	add	sp, sp, #0x20
   89cbc:	d65f03c0 	ret

0000000000089cc0 <CEcoVFB1_AF252188Factory_get_Manufacturer>:
   89cc0:	d10083ff 	sub	sp, sp, #0x20
   89cc4:	f90007e0 	str	x0, [sp, #8]
   89cc8:	f94007e0 	ldr	x0, [sp, #8]
   89ccc:	f9000fe0 	str	x0, [sp, #24]
   89cd0:	f94007e0 	ldr	x0, [sp, #8]
   89cd4:	f100001f 	cmp	x0, #0x0
   89cd8:	54000061 	b.ne	89ce4 <CEcoVFB1_AF252188Factory_get_Manufacturer+0x24>  // b.any
   89cdc:	d2800000 	mov	x0, #0x0                   	// #0
   89ce0:	14000003 	b	89cec <CEcoVFB1_AF252188Factory_get_Manufacturer+0x2c>
   89ce4:	f9400fe0 	ldr	x0, [sp, #24]
   89ce8:	9101c000 	add	x0, x0, #0x70
   89cec:	910083ff 	add	sp, sp, #0x20
   89cf0:	d65f03c0 	ret

0000000000089cf4 <CEcoVFB1_AF252188_QueryInterface>:
   89cf4:	a9bc7bfd 	stp	x29, x30, [sp, #-64]!
   89cf8:	910003fd 	mov	x29, sp
   89cfc:	f90017a0 	str	x0, [x29, #40]
   89d00:	f90013a1 	str	x1, [x29, #32]
   89d04:	f9000fa2 	str	x2, [x29, #24]
   89d08:	f94017a0 	ldr	x0, [x29, #40]
   89d0c:	f9001fa0 	str	x0, [x29, #56]
   89d10:	f94017a0 	ldr	x0, [x29, #40]
   89d14:	f100001f 	cmp	x0, #0x0
   89d18:	54000080 	b.eq	89d28 <CEcoVFB1_AF252188_QueryInterface+0x34>  // b.none
   89d1c:	f9400fa0 	ldr	x0, [x29, #24]
   89d20:	f100001f 	cmp	x0, #0x0
   89d24:	54000061 	b.ne	89d30 <CEcoVFB1_AF252188_QueryInterface+0x3c>  // b.any
   89d28:	12800000 	mov	w0, #0xffffffff            	// #-1
   89d2c:	140001cf 	b	8a468 <CEcoVFB1_AF252188_QueryInterface+0x774>
   89d30:	f94013a0 	ldr	x0, [x29, #32]
   89d34:	39400001 	ldrb	w1, [x0]
   89d38:	b0000200 	adrp	x0, ca000 <IID_IEcoIPCCMailbox1+0x8>
   89d3c:	91028000 	add	x0, x0, #0xa0
   89d40:	39400000 	ldrb	w0, [x0]
   89d44:	6b00003f 	cmp	w1, w0
   89d48:	54001241 	b.ne	89f90 <CEcoVFB1_AF252188_QueryInterface+0x29c>  // b.any
   89d4c:	f94013a0 	ldr	x0, [x29, #32]
   89d50:	91000400 	add	x0, x0, #0x1
   89d54:	39400001 	ldrb	w1, [x0]
   89d58:	b0000200 	adrp	x0, ca000 <IID_IEcoIPCCMailbox1+0x8>
   89d5c:	91028400 	add	x0, x0, #0xa1
   89d60:	39400000 	ldrb	w0, [x0]
   89d64:	6b00003f 	cmp	w1, w0
   89d68:	54001141 	b.ne	89f90 <CEcoVFB1_AF252188_QueryInterface+0x29c>  // b.any
   89d6c:	f94013a0 	ldr	x0, [x29, #32]
   89d70:	91000800 	add	x0, x0, #0x2
   89d74:	39400001 	ldrb	w1, [x0]
   89d78:	b0000200 	adrp	x0, ca000 <IID_IEcoIPCCMailbox1+0x8>
   89d7c:	91028800 	add	x0, x0, #0xa2
   89d80:	39400000 	ldrb	w0, [x0]
   89d84:	6b00003f 	cmp	w1, w0
   89d88:	54001041 	b.ne	89f90 <CEcoVFB1_AF252188_QueryInterface+0x29c>  // b.any
   89d8c:	f94013a0 	ldr	x0, [x29, #32]
   89d90:	91000c00 	add	x0, x0, #0x3
   89d94:	39400001 	ldrb	w1, [x0]
   89d98:	b0000200 	adrp	x0, ca000 <IID_IEcoIPCCMailbox1+0x8>
   89d9c:	91028c00 	add	x0, x0, #0xa3
   89da0:	39400000 	ldrb	w0, [x0]
   89da4:	6b00003f 	cmp	w1, w0
   89da8:	54000f41 	b.ne	89f90 <CEcoVFB1_AF252188_QueryInterface+0x29c>  // b.any
   89dac:	f94013a0 	ldr	x0, [x29, #32]
   89db0:	91001000 	add	x0, x0, #0x4
   89db4:	39400001 	ldrb	w1, [x0]
   89db8:	b0000200 	adrp	x0, ca000 <IID_IEcoIPCCMailbox1+0x8>
   89dbc:	91029000 	add	x0, x0, #0xa4
   89dc0:	39400000 	ldrb	w0, [x0]
   89dc4:	6b00003f 	cmp	w1, w0
   89dc8:	54000e41 	b.ne	89f90 <CEcoVFB1_AF252188_QueryInterface+0x29c>  // b.any
   89dcc:	f94013a0 	ldr	x0, [x29, #32]
   89dd0:	91001400 	add	x0, x0, #0x5
   89dd4:	39400001 	ldrb	w1, [x0]
   89dd8:	b0000200 	adrp	x0, ca000 <IID_IEcoIPCCMailbox1+0x8>
   89ddc:	91029400 	add	x0, x0, #0xa5
   89de0:	39400000 	ldrb	w0, [x0]
   89de4:	6b00003f 	cmp	w1, w0
   89de8:	54000d41 	b.ne	89f90 <CEcoVFB1_AF252188_QueryInterface+0x29c>  // b.any
   89dec:	f94013a0 	ldr	x0, [x29, #32]
   89df0:	91001800 	add	x0, x0, #0x6
   89df4:	39400001 	ldrb	w1, [x0]
   89df8:	b0000200 	adrp	x0, ca000 <IID_IEcoIPCCMailbox1+0x8>
   89dfc:	91029800 	add	x0, x0, #0xa6
   89e00:	39400000 	ldrb	w0, [x0]
   89e04:	6b00003f 	cmp	w1, w0
   89e08:	54000c41 	b.ne	89f90 <CEcoVFB1_AF252188_QueryInterface+0x29c>  // b.any
   89e0c:	f94013a0 	ldr	x0, [x29, #32]
   89e10:	91001c00 	add	x0, x0, #0x7
   89e14:	39400001 	ldrb	w1, [x0]
   89e18:	b0000200 	adrp	x0, ca000 <IID_IEcoIPCCMailbox1+0x8>
   89e1c:	91029c00 	add	x0, x0, #0xa7
   89e20:	39400000 	ldrb	w0, [x0]
   89e24:	6b00003f 	cmp	w1, w0
   89e28:	54000b41 	b.ne	89f90 <CEcoVFB1_AF252188_QueryInterface+0x29c>  // b.any
   89e2c:	f94013a0 	ldr	x0, [x29, #32]
   89e30:	91002000 	add	x0, x0, #0x8
   89e34:	39400001 	ldrb	w1, [x0]
   89e38:	b0000200 	adrp	x0, ca000 <IID_IEcoIPCCMailbox1+0x8>
   89e3c:	9102a000 	add	x0, x0, #0xa8
   89e40:	39400000 	ldrb	w0, [x0]
   89e44:	6b00003f 	cmp	w1, w0
   89e48:	54000a41 	b.ne	89f90 <CEcoVFB1_AF252188_QueryInterface+0x29c>  // b.any
   89e4c:	f94013a0 	ldr	x0, [x29, #32]
   89e50:	91002400 	add	x0, x0, #0x9
   89e54:	39400001 	ldrb	w1, [x0]
   89e58:	b0000200 	adrp	x0, ca000 <IID_IEcoIPCCMailbox1+0x8>
   89e5c:	9102a400 	add	x0, x0, #0xa9
   89e60:	39400000 	ldrb	w0, [x0]
   89e64:	6b00003f 	cmp	w1, w0
   89e68:	54000941 	b.ne	89f90 <CEcoVFB1_AF252188_QueryInterface+0x29c>  // b.any
   89e6c:	f94013a0 	ldr	x0, [x29, #32]
   89e70:	91002800 	add	x0, x0, #0xa
   89e74:	39400001 	ldrb	w1, [x0]
   89e78:	b0000200 	adrp	x0, ca000 <IID_IEcoIPCCMailbox1+0x8>
   89e7c:	9102a800 	add	x0, x0, #0xaa
   89e80:	39400000 	ldrb	w0, [x0]
   89e84:	6b00003f 	cmp	w1, w0
   89e88:	54000841 	b.ne	89f90 <CEcoVFB1_AF252188_QueryInterface+0x29c>  // b.any
   89e8c:	f94013a0 	ldr	x0, [x29, #32]
   89e90:	91002c00 	add	x0, x0, #0xb
   89e94:	39400001 	ldrb	w1, [x0]
   89e98:	b0000200 	adrp	x0, ca000 <IID_IEcoIPCCMailbox1+0x8>
   89e9c:	9102ac00 	add	x0, x0, #0xab
   89ea0:	39400000 	ldrb	w0, [x0]
   89ea4:	6b00003f 	cmp	w1, w0
   89ea8:	54000741 	b.ne	89f90 <CEcoVFB1_AF252188_QueryInterface+0x29c>  // b.any
   89eac:	f94013a0 	ldr	x0, [x29, #32]
   89eb0:	91003000 	add	x0, x0, #0xc
   89eb4:	39400001 	ldrb	w1, [x0]
   89eb8:	b0000200 	adrp	x0, ca000 <IID_IEcoIPCCMailbox1+0x8>
   89ebc:	9102b000 	add	x0, x0, #0xac
   89ec0:	39400000 	ldrb	w0, [x0]
   89ec4:	6b00003f 	cmp	w1, w0
   89ec8:	54000641 	b.ne	89f90 <CEcoVFB1_AF252188_QueryInterface+0x29c>  // b.any
   89ecc:	f94013a0 	ldr	x0, [x29, #32]
   89ed0:	91003400 	add	x0, x0, #0xd
   89ed4:	39400001 	ldrb	w1, [x0]
   89ed8:	b0000200 	adrp	x0, ca000 <IID_IEcoIPCCMailbox1+0x8>
   89edc:	9102b400 	add	x0, x0, #0xad
   89ee0:	39400000 	ldrb	w0, [x0]
   89ee4:	6b00003f 	cmp	w1, w0
   89ee8:	54000541 	b.ne	89f90 <CEcoVFB1_AF252188_QueryInterface+0x29c>  // b.any
   89eec:	f94013a0 	ldr	x0, [x29, #32]
   89ef0:	91003800 	add	x0, x0, #0xe
   89ef4:	39400001 	ldrb	w1, [x0]
   89ef8:	b0000200 	adrp	x0, ca000 <IID_IEcoIPCCMailbox1+0x8>
   89efc:	9102b800 	add	x0, x0, #0xae
   89f00:	39400000 	ldrb	w0, [x0]
   89f04:	6b00003f 	cmp	w1, w0
   89f08:	54000441 	b.ne	89f90 <CEcoVFB1_AF252188_QueryInterface+0x29c>  // b.any
   89f0c:	f94013a0 	ldr	x0, [x29, #32]
   89f10:	91003c00 	add	x0, x0, #0xf
   89f14:	39400001 	ldrb	w1, [x0]
   89f18:	b0000200 	adrp	x0, ca000 <IID_IEcoIPCCMailbox1+0x8>
   89f1c:	9102bc00 	add	x0, x0, #0xaf
   89f20:	39400000 	ldrb	w0, [x0]
   89f24:	6b00003f 	cmp	w1, w0
   89f28:	54000341 	b.ne	89f90 <CEcoVFB1_AF252188_QueryInterface+0x29c>  // b.any
   89f2c:	f94013a0 	ldr	x0, [x29, #32]
   89f30:	91004000 	add	x0, x0, #0x10
   89f34:	39400001 	ldrb	w1, [x0]
   89f38:	b0000200 	adrp	x0, ca000 <IID_IEcoIPCCMailbox1+0x8>
   89f3c:	9102c000 	add	x0, x0, #0xb0
   89f40:	39400000 	ldrb	w0, [x0]
   89f44:	6b00003f 	cmp	w1, w0
   89f48:	54000241 	b.ne	89f90 <CEcoVFB1_AF252188_QueryInterface+0x29c>  // b.any
   89f4c:	f94013a0 	ldr	x0, [x29, #32]
   89f50:	91004400 	add	x0, x0, #0x11
   89f54:	39400001 	ldrb	w1, [x0]
   89f58:	b0000200 	adrp	x0, ca000 <IID_IEcoIPCCMailbox1+0x8>
   89f5c:	9102c400 	add	x0, x0, #0xb1
   89f60:	39400000 	ldrb	w0, [x0]
   89f64:	6b00003f 	cmp	w1, w0
   89f68:	54000141 	b.ne	89f90 <CEcoVFB1_AF252188_QueryInterface+0x29c>  // b.any
   89f6c:	f9401fa1 	ldr	x1, [x29, #56]
   89f70:	f9400fa0 	ldr	x0, [x29, #24]
   89f74:	f9000001 	str	x1, [x0]
   89f78:	f9401fa0 	ldr	x0, [x29, #56]
   89f7c:	f9400000 	ldr	x0, [x0]
   89f80:	f9400401 	ldr	x1, [x0, #8]
   89f84:	f9401fa0 	ldr	x0, [x29, #56]
   89f88:	d63f0020 	blr	x1
   89f8c:	14000136 	b	8a464 <CEcoVFB1_AF252188_QueryInterface+0x770>
   89f90:	f94013a0 	ldr	x0, [x29, #32]
   89f94:	39400001 	ldrb	w1, [x0]
   89f98:	b0000200 	adrp	x0, ca000 <IID_IEcoIPCCMailbox1+0x8>
   89f9c:	91040000 	add	x0, x0, #0x100
   89fa0:	39400000 	ldrb	w0, [x0]
   89fa4:	6b00003f 	cmp	w1, w0
   89fa8:	54001261 	b.ne	8a1f4 <CEcoVFB1_AF252188_QueryInterface+0x500>  // b.any
   89fac:	f94013a0 	ldr	x0, [x29, #32]
   89fb0:	91000400 	add	x0, x0, #0x1
   89fb4:	39400001 	ldrb	w1, [x0]
   89fb8:	b0000200 	adrp	x0, ca000 <IID_IEcoIPCCMailbox1+0x8>
   89fbc:	91040400 	add	x0, x0, #0x101
   89fc0:	39400000 	ldrb	w0, [x0]
   89fc4:	6b00003f 	cmp	w1, w0
   89fc8:	54001161 	b.ne	8a1f4 <CEcoVFB1_AF252188_QueryInterface+0x500>  // b.any
   89fcc:	f94013a0 	ldr	x0, [x29, #32]
   89fd0:	91000800 	add	x0, x0, #0x2
   89fd4:	39400001 	ldrb	w1, [x0]
   89fd8:	b0000200 	adrp	x0, ca000 <IID_IEcoIPCCMailbox1+0x8>
   89fdc:	91040800 	add	x0, x0, #0x102
   89fe0:	39400000 	ldrb	w0, [x0]
   89fe4:	6b00003f 	cmp	w1, w0
   89fe8:	54001061 	b.ne	8a1f4 <CEcoVFB1_AF252188_QueryInterface+0x500>  // b.any
   89fec:	f94013a0 	ldr	x0, [x29, #32]
   89ff0:	91000c00 	add	x0, x0, #0x3
   89ff4:	39400001 	ldrb	w1, [x0]
   89ff8:	b0000200 	adrp	x0, ca000 <IID_IEcoIPCCMailbox1+0x8>
   89ffc:	91040c00 	add	x0, x0, #0x103
   8a000:	39400000 	ldrb	w0, [x0]
   8a004:	6b00003f 	cmp	w1, w0
   8a008:	54000f61 	b.ne	8a1f4 <CEcoVFB1_AF252188_QueryInterface+0x500>  // b.any
   8a00c:	f94013a0 	ldr	x0, [x29, #32]
   8a010:	91001000 	add	x0, x0, #0x4
   8a014:	39400001 	ldrb	w1, [x0]
   8a018:	90000200 	adrp	x0, ca000 <IID_IEcoIPCCMailbox1+0x8>
   8a01c:	91041000 	add	x0, x0, #0x104
   8a020:	39400000 	ldrb	w0, [x0]
   8a024:	6b00003f 	cmp	w1, w0
   8a028:	54000e61 	b.ne	8a1f4 <CEcoVFB1_AF252188_QueryInterface+0x500>  // b.any
   8a02c:	f94013a0 	ldr	x0, [x29, #32]
   8a030:	91001400 	add	x0, x0, #0x5
   8a034:	39400001 	ldrb	w1, [x0]
   8a038:	90000200 	adrp	x0, ca000 <IID_IEcoIPCCMailbox1+0x8>
   8a03c:	91041400 	add	x0, x0, #0x105
   8a040:	39400000 	ldrb	w0, [x0]
   8a044:	6b00003f 	cmp	w1, w0
   8a048:	54000d61 	b.ne	8a1f4 <CEcoVFB1_AF252188_QueryInterface+0x500>  // b.any
   8a04c:	f94013a0 	ldr	x0, [x29, #32]
   8a050:	91001800 	add	x0, x0, #0x6
   8a054:	39400001 	ldrb	w1, [x0]
   8a058:	90000200 	adrp	x0, ca000 <IID_IEcoIPCCMailbox1+0x8>
   8a05c:	91041800 	add	x0, x0, #0x106
   8a060:	39400000 	ldrb	w0, [x0]
   8a064:	6b00003f 	cmp	w1, w0
   8a068:	54000c61 	b.ne	8a1f4 <CEcoVFB1_AF252188_QueryInterface+0x500>  // b.any
   8a06c:	f94013a0 	ldr	x0, [x29, #32]
   8a070:	91001c00 	add	x0, x0, #0x7
   8a074:	39400001 	ldrb	w1, [x0]
   8a078:	90000200 	adrp	x0, ca000 <IID_IEcoIPCCMailbox1+0x8>
   8a07c:	91041c00 	add	x0, x0, #0x107
   8a080:	39400000 	ldrb	w0, [x0]
   8a084:	6b00003f 	cmp	w1, w0
   8a088:	54000b61 	b.ne	8a1f4 <CEcoVFB1_AF252188_QueryInterface+0x500>  // b.any
   8a08c:	f94013a0 	ldr	x0, [x29, #32]
   8a090:	91002000 	add	x0, x0, #0x8
   8a094:	39400001 	ldrb	w1, [x0]
   8a098:	90000200 	adrp	x0, ca000 <IID_IEcoIPCCMailbox1+0x8>
   8a09c:	91042000 	add	x0, x0, #0x108
   8a0a0:	39400000 	ldrb	w0, [x0]
   8a0a4:	6b00003f 	cmp	w1, w0
   8a0a8:	54000a61 	b.ne	8a1f4 <CEcoVFB1_AF252188_QueryInterface+0x500>  // b.any
   8a0ac:	f94013a0 	ldr	x0, [x29, #32]
   8a0b0:	91002400 	add	x0, x0, #0x9
   8a0b4:	39400001 	ldrb	w1, [x0]
   8a0b8:	90000200 	adrp	x0, ca000 <IID_IEcoIPCCMailbox1+0x8>
   8a0bc:	91042400 	add	x0, x0, #0x109
   8a0c0:	39400000 	ldrb	w0, [x0]
   8a0c4:	6b00003f 	cmp	w1, w0
   8a0c8:	54000961 	b.ne	8a1f4 <CEcoVFB1_AF252188_QueryInterface+0x500>  // b.any
   8a0cc:	f94013a0 	ldr	x0, [x29, #32]
   8a0d0:	91002800 	add	x0, x0, #0xa
   8a0d4:	39400001 	ldrb	w1, [x0]
   8a0d8:	90000200 	adrp	x0, ca000 <IID_IEcoIPCCMailbox1+0x8>
   8a0dc:	91042800 	add	x0, x0, #0x10a
   8a0e0:	39400000 	ldrb	w0, [x0]
   8a0e4:	6b00003f 	cmp	w1, w0
   8a0e8:	54000861 	b.ne	8a1f4 <CEcoVFB1_AF252188_QueryInterface+0x500>  // b.any
   8a0ec:	f94013a0 	ldr	x0, [x29, #32]
   8a0f0:	91002c00 	add	x0, x0, #0xb
   8a0f4:	39400001 	ldrb	w1, [x0]
   8a0f8:	90000200 	adrp	x0, ca000 <IID_IEcoIPCCMailbox1+0x8>
   8a0fc:	91042c00 	add	x0, x0, #0x10b
   8a100:	39400000 	ldrb	w0, [x0]
   8a104:	6b00003f 	cmp	w1, w0
   8a108:	54000761 	b.ne	8a1f4 <CEcoVFB1_AF252188_QueryInterface+0x500>  // b.any
   8a10c:	f94013a0 	ldr	x0, [x29, #32]
   8a110:	91003000 	add	x0, x0, #0xc
   8a114:	39400001 	ldrb	w1, [x0]
   8a118:	90000200 	adrp	x0, ca000 <IID_IEcoIPCCMailbox1+0x8>
   8a11c:	91043000 	add	x0, x0, #0x10c
   8a120:	39400000 	ldrb	w0, [x0]
   8a124:	6b00003f 	cmp	w1, w0
   8a128:	54000661 	b.ne	8a1f4 <CEcoVFB1_AF252188_QueryInterface+0x500>  // b.any
   8a12c:	f94013a0 	ldr	x0, [x29, #32]
   8a130:	91003400 	add	x0, x0, #0xd
   8a134:	39400001 	ldrb	w1, [x0]
   8a138:	90000200 	adrp	x0, ca000 <IID_IEcoIPCCMailbox1+0x8>
   8a13c:	91043400 	add	x0, x0, #0x10d
   8a140:	39400000 	ldrb	w0, [x0]
   8a144:	6b00003f 	cmp	w1, w0
   8a148:	54000561 	b.ne	8a1f4 <CEcoVFB1_AF252188_QueryInterface+0x500>  // b.any
   8a14c:	f94013a0 	ldr	x0, [x29, #32]
   8a150:	91003800 	add	x0, x0, #0xe
   8a154:	39400001 	ldrb	w1, [x0]
   8a158:	90000200 	adrp	x0, ca000 <IID_IEcoIPCCMailbox1+0x8>
   8a15c:	91043800 	add	x0, x0, #0x10e
   8a160:	39400000 	ldrb	w0, [x0]
   8a164:	6b00003f 	cmp	w1, w0
   8a168:	54000461 	b.ne	8a1f4 <CEcoVFB1_AF252188_QueryInterface+0x500>  // b.any
   8a16c:	f94013a0 	ldr	x0, [x29, #32]
   8a170:	91003c00 	add	x0, x0, #0xf
   8a174:	39400001 	ldrb	w1, [x0]
   8a178:	90000200 	adrp	x0, ca000 <IID_IEcoIPCCMailbox1+0x8>
   8a17c:	91043c00 	add	x0, x0, #0x10f
   8a180:	39400000 	ldrb	w0, [x0]
   8a184:	6b00003f 	cmp	w1, w0
   8a188:	54000361 	b.ne	8a1f4 <CEcoVFB1_AF252188_QueryInterface+0x500>  // b.any
   8a18c:	f94013a0 	ldr	x0, [x29, #32]
   8a190:	91004000 	add	x0, x0, #0x10
   8a194:	39400001 	ldrb	w1, [x0]
   8a198:	90000200 	adrp	x0, ca000 <IID_IEcoIPCCMailbox1+0x8>
   8a19c:	91044000 	add	x0, x0, #0x110
   8a1a0:	39400000 	ldrb	w0, [x0]
   8a1a4:	6b00003f 	cmp	w1, w0
   8a1a8:	54000261 	b.ne	8a1f4 <CEcoVFB1_AF252188_QueryInterface+0x500>  // b.any
   8a1ac:	f94013a0 	ldr	x0, [x29, #32]
   8a1b0:	91004400 	add	x0, x0, #0x11
   8a1b4:	39400001 	ldrb	w1, [x0]
   8a1b8:	90000200 	adrp	x0, ca000 <IID_IEcoIPCCMailbox1+0x8>
   8a1bc:	91044400 	add	x0, x0, #0x111
   8a1c0:	39400000 	ldrb	w0, [x0]
   8a1c4:	6b00003f 	cmp	w1, w0
   8a1c8:	54000161 	b.ne	8a1f4 <CEcoVFB1_AF252188_QueryInterface+0x500>  // b.any
   8a1cc:	f9401fa0 	ldr	x0, [x29, #56]
   8a1d0:	91002001 	add	x1, x0, #0x8
   8a1d4:	f9400fa0 	ldr	x0, [x29, #24]
   8a1d8:	f9000001 	str	x1, [x0]
   8a1dc:	f9401fa0 	ldr	x0, [x29, #56]
   8a1e0:	f9400000 	ldr	x0, [x0]
   8a1e4:	f9400401 	ldr	x1, [x0, #8]
   8a1e8:	f9401fa0 	ldr	x0, [x29, #56]
   8a1ec:	d63f0020 	blr	x1
   8a1f0:	1400009d 	b	8a464 <CEcoVFB1_AF252188_QueryInterface+0x770>
   8a1f4:	f94013a0 	ldr	x0, [x29, #32]
   8a1f8:	39400001 	ldrb	w1, [x0]
   8a1fc:	90000200 	adrp	x0, ca000 <IID_IEcoIPCCMailbox1+0x8>
   8a200:	9100a000 	add	x0, x0, #0x28
   8a204:	39400000 	ldrb	w0, [x0]
   8a208:	6b00003f 	cmp	w1, w0
   8a20c:	54001241 	b.ne	8a454 <CEcoVFB1_AF252188_QueryInterface+0x760>  // b.any
   8a210:	f94013a0 	ldr	x0, [x29, #32]
   8a214:	91000400 	add	x0, x0, #0x1
   8a218:	39400001 	ldrb	w1, [x0]
   8a21c:	90000200 	adrp	x0, ca000 <IID_IEcoIPCCMailbox1+0x8>
   8a220:	9100a400 	add	x0, x0, #0x29
   8a224:	39400000 	ldrb	w0, [x0]
   8a228:	6b00003f 	cmp	w1, w0
   8a22c:	54001141 	b.ne	8a454 <CEcoVFB1_AF252188_QueryInterface+0x760>  // b.any
   8a230:	f94013a0 	ldr	x0, [x29, #32]
   8a234:	91000800 	add	x0, x0, #0x2
   8a238:	39400001 	ldrb	w1, [x0]
   8a23c:	90000200 	adrp	x0, ca000 <IID_IEcoIPCCMailbox1+0x8>
   8a240:	9100a800 	add	x0, x0, #0x2a
   8a244:	39400000 	ldrb	w0, [x0]
   8a248:	6b00003f 	cmp	w1, w0
   8a24c:	54001041 	b.ne	8a454 <CEcoVFB1_AF252188_QueryInterface+0x760>  // b.any
   8a250:	f94013a0 	ldr	x0, [x29, #32]
   8a254:	91000c00 	add	x0, x0, #0x3
   8a258:	39400001 	ldrb	w1, [x0]
   8a25c:	90000200 	adrp	x0, ca000 <IID_IEcoIPCCMailbox1+0x8>
   8a260:	9100ac00 	add	x0, x0, #0x2b
   8a264:	39400000 	ldrb	w0, [x0]
   8a268:	6b00003f 	cmp	w1, w0
   8a26c:	54000f41 	b.ne	8a454 <CEcoVFB1_AF252188_QueryInterface+0x760>  // b.any
   8a270:	f94013a0 	ldr	x0, [x29, #32]
   8a274:	91001000 	add	x0, x0, #0x4
   8a278:	39400001 	ldrb	w1, [x0]
   8a27c:	90000200 	adrp	x0, ca000 <IID_IEcoIPCCMailbox1+0x8>
   8a280:	9100b000 	add	x0, x0, #0x2c
   8a284:	39400000 	ldrb	w0, [x0]
   8a288:	6b00003f 	cmp	w1, w0
   8a28c:	54000e41 	b.ne	8a454 <CEcoVFB1_AF252188_QueryInterface+0x760>  // b.any
   8a290:	f94013a0 	ldr	x0, [x29, #32]
   8a294:	91001400 	add	x0, x0, #0x5
   8a298:	39400001 	ldrb	w1, [x0]
   8a29c:	90000200 	adrp	x0, ca000 <IID_IEcoIPCCMailbox1+0x8>
   8a2a0:	9100b400 	add	x0, x0, #0x2d
   8a2a4:	39400000 	ldrb	w0, [x0]
   8a2a8:	6b00003f 	cmp	w1, w0
   8a2ac:	54000d41 	b.ne	8a454 <CEcoVFB1_AF252188_QueryInterface+0x760>  // b.any
   8a2b0:	f94013a0 	ldr	x0, [x29, #32]
   8a2b4:	91001800 	add	x0, x0, #0x6
   8a2b8:	39400001 	ldrb	w1, [x0]
   8a2bc:	90000200 	adrp	x0, ca000 <IID_IEcoIPCCMailbox1+0x8>
   8a2c0:	9100b800 	add	x0, x0, #0x2e
   8a2c4:	39400000 	ldrb	w0, [x0]
   8a2c8:	6b00003f 	cmp	w1, w0
   8a2cc:	54000c41 	b.ne	8a454 <CEcoVFB1_AF252188_QueryInterface+0x760>  // b.any
   8a2d0:	f94013a0 	ldr	x0, [x29, #32]
   8a2d4:	91001c00 	add	x0, x0, #0x7
   8a2d8:	39400001 	ldrb	w1, [x0]
   8a2dc:	90000200 	adrp	x0, ca000 <IID_IEcoIPCCMailbox1+0x8>
   8a2e0:	9100bc00 	add	x0, x0, #0x2f
   8a2e4:	39400000 	ldrb	w0, [x0]
   8a2e8:	6b00003f 	cmp	w1, w0
   8a2ec:	54000b41 	b.ne	8a454 <CEcoVFB1_AF252188_QueryInterface+0x760>  // b.any
   8a2f0:	f94013a0 	ldr	x0, [x29, #32]
   8a2f4:	91002000 	add	x0, x0, #0x8
   8a2f8:	39400001 	ldrb	w1, [x0]
   8a2fc:	90000200 	adrp	x0, ca000 <IID_IEcoIPCCMailbox1+0x8>
   8a300:	9100c000 	add	x0, x0, #0x30
   8a304:	39400000 	ldrb	w0, [x0]
   8a308:	6b00003f 	cmp	w1, w0
   8a30c:	54000a41 	b.ne	8a454 <CEcoVFB1_AF252188_QueryInterface+0x760>  // b.any
   8a310:	f94013a0 	ldr	x0, [x29, #32]
   8a314:	91002400 	add	x0, x0, #0x9
   8a318:	39400001 	ldrb	w1, [x0]
   8a31c:	90000200 	adrp	x0, ca000 <IID_IEcoIPCCMailbox1+0x8>
   8a320:	9100c400 	add	x0, x0, #0x31
   8a324:	39400000 	ldrb	w0, [x0]
   8a328:	6b00003f 	cmp	w1, w0
   8a32c:	54000941 	b.ne	8a454 <CEcoVFB1_AF252188_QueryInterface+0x760>  // b.any
   8a330:	f94013a0 	ldr	x0, [x29, #32]
   8a334:	91002800 	add	x0, x0, #0xa
   8a338:	39400001 	ldrb	w1, [x0]
   8a33c:	90000200 	adrp	x0, ca000 <IID_IEcoIPCCMailbox1+0x8>
   8a340:	9100c800 	add	x0, x0, #0x32
   8a344:	39400000 	ldrb	w0, [x0]
   8a348:	6b00003f 	cmp	w1, w0
   8a34c:	54000841 	b.ne	8a454 <CEcoVFB1_AF252188_QueryInterface+0x760>  // b.any
   8a350:	f94013a0 	ldr	x0, [x29, #32]
   8a354:	91002c00 	add	x0, x0, #0xb
   8a358:	39400001 	ldrb	w1, [x0]
   8a35c:	90000200 	adrp	x0, ca000 <IID_IEcoIPCCMailbox1+0x8>
   8a360:	9100cc00 	add	x0, x0, #0x33
   8a364:	39400000 	ldrb	w0, [x0]
   8a368:	6b00003f 	cmp	w1, w0
   8a36c:	54000741 	b.ne	8a454 <CEcoVFB1_AF252188_QueryInterface+0x760>  // b.any
   8a370:	f94013a0 	ldr	x0, [x29, #32]
   8a374:	91003000 	add	x0, x0, #0xc
   8a378:	39400001 	ldrb	w1, [x0]
   8a37c:	90000200 	adrp	x0, ca000 <IID_IEcoIPCCMailbox1+0x8>
   8a380:	9100d000 	add	x0, x0, #0x34
   8a384:	39400000 	ldrb	w0, [x0]
   8a388:	6b00003f 	cmp	w1, w0
   8a38c:	54000641 	b.ne	8a454 <CEcoVFB1_AF252188_QueryInterface+0x760>  // b.any
   8a390:	f94013a0 	ldr	x0, [x29, #32]
   8a394:	91003400 	add	x0, x0, #0xd
   8a398:	39400001 	ldrb	w1, [x0]
   8a39c:	90000200 	adrp	x0, ca000 <IID_IEcoIPCCMailbox1+0x8>
   8a3a0:	9100d400 	add	x0, x0, #0x35
   8a3a4:	39400000 	ldrb	w0, [x0]
   8a3a8:	6b00003f 	cmp	w1, w0
   8a3ac:	54000541 	b.ne	8a454 <CEcoVFB1_AF252188_QueryInterface+0x760>  // b.any
   8a3b0:	f94013a0 	ldr	x0, [x29, #32]
   8a3b4:	91003800 	add	x0, x0, #0xe
   8a3b8:	39400001 	ldrb	w1, [x0]
   8a3bc:	90000200 	adrp	x0, ca000 <IID_IEcoIPCCMailbox1+0x8>
   8a3c0:	9100d800 	add	x0, x0, #0x36
   8a3c4:	39400000 	ldrb	w0, [x0]
   8a3c8:	6b00003f 	cmp	w1, w0
   8a3cc:	54000441 	b.ne	8a454 <CEcoVFB1_AF252188_QueryInterface+0x760>  // b.any
   8a3d0:	f94013a0 	ldr	x0, [x29, #32]
   8a3d4:	91003c00 	add	x0, x0, #0xf
   8a3d8:	39400001 	ldrb	w1, [x0]
   8a3dc:	90000200 	adrp	x0, ca000 <IID_IEcoIPCCMailbox1+0x8>
   8a3e0:	9100dc00 	add	x0, x0, #0x37
   8a3e4:	39400000 	ldrb	w0, [x0]
   8a3e8:	6b00003f 	cmp	w1, w0
   8a3ec:	54000341 	b.ne	8a454 <CEcoVFB1_AF252188_QueryInterface+0x760>  // b.any
   8a3f0:	f94013a0 	ldr	x0, [x29, #32]
   8a3f4:	91004000 	add	x0, x0, #0x10
   8a3f8:	39400001 	ldrb	w1, [x0]
   8a3fc:	90000200 	adrp	x0, ca000 <IID_IEcoIPCCMailbox1+0x8>
   8a400:	9100e000 	add	x0, x0, #0x38
   8a404:	39400000 	ldrb	w0, [x0]
   8a408:	6b00003f 	cmp	w1, w0
   8a40c:	54000241 	b.ne	8a454 <CEcoVFB1_AF252188_QueryInterface+0x760>  // b.any
   8a410:	f94013a0 	ldr	x0, [x29, #32]
   8a414:	91004400 	add	x0, x0, #0x11
   8a418:	39400001 	ldrb	w1, [x0]
   8a41c:	90000200 	adrp	x0, ca000 <IID_IEcoIPCCMailbox1+0x8>
   8a420:	9100e400 	add	x0, x0, #0x39
   8a424:	39400000 	ldrb	w0, [x0]
   8a428:	6b00003f 	cmp	w1, w0
   8a42c:	54000141 	b.ne	8a454 <CEcoVFB1_AF252188_QueryInterface+0x760>  // b.any
   8a430:	f9401fa1 	ldr	x1, [x29, #56]
   8a434:	f9400fa0 	ldr	x0, [x29, #24]
   8a438:	f9000001 	str	x1, [x0]
   8a43c:	f9401fa0 	ldr	x0, [x29, #56]
   8a440:	f9400000 	ldr	x0, [x0]
   8a444:	f9400401 	ldr	x1, [x0, #8]
   8a448:	f9401fa0 	ldr	x0, [x29, #56]
   8a44c:	d63f0020 	blr	x1
   8a450:	14000005 	b	8a464 <CEcoVFB1_AF252188_QueryInterface+0x770>
   8a454:	f9400fa0 	ldr	x0, [x29, #24]
   8a458:	f900001f 	str	xzr, [x0]
   8a45c:	12800000 	mov	w0, #0xffffffff            	// #-1
   8a460:	14000002 	b	8a468 <CEcoVFB1_AF252188_QueryInterface+0x774>
   8a464:	52800000 	mov	w0, #0x0                   	// #0
   8a468:	a8c47bfd 	ldp	x29, x30, [sp], #64
   8a46c:	d65f03c0 	ret

000000000008a470 <CEcoVFB1_AF252188_AddRef>:
   8a470:	d10083ff 	sub	sp, sp, #0x20
   8a474:	f90007e0 	str	x0, [sp, #8]
   8a478:	f94007e0 	ldr	x0, [sp, #8]
   8a47c:	f9000fe0 	str	x0, [sp, #24]
   8a480:	f94007e0 	ldr	x0, [sp, #8]
   8a484:	f100001f 	cmp	x0, #0x0
   8a488:	54000061 	b.ne	8a494 <CEcoVFB1_AF252188_AddRef+0x24>  // b.any
   8a48c:	12800000 	mov	w0, #0xffffffff            	// #-1
   8a490:	14000008 	b	8a4b0 <CEcoVFB1_AF252188_AddRef+0x40>
   8a494:	f9400fe0 	ldr	x0, [sp, #24]
   8a498:	b9401000 	ldr	w0, [x0, #16]
   8a49c:	11000401 	add	w1, w0, #0x1
   8a4a0:	f9400fe0 	ldr	x0, [sp, #24]
   8a4a4:	b9001001 	str	w1, [x0, #16]
   8a4a8:	f9400fe0 	ldr	x0, [sp, #24]
   8a4ac:	b9401000 	ldr	w0, [x0, #16]
   8a4b0:	910083ff 	add	sp, sp, #0x20
   8a4b4:	d65f03c0 	ret

000000000008a4b8 <CEcoVFB1_AF252188_Release>:
   8a4b8:	a9bd7bfd 	stp	x29, x30, [sp, #-48]!
   8a4bc:	910003fd 	mov	x29, sp
   8a4c0:	f9000fa0 	str	x0, [x29, #24]
   8a4c4:	f9400fa0 	ldr	x0, [x29, #24]
   8a4c8:	f90017a0 	str	x0, [x29, #40]
   8a4cc:	f9400fa0 	ldr	x0, [x29, #24]
   8a4d0:	f100001f 	cmp	x0, #0x0
   8a4d4:	54000061 	b.ne	8a4e0 <CEcoVFB1_AF252188_Release+0x28>  // b.any
   8a4d8:	12800000 	mov	w0, #0xffffffff            	// #-1
   8a4dc:	14000010 	b	8a51c <CEcoVFB1_AF252188_Release+0x64>
   8a4e0:	f94017a0 	ldr	x0, [x29, #40]
   8a4e4:	b9401000 	ldr	w0, [x0, #16]
   8a4e8:	51000401 	sub	w1, w0, #0x1
   8a4ec:	f94017a0 	ldr	x0, [x29, #40]
   8a4f0:	b9001001 	str	w1, [x0, #16]
   8a4f4:	f94017a0 	ldr	x0, [x29, #40]
   8a4f8:	b9401000 	ldr	w0, [x0, #16]
   8a4fc:	7100001f 	cmp	w0, #0x0
   8a500:	540000a1 	b.ne	8a514 <CEcoVFB1_AF252188_Release+0x5c>  // b.any
   8a504:	f94017a0 	ldr	x0, [x29, #40]
   8a508:	940005b3 	bl	8bbd4 <deleteCEcoVFB1_AF252188>
   8a50c:	52800000 	mov	w0, #0x0                   	// #0
   8a510:	14000003 	b	8a51c <CEcoVFB1_AF252188_Release+0x64>
   8a514:	f94017a0 	ldr	x0, [x29, #40]
   8a518:	b9401000 	ldr	w0, [x0, #16]
   8a51c:	a8c37bfd 	ldp	x29, x30, [sp], #48
   8a520:	d65f03c0 	ret

000000000008a524 <CEcoVFB1_AF252188_set_VideoMode>:
   8a524:	d10083ff 	sub	sp, sp, #0x20
   8a528:	f90007e0 	str	x0, [sp, #8]
   8a52c:	39001fe1 	strb	w1, [sp, #7]
   8a530:	f94007e0 	ldr	x0, [sp, #8]
   8a534:	f9000fe0 	str	x0, [sp, #24]
   8a538:	f94007e0 	ldr	x0, [sp, #8]
   8a53c:	f100001f 	cmp	x0, #0x0
   8a540:	54000061 	b.ne	8a54c <CEcoVFB1_AF252188_set_VideoMode+0x28>  // b.any
   8a544:	12800000 	mov	w0, #0xffffffff            	// #-1
   8a548:	14000002 	b	8a550 <CEcoVFB1_AF252188_set_VideoMode+0x2c>
   8a54c:	52800000 	mov	w0, #0x0                   	// #0
   8a550:	910083ff 	add	sp, sp, #0x20
   8a554:	d65f03c0 	ret

000000000008a558 <CEcoVFB1_AF252188_set_CursorShape>:
   8a558:	d100c3ff 	sub	sp, sp, #0x30
   8a55c:	f9000fe0 	str	x0, [sp, #24]
   8a560:	f9000be1 	str	x1, [sp, #16]
   8a564:	39003fe2 	strb	w2, [sp, #15]
   8a568:	f9400fe0 	ldr	x0, [sp, #24]
   8a56c:	f90017e0 	str	x0, [sp, #40]
   8a570:	f9400fe0 	ldr	x0, [sp, #24]
   8a574:	f100001f 	cmp	x0, #0x0
   8a578:	54000061 	b.ne	8a584 <CEcoVFB1_AF252188_set_CursorShape+0x2c>  // b.any
   8a57c:	12800000 	mov	w0, #0xffffffff            	// #-1
   8a580:	14000002 	b	8a588 <CEcoVFB1_AF252188_set_CursorShape+0x30>
   8a584:	52800000 	mov	w0, #0x0                   	// #0
   8a588:	9100c3ff 	add	sp, sp, #0x30
   8a58c:	d65f03c0 	ret

000000000008a590 <CEcoVFB1_AF252188_set_CursorPosition>:
   8a590:	d10083ff 	sub	sp, sp, #0x20
   8a594:	f90007e0 	str	x0, [sp, #8]
   8a598:	39001fe1 	strb	w1, [sp, #7]
   8a59c:	79000be2 	strh	w2, [sp, #4]
   8a5a0:	790007e3 	strh	w3, [sp, #2]
   8a5a4:	f94007e0 	ldr	x0, [sp, #8]
   8a5a8:	f9000fe0 	str	x0, [sp, #24]
   8a5ac:	f94007e0 	ldr	x0, [sp, #8]
   8a5b0:	f100001f 	cmp	x0, #0x0
   8a5b4:	54000061 	b.ne	8a5c0 <CEcoVFB1_AF252188_set_CursorPosition+0x30>  // b.any
   8a5b8:	12800000 	mov	w0, #0xffffffff            	// #-1
   8a5bc:	14000008 	b	8a5dc <CEcoVFB1_AF252188_set_CursorPosition+0x4c>
   8a5c0:	79400be1 	ldrh	w1, [sp, #4]
   8a5c4:	f9400fe0 	ldr	x0, [sp, #24]
   8a5c8:	b9004c01 	str	w1, [x0, #76]
   8a5cc:	794007e1 	ldrh	w1, [sp, #2]
   8a5d0:	f9400fe0 	ldr	x0, [sp, #24]
   8a5d4:	b9005001 	str	w1, [x0, #80]
   8a5d8:	52800000 	mov	w0, #0x0                   	// #0
   8a5dc:	910083ff 	add	sp, sp, #0x20
   8a5e0:	d65f03c0 	ret

000000000008a5e4 <CEcoVFB1_AF252188_get_CursorPosition>:
   8a5e4:	d10103ff 	sub	sp, sp, #0x40
   8a5e8:	f90017e0 	str	x0, [sp, #40]
   8a5ec:	39009fe1 	strb	w1, [sp, #39]
   8a5f0:	f9000fe2 	str	x2, [sp, #24]
   8a5f4:	f9000be3 	str	x3, [sp, #16]
   8a5f8:	f90007e4 	str	x4, [sp, #8]
   8a5fc:	f90003e5 	str	x5, [sp]
   8a600:	f94017e0 	ldr	x0, [sp, #40]
   8a604:	f9001fe0 	str	x0, [sp, #56]
   8a608:	f94017e0 	ldr	x0, [sp, #40]
   8a60c:	f100001f 	cmp	x0, #0x0
   8a610:	54000061 	b.ne	8a61c <CEcoVFB1_AF252188_get_CursorPosition+0x38>  // b.any
   8a614:	12800000 	mov	w0, #0xffffffff            	// #-1
   8a618:	14000002 	b	8a620 <CEcoVFB1_AF252188_get_CursorPosition+0x3c>
   8a61c:	52800000 	mov	w0, #0x0                   	// #0
   8a620:	910103ff 	add	sp, sp, #0x40
   8a624:	d65f03c0 	ret

000000000008a628 <CEcoVFB1_AF252188_SelectActiveVideoPage>:
   8a628:	d10083ff 	sub	sp, sp, #0x20
   8a62c:	f90007e0 	str	x0, [sp, #8]
   8a630:	39001fe1 	strb	w1, [sp, #7]
   8a634:	f94007e0 	ldr	x0, [sp, #8]
   8a638:	f9000fe0 	str	x0, [sp, #24]
   8a63c:	f94007e0 	ldr	x0, [sp, #8]
   8a640:	f100001f 	cmp	x0, #0x0
   8a644:	54000061 	b.ne	8a650 <CEcoVFB1_AF252188_SelectActiveVideoPage+0x28>  // b.any
   8a648:	12800000 	mov	w0, #0xffffffff            	// #-1
   8a64c:	14000002 	b	8a654 <CEcoVFB1_AF252188_SelectActiveVideoPage+0x2c>
   8a650:	52800000 	mov	w0, #0x0                   	// #0
   8a654:	910083ff 	add	sp, sp, #0x20
   8a658:	d65f03c0 	ret

000000000008a65c <CEcoVFB1_AF252188_ScrollUpWindow>:
   8a65c:	d10083ff 	sub	sp, sp, #0x20
   8a660:	f90007e0 	str	x0, [sp, #8]
   8a664:	39001fe1 	strb	w1, [sp, #7]
   8a668:	39001be2 	strb	w2, [sp, #6]
   8a66c:	390017e3 	strb	w3, [sp, #5]
   8a670:	390013e4 	strb	w4, [sp, #4]
   8a674:	39000fe5 	strb	w5, [sp, #3]
   8a678:	39000be6 	strb	w6, [sp, #2]
   8a67c:	f94007e0 	ldr	x0, [sp, #8]
   8a680:	f9000fe0 	str	x0, [sp, #24]
   8a684:	f94007e0 	ldr	x0, [sp, #8]
   8a688:	f100001f 	cmp	x0, #0x0
   8a68c:	54000061 	b.ne	8a698 <CEcoVFB1_AF252188_ScrollUpWindow+0x3c>  // b.any
   8a690:	12800000 	mov	w0, #0xffffffff            	// #-1
   8a694:	14000002 	b	8a69c <CEcoVFB1_AF252188_ScrollUpWindow+0x40>
   8a698:	52800000 	mov	w0, #0x0                   	// #0
   8a69c:	910083ff 	add	sp, sp, #0x20
   8a6a0:	d65f03c0 	ret

000000000008a6a4 <CEcoVFB1_AF252188_ScrollDownWindow>:
   8a6a4:	d10083ff 	sub	sp, sp, #0x20
   8a6a8:	f90007e0 	str	x0, [sp, #8]
   8a6ac:	39001fe1 	strb	w1, [sp, #7]
   8a6b0:	39001be2 	strb	w2, [sp, #6]
   8a6b4:	390017e3 	strb	w3, [sp, #5]
   8a6b8:	390013e4 	strb	w4, [sp, #4]
   8a6bc:	39000fe5 	strb	w5, [sp, #3]
   8a6c0:	39000be6 	strb	w6, [sp, #2]
   8a6c4:	f94007e0 	ldr	x0, [sp, #8]
   8a6c8:	f9000fe0 	str	x0, [sp, #24]
   8a6cc:	f94007e0 	ldr	x0, [sp, #8]
   8a6d0:	f100001f 	cmp	x0, #0x0
   8a6d4:	54000061 	b.ne	8a6e0 <CEcoVFB1_AF252188_ScrollDownWindow+0x3c>  // b.any
   8a6d8:	12800000 	mov	w0, #0xffffffff            	// #-1
   8a6dc:	14000002 	b	8a6e4 <CEcoVFB1_AF252188_ScrollDownWindow+0x40>
   8a6e0:	52800000 	mov	w0, #0x0                   	// #0
   8a6e4:	910083ff 	add	sp, sp, #0x20
   8a6e8:	d65f03c0 	ret

000000000008a6ec <CEcoVFB1_AF252188_ReadCharacterAtCursorPosition>:
   8a6ec:	d100c3ff 	sub	sp, sp, #0x30
   8a6f0:	f9000fe0 	str	x0, [sp, #24]
   8a6f4:	39005fe1 	strb	w1, [sp, #23]
   8a6f8:	f90007e2 	str	x2, [sp, #8]
   8a6fc:	f90003e3 	str	x3, [sp]
   8a700:	f9400fe0 	ldr	x0, [sp, #24]
   8a704:	f90017e0 	str	x0, [sp, #40]
   8a708:	f9400fe0 	ldr	x0, [sp, #24]
   8a70c:	f100001f 	cmp	x0, #0x0
   8a710:	54000061 	b.ne	8a71c <CEcoVFB1_AF252188_ReadCharacterAtCursorPosition+0x30>  // b.any
   8a714:	12800000 	mov	w0, #0xffffffff            	// #-1
   8a718:	14000002 	b	8a720 <CEcoVFB1_AF252188_ReadCharacterAtCursorPosition+0x34>
   8a71c:	52800000 	mov	w0, #0x0                   	// #0
   8a720:	9100c3ff 	add	sp, sp, #0x30
   8a724:	d65f03c0 	ret

000000000008a728 <CEcoVFB1_AF252188_WriteCharacterAtCursorPosition>:
   8a728:	d10103ff 	sub	sp, sp, #0x40
   8a72c:	f90007e0 	str	x0, [sp, #8]
   8a730:	39001fe1 	strb	w1, [sp, #7]
   8a734:	39001be2 	strb	w2, [sp, #6]
   8a738:	390017e3 	strb	w3, [sp, #5]
   8a73c:	390013e4 	strb	w4, [sp, #4]
   8a740:	f94007e0 	ldr	x0, [sp, #8]
   8a744:	f90013e0 	str	x0, [sp, #32]
   8a748:	f9001fff 	str	xzr, [sp, #56]
   8a74c:	b90037ff 	str	wzr, [sp, #52]
   8a750:	b90033ff 	str	wzr, [sp, #48]
   8a754:	79005fff 	strh	wzr, [sp, #46]
   8a758:	79005bff 	strh	wzr, [sp, #44]
   8a75c:	79405fe0 	ldrh	w0, [sp, #46]
   8a760:	79003fe0 	strh	w0, [sp, #30]
   8a764:	39401be1 	ldrb	w1, [sp, #6]
   8a768:	b0000020 	adrp	x0, 8f000 <_malloc_r+0x818>
   8a76c:	91334000 	add	x0, x0, #0xcd0
   8a770:	93407c21 	sxtw	x1, w1
   8a774:	78617800 	ldrh	w0, [x0, x1, lsl #1]
   8a778:	79003be0 	strh	w0, [sp, #28]
   8a77c:	790037ff 	strh	wzr, [sp, #26]
   8a780:	f94007e0 	ldr	x0, [sp, #8]
   8a784:	f100001f 	cmp	x0, #0x0
   8a788:	54000061 	b.ne	8a794 <CEcoVFB1_AF252188_WriteCharacterAtCursorPosition+0x6c>  // b.any
   8a78c:	12800000 	mov	w0, #0xffffffff            	// #-1
   8a790:	1400004d 	b	8a8c4 <CEcoVFB1_AF252188_WriteCharacterAtCursorPosition+0x19c>
   8a794:	f94013e0 	ldr	x0, [sp, #32]
   8a798:	f9401801 	ldr	x1, [x0, #48]
   8a79c:	f94013e0 	ldr	x0, [sp, #32]
   8a7a0:	b9405000 	ldr	w0, [x0, #80]
   8a7a4:	2a0003e2 	mov	w2, w0
   8a7a8:	f94013e0 	ldr	x0, [sp, #32]
   8a7ac:	b9404400 	ldr	w0, [x0, #68]
   8a7b0:	1b007c40 	mul	w0, w2, w0
   8a7b4:	2a0003e2 	mov	w2, w0
   8a7b8:	f94013e0 	ldr	x0, [sp, #32]
   8a7bc:	b9404c00 	ldr	w0, [x0, #76]
   8a7c0:	93407c00 	sxtw	x0, w0
   8a7c4:	8b000040 	add	x0, x2, x0
   8a7c8:	d37ef400 	lsl	x0, x0, #2
   8a7cc:	8b000020 	add	x0, x1, x0
   8a7d0:	f9001fe0 	str	x0, [sp, #56]
   8a7d4:	b90037ff 	str	wzr, [sp, #52]
   8a7d8:	14000037 	b	8a8b4 <CEcoVFB1_AF252188_WriteCharacterAtCursorPosition+0x18c>
   8a7dc:	394017e0 	ldrb	w0, [sp, #5]
   8a7e0:	531e7400 	lsl	w0, w0, #2
   8a7e4:	2a0003e1 	mov	w1, w0
   8a7e8:	b94037e0 	ldr	w0, [sp, #52]
   8a7ec:	0b000021 	add	w1, w1, w0
   8a7f0:	90000200 	adrp	x0, ca000 <IID_IEcoIPCCMailbox1+0x8>
   8a7f4:	9107c000 	add	x0, x0, #0x1f0
   8a7f8:	2a0103e1 	mov	w1, w1
   8a7fc:	b8617800 	ldr	w0, [x0, x1, lsl #2]
   8a800:	b90033e0 	str	w0, [sp, #48]
   8a804:	79005fff 	strh	wzr, [sp, #46]
   8a808:	14000025 	b	8a89c <CEcoVFB1_AF252188_WriteCharacterAtCursorPosition+0x174>
   8a80c:	794037e0 	ldrh	w0, [sp, #26]
   8a810:	79005be0 	strh	w0, [sp, #44]
   8a814:	79405fe0 	ldrh	w0, [sp, #46]
   8a818:	12000800 	and	w0, w0, #0x7
   8a81c:	79003fe0 	strh	w0, [sp, #30]
   8a820:	b94033e0 	ldr	w0, [sp, #48]
   8a824:	7100001f 	cmp	w0, #0x0
   8a828:	5400006a 	b.ge	8a834 <CEcoVFB1_AF252188_WriteCharacterAtCursorPosition+0x10c>  // b.tcont
   8a82c:	79403be0 	ldrh	w0, [sp, #28]
   8a830:	79005be0 	strh	w0, [sp, #44]
   8a834:	79403fe0 	ldrh	w0, [sp, #30]
   8a838:	8b000000 	add	x0, x0, x0
   8a83c:	aa0003e1 	mov	x1, x0
   8a840:	f9401fe0 	ldr	x0, [sp, #56]
   8a844:	8b010000 	add	x0, x0, x1
   8a848:	79405be1 	ldrh	w1, [sp, #44]
   8a84c:	79000001 	strh	w1, [x0]
   8a850:	d5033f9f 	dsb	sy
   8a854:	d5033fdf 	isb
   8a858:	b94033e0 	ldr	w0, [sp, #48]
   8a85c:	0b000000 	add	w0, w0, w0
   8a860:	b90033e0 	str	w0, [sp, #48]
   8a864:	79403fe0 	ldrh	w0, [sp, #30]
   8a868:	71001c1f 	cmp	w0, #0x7
   8a86c:	54000121 	b.ne	8a890 <CEcoVFB1_AF252188_WriteCharacterAtCursorPosition+0x168>  // b.any
   8a870:	f94013e0 	ldr	x0, [sp, #32]
   8a874:	b9404400 	ldr	w0, [x0, #68]
   8a878:	2a0003e0 	mov	w0, w0
   8a87c:	8b000000 	add	x0, x0, x0
   8a880:	aa0003e1 	mov	x1, x0
   8a884:	f9401fe0 	ldr	x0, [sp, #56]
   8a888:	8b010000 	add	x0, x0, x1
   8a88c:	f9001fe0 	str	x0, [sp, #56]
   8a890:	79405fe0 	ldrh	w0, [sp, #46]
   8a894:	11000400 	add	w0, w0, #0x1
   8a898:	79005fe0 	strh	w0, [sp, #46]
   8a89c:	79405fe0 	ldrh	w0, [sp, #46]
   8a8a0:	71007c1f 	cmp	w0, #0x1f
   8a8a4:	54fffb49 	b.ls	8a80c <CEcoVFB1_AF252188_WriteCharacterAtCursorPosition+0xe4>  // b.plast
   8a8a8:	b94037e0 	ldr	w0, [sp, #52]
   8a8ac:	11000400 	add	w0, w0, #0x1
   8a8b0:	b90037e0 	str	w0, [sp, #52]
   8a8b4:	b94037e0 	ldr	w0, [sp, #52]
   8a8b8:	71000c1f 	cmp	w0, #0x3
   8a8bc:	54fff909 	b.ls	8a7dc <CEcoVFB1_AF252188_WriteCharacterAtCursorPosition+0xb4>  // b.plast
   8a8c0:	52800000 	mov	w0, #0x0                   	// #0
   8a8c4:	910103ff 	add	sp, sp, #0x40
   8a8c8:	d65f03c0 	ret

000000000008a8cc <CEcoVFB1_AF252188_set_ColorPixel>:
   8a8cc:	d100c3ff 	sub	sp, sp, #0x30
   8a8d0:	f90007e0 	str	x0, [sp, #8]
   8a8d4:	39001fe1 	strb	w1, [sp, #7]
   8a8d8:	79000be2 	strh	w2, [sp, #4]
   8a8dc:	790007e3 	strh	w3, [sp, #2]
   8a8e0:	f94007e0 	ldr	x0, [sp, #8]
   8a8e4:	f90017e0 	str	x0, [sp, #40]
   8a8e8:	f90013ff 	str	xzr, [sp, #32]
   8a8ec:	79003fff 	strh	wzr, [sp, #30]
   8a8f0:	79003bff 	strh	wzr, [sp, #28]
   8a8f4:	790037ff 	strh	wzr, [sp, #26]
   8a8f8:	f94007e0 	ldr	x0, [sp, #8]
   8a8fc:	f100001f 	cmp	x0, #0x0
   8a900:	54000061 	b.ne	8a90c <CEcoVFB1_AF252188_set_ColorPixel+0x40>  // b.any
   8a904:	12800000 	mov	w0, #0xffffffff            	// #-1
   8a908:	14000028 	b	8a9a8 <CEcoVFB1_AF252188_set_ColorPixel+0xdc>
   8a90c:	39401fe0 	ldrb	w0, [sp, #7]
   8a910:	12003c00 	and	w0, w0, #0xffff
   8a914:	2a0003e1 	mov	w1, w0
   8a918:	2a0103e0 	mov	w0, w1
   8a91c:	53181c00 	ubfiz	w0, w0, #8, #8
   8a920:	0b010000 	add	w0, w0, w1
   8a924:	79003fe0 	strh	w0, [sp, #30]
   8a928:	794007e0 	ldrh	w0, [sp, #2]
   8a92c:	12000000 	and	w0, w0, #0x1
   8a930:	790037e0 	strh	w0, [sp, #26]
   8a934:	f94017e0 	ldr	x0, [sp, #40]
   8a938:	f9401801 	ldr	x1, [x0, #48]
   8a93c:	794007e2 	ldrh	w2, [sp, #2]
   8a940:	f94017e0 	ldr	x0, [sp, #40]
   8a944:	b9404400 	ldr	w0, [x0, #68]
   8a948:	1b007c40 	mul	w0, w2, w0
   8a94c:	53017c00 	lsr	w0, w0, #1
   8a950:	2a0003e2 	mov	w2, w0
   8a954:	79400be0 	ldrh	w0, [sp, #4]
   8a958:	53017c00 	lsr	w0, w0, #1
   8a95c:	12003c00 	and	w0, w0, #0xffff
   8a960:	92403c00 	and	x0, x0, #0xffff
   8a964:	8b000040 	add	x0, x2, x0
   8a968:	d37ef400 	lsl	x0, x0, #2
   8a96c:	8b000020 	add	x0, x1, x0
   8a970:	f90013e0 	str	x0, [sp, #32]
   8a974:	79400be0 	ldrh	w0, [sp, #4]
   8a978:	12000000 	and	w0, w0, #0x1
   8a97c:	79003be0 	strh	w0, [sp, #28]
   8a980:	79403be0 	ldrh	w0, [sp, #28]
   8a984:	8b000000 	add	x0, x0, x0
   8a988:	aa0003e1 	mov	x1, x0
   8a98c:	f94013e0 	ldr	x0, [sp, #32]
   8a990:	8b010000 	add	x0, x0, x1
   8a994:	79403fe1 	ldrh	w1, [sp, #30]
   8a998:	79000001 	strh	w1, [x0]
   8a99c:	d5033f9f 	dsb	sy
   8a9a0:	d5033fdf 	isb
   8a9a4:	52800000 	mov	w0, #0x0                   	// #0
   8a9a8:	9100c3ff 	add	sp, sp, #0x30
   8a9ac:	d65f03c0 	ret

000000000008a9b0 <CEcoVFB1_AF252188_get_ColorPixel>:
   8a9b0:	d100c3ff 	sub	sp, sp, #0x30
   8a9b4:	f9000fe0 	str	x0, [sp, #24]
   8a9b8:	f9000be1 	str	x1, [sp, #16]
   8a9bc:	79001fe2 	strh	w2, [sp, #14]
   8a9c0:	79001be3 	strh	w3, [sp, #12]
   8a9c4:	f9400fe0 	ldr	x0, [sp, #24]
   8a9c8:	f90017e0 	str	x0, [sp, #40]
   8a9cc:	f9400fe0 	ldr	x0, [sp, #24]
   8a9d0:	f100001f 	cmp	x0, #0x0
   8a9d4:	54000061 	b.ne	8a9e0 <CEcoVFB1_AF252188_get_ColorPixel+0x30>  // b.any
   8a9d8:	12800000 	mov	w0, #0xffffffff            	// #-1
   8a9dc:	14000002 	b	8a9e4 <CEcoVFB1_AF252188_get_ColorPixel+0x34>
   8a9e0:	52800000 	mov	w0, #0x0                   	// #0
   8a9e4:	9100c3ff 	add	sp, sp, #0x30
   8a9e8:	d65f03c0 	ret

000000000008a9ec <CEcoVFB1_AF252188_TeletypeOutput>:
   8a9ec:	d10083ff 	sub	sp, sp, #0x20
   8a9f0:	f90007e0 	str	x0, [sp, #8]
   8a9f4:	39001fe1 	strb	w1, [sp, #7]
   8a9f8:	f94007e0 	ldr	x0, [sp, #8]
   8a9fc:	f9000fe0 	str	x0, [sp, #24]
   8aa00:	f94007e0 	ldr	x0, [sp, #8]
   8aa04:	f100001f 	cmp	x0, #0x0
   8aa08:	54000061 	b.ne	8aa14 <CEcoVFB1_AF252188_TeletypeOutput+0x28>  // b.any
   8aa0c:	12800000 	mov	w0, #0xffffffff            	// #-1
   8aa10:	14000002 	b	8aa18 <CEcoVFB1_AF252188_TeletypeOutput+0x2c>
   8aa14:	52800000 	mov	w0, #0x0                   	// #0
   8aa18:	910083ff 	add	sp, sp, #0x20
   8aa1c:	d65f03c0 	ret

000000000008aa20 <CEcoVFB1_AF252188_WriteString>:
   8aa20:	a9bc7bfd 	stp	x29, x30, [sp, #-64]!
   8aa24:	910003fd 	mov	x29, sp
   8aa28:	f90017a0 	str	x0, [x29, #40]
   8aa2c:	39009fa1 	strb	w1, [x29, #39]
   8aa30:	39009ba2 	strb	w2, [x29, #38]
   8aa34:	390097a3 	strb	w3, [x29, #37]
   8aa38:	390093a4 	strb	w4, [x29, #36]
   8aa3c:	39008fa5 	strb	w5, [x29, #35]
   8aa40:	f9000fa6 	str	x6, [x29, #24]
   8aa44:	790043a7 	strh	w7, [x29, #32]
   8aa48:	f94017a0 	ldr	x0, [x29, #40]
   8aa4c:	f9001ba0 	str	x0, [x29, #48]
   8aa50:	b9003fbf 	str	wzr, [x29, #60]
   8aa54:	f94017a0 	ldr	x0, [x29, #40]
   8aa58:	f100001f 	cmp	x0, #0x0
   8aa5c:	540000e0 	b.eq	8aa78 <CEcoVFB1_AF252188_WriteString+0x58>  // b.none
   8aa60:	794043a0 	ldrh	w0, [x29, #32]
   8aa64:	7100001f 	cmp	w0, #0x0
   8aa68:	54000080 	b.eq	8aa78 <CEcoVFB1_AF252188_WriteString+0x58>  // b.none
   8aa6c:	f9400fa0 	ldr	x0, [x29, #24]
   8aa70:	f100001f 	cmp	x0, #0x0
   8aa74:	54000061 	b.ne	8aa80 <CEcoVFB1_AF252188_WriteString+0x60>  // b.any
   8aa78:	12800000 	mov	w0, #0xffffffff            	// #-1
   8aa7c:	14000023 	b	8ab08 <CEcoVFB1_AF252188_WriteString+0xe8>
   8aa80:	b9003fbf 	str	wzr, [x29, #60]
   8aa84:	1400001c 	b	8aaf4 <CEcoVFB1_AF252188_WriteString+0xd4>
   8aa88:	394097a0 	ldrb	w0, [x29, #37]
   8aa8c:	531e7401 	lsl	w1, w0, #2
   8aa90:	f9401ba0 	ldr	x0, [x29, #48]
   8aa94:	b9004c01 	str	w1, [x0, #76]
   8aa98:	394093a0 	ldrb	w0, [x29, #36]
   8aa9c:	531d7001 	lsl	w1, w0, #3
   8aaa0:	f9401ba0 	ldr	x0, [x29, #48]
   8aaa4:	b9005001 	str	w1, [x0, #80]
   8aaa8:	f94017a0 	ldr	x0, [x29, #40]
   8aaac:	f9400000 	ldr	x0, [x0]
   8aab0:	f9402c05 	ldr	x5, [x0, #88]
   8aab4:	b9803fa0 	ldrsw	x0, [x29, #60]
   8aab8:	f9400fa1 	ldr	x1, [x29, #24]
   8aabc:	8b000020 	add	x0, x1, x0
   8aac0:	39400000 	ldrb	w0, [x0]
   8aac4:	52800024 	mov	w4, #0x1                   	// #1
   8aac8:	2a0003e3 	mov	w3, w0
   8aacc:	39408fa2 	ldrb	w2, [x29, #35]
   8aad0:	39409ba1 	ldrb	w1, [x29, #38]
   8aad4:	f94017a0 	ldr	x0, [x29, #40]
   8aad8:	d63f00a0 	blr	x5
   8aadc:	394097a0 	ldrb	w0, [x29, #37]
   8aae0:	11000400 	add	w0, w0, #0x1
   8aae4:	390097a0 	strb	w0, [x29, #37]
   8aae8:	b9403fa0 	ldr	w0, [x29, #60]
   8aaec:	11000400 	add	w0, w0, #0x1
   8aaf0:	b9003fa0 	str	w0, [x29, #60]
   8aaf4:	794043a0 	ldrh	w0, [x29, #32]
   8aaf8:	b9403fa1 	ldr	w1, [x29, #60]
   8aafc:	6b00003f 	cmp	w1, w0
   8ab00:	54fffc4b 	b.lt	8aa88 <CEcoVFB1_AF252188_WriteString+0x68>  // b.tstop
   8ab04:	52800000 	mov	w0, #0x0                   	// #0
   8ab08:	a8c47bfd 	ldp	x29, x30, [sp], #64
   8ab0c:	d65f03c0 	ret

000000000008ab10 <CEcoVFB1_AF252188_get_Width>:
   8ab10:	d10083ff 	sub	sp, sp, #0x20
   8ab14:	f90007e0 	str	x0, [sp, #8]
   8ab18:	f94007e0 	ldr	x0, [sp, #8]
   8ab1c:	f9000fe0 	str	x0, [sp, #24]
   8ab20:	f94007e0 	ldr	x0, [sp, #8]
   8ab24:	f100001f 	cmp	x0, #0x0
   8ab28:	54000061 	b.ne	8ab34 <CEcoVFB1_AF252188_get_Width+0x24>  // b.any
   8ab2c:	52800000 	mov	w0, #0x0                   	// #0
   8ab30:	14000003 	b	8ab3c <CEcoVFB1_AF252188_get_Width+0x2c>
   8ab34:	f9400fe0 	ldr	x0, [sp, #24]
   8ab38:	b9403800 	ldr	w0, [x0, #56]
   8ab3c:	910083ff 	add	sp, sp, #0x20
   8ab40:	d65f03c0 	ret

000000000008ab44 <CEcoVFB1_AF252188_get_Height>:
   8ab44:	d10083ff 	sub	sp, sp, #0x20
   8ab48:	f90007e0 	str	x0, [sp, #8]
   8ab4c:	f94007e0 	ldr	x0, [sp, #8]
   8ab50:	f9000fe0 	str	x0, [sp, #24]
   8ab54:	f94007e0 	ldr	x0, [sp, #8]
   8ab58:	f100001f 	cmp	x0, #0x0
   8ab5c:	54000061 	b.ne	8ab68 <CEcoVFB1_AF252188_get_Height+0x24>  // b.any
   8ab60:	52800000 	mov	w0, #0x0                   	// #0
   8ab64:	14000003 	b	8ab70 <CEcoVFB1_AF252188_get_Height+0x2c>
   8ab68:	f9400fe0 	ldr	x0, [sp, #24]
   8ab6c:	b9403c00 	ldr	w0, [x0, #60]
   8ab70:	910083ff 	add	sp, sp, #0x20
   8ab74:	d65f03c0 	ret

000000000008ab78 <CEcoVFB1_AF252188_get_Depth>:
   8ab78:	d10083ff 	sub	sp, sp, #0x20
   8ab7c:	f90007e0 	str	x0, [sp, #8]
   8ab80:	f94007e0 	ldr	x0, [sp, #8]
   8ab84:	f9000fe0 	str	x0, [sp, #24]
   8ab88:	f94007e0 	ldr	x0, [sp, #8]
   8ab8c:	f100001f 	cmp	x0, #0x0
   8ab90:	54000061 	b.ne	8ab9c <CEcoVFB1_AF252188_get_Depth+0x24>  // b.any
   8ab94:	52800000 	mov	w0, #0x0                   	// #0
   8ab98:	14000003 	b	8aba4 <CEcoVFB1_AF252188_get_Depth+0x2c>
   8ab9c:	f9400fe0 	ldr	x0, [sp, #24]
   8aba0:	b9404000 	ldr	w0, [x0, #64]
   8aba4:	910083ff 	add	sp, sp, #0x20
   8aba8:	d65f03c0 	ret

000000000008abac <CEcoVFB1_AF252188_IEcoCGI1_QueryInterface>:
   8abac:	a9bc7bfd 	stp	x29, x30, [sp, #-64]!
   8abb0:	910003fd 	mov	x29, sp
   8abb4:	f90017a0 	str	x0, [x29, #40]
   8abb8:	f90013a1 	str	x1, [x29, #32]
   8abbc:	f9000fa2 	str	x2, [x29, #24]
   8abc0:	f94017a0 	ldr	x0, [x29, #40]
   8abc4:	d1002000 	sub	x0, x0, #0x8
   8abc8:	f9001fa0 	str	x0, [x29, #56]
   8abcc:	12800000 	mov	w0, #0xffffffff            	// #-1
   8abd0:	79006fa0 	strh	w0, [x29, #54]
   8abd4:	f94017a0 	ldr	x0, [x29, #40]
   8abd8:	f100001f 	cmp	x0, #0x0
   8abdc:	54000080 	b.eq	8abec <CEcoVFB1_AF252188_IEcoCGI1_QueryInterface+0x40>  // b.none
   8abe0:	f9400fa0 	ldr	x0, [x29, #24]
   8abe4:	f100001f 	cmp	x0, #0x0
   8abe8:	54000061 	b.ne	8abf4 <CEcoVFB1_AF252188_IEcoCGI1_QueryInterface+0x48>  // b.any
   8abec:	79c06fa0 	ldrsh	w0, [x29, #54]
   8abf0:	140001cf 	b	8b32c <CEcoVFB1_AF252188_IEcoCGI1_QueryInterface+0x780>
   8abf4:	f94013a0 	ldr	x0, [x29, #32]
   8abf8:	39400001 	ldrb	w1, [x0]
   8abfc:	90000200 	adrp	x0, ca000 <IID_IEcoIPCCMailbox1+0x8>
   8ac00:	91028000 	add	x0, x0, #0xa0
   8ac04:	39400000 	ldrb	w0, [x0]
   8ac08:	6b00003f 	cmp	w1, w0
   8ac0c:	54001241 	b.ne	8ae54 <CEcoVFB1_AF252188_IEcoCGI1_QueryInterface+0x2a8>  // b.any
   8ac10:	f94013a0 	ldr	x0, [x29, #32]
   8ac14:	91000400 	add	x0, x0, #0x1
   8ac18:	39400001 	ldrb	w1, [x0]
   8ac1c:	90000200 	adrp	x0, ca000 <IID_IEcoIPCCMailbox1+0x8>
   8ac20:	91028400 	add	x0, x0, #0xa1
   8ac24:	39400000 	ldrb	w0, [x0]
   8ac28:	6b00003f 	cmp	w1, w0
   8ac2c:	54001141 	b.ne	8ae54 <CEcoVFB1_AF252188_IEcoCGI1_QueryInterface+0x2a8>  // b.any
   8ac30:	f94013a0 	ldr	x0, [x29, #32]
   8ac34:	91000800 	add	x0, x0, #0x2
   8ac38:	39400001 	ldrb	w1, [x0]
   8ac3c:	90000200 	adrp	x0, ca000 <IID_IEcoIPCCMailbox1+0x8>
   8ac40:	91028800 	add	x0, x0, #0xa2
   8ac44:	39400000 	ldrb	w0, [x0]
   8ac48:	6b00003f 	cmp	w1, w0
   8ac4c:	54001041 	b.ne	8ae54 <CEcoVFB1_AF252188_IEcoCGI1_QueryInterface+0x2a8>  // b.any
   8ac50:	f94013a0 	ldr	x0, [x29, #32]
   8ac54:	91000c00 	add	x0, x0, #0x3
   8ac58:	39400001 	ldrb	w1, [x0]
   8ac5c:	90000200 	adrp	x0, ca000 <IID_IEcoIPCCMailbox1+0x8>
   8ac60:	91028c00 	add	x0, x0, #0xa3
   8ac64:	39400000 	ldrb	w0, [x0]
   8ac68:	6b00003f 	cmp	w1, w0
   8ac6c:	54000f41 	b.ne	8ae54 <CEcoVFB1_AF252188_IEcoCGI1_QueryInterface+0x2a8>  // b.any
   8ac70:	f94013a0 	ldr	x0, [x29, #32]
   8ac74:	91001000 	add	x0, x0, #0x4
   8ac78:	39400001 	ldrb	w1, [x0]
   8ac7c:	90000200 	adrp	x0, ca000 <IID_IEcoIPCCMailbox1+0x8>
   8ac80:	91029000 	add	x0, x0, #0xa4
   8ac84:	39400000 	ldrb	w0, [x0]
   8ac88:	6b00003f 	cmp	w1, w0
   8ac8c:	54000e41 	b.ne	8ae54 <CEcoVFB1_AF252188_IEcoCGI1_QueryInterface+0x2a8>  // b.any
   8ac90:	f94013a0 	ldr	x0, [x29, #32]
   8ac94:	91001400 	add	x0, x0, #0x5
   8ac98:	39400001 	ldrb	w1, [x0]
   8ac9c:	90000200 	adrp	x0, ca000 <IID_IEcoIPCCMailbox1+0x8>
   8aca0:	91029400 	add	x0, x0, #0xa5
   8aca4:	39400000 	ldrb	w0, [x0]
   8aca8:	6b00003f 	cmp	w1, w0
   8acac:	54000d41 	b.ne	8ae54 <CEcoVFB1_AF252188_IEcoCGI1_QueryInterface+0x2a8>  // b.any
   8acb0:	f94013a0 	ldr	x0, [x29, #32]
   8acb4:	91001800 	add	x0, x0, #0x6
   8acb8:	39400001 	ldrb	w1, [x0]
   8acbc:	90000200 	adrp	x0, ca000 <IID_IEcoIPCCMailbox1+0x8>
   8acc0:	91029800 	add	x0, x0, #0xa6
   8acc4:	39400000 	ldrb	w0, [x0]
   8acc8:	6b00003f 	cmp	w1, w0
   8accc:	54000c41 	b.ne	8ae54 <CEcoVFB1_AF252188_IEcoCGI1_QueryInterface+0x2a8>  // b.any
   8acd0:	f94013a0 	ldr	x0, [x29, #32]
   8acd4:	91001c00 	add	x0, x0, #0x7
   8acd8:	39400001 	ldrb	w1, [x0]
   8acdc:	90000200 	adrp	x0, ca000 <IID_IEcoIPCCMailbox1+0x8>
   8ace0:	91029c00 	add	x0, x0, #0xa7
   8ace4:	39400000 	ldrb	w0, [x0]
   8ace8:	6b00003f 	cmp	w1, w0
   8acec:	54000b41 	b.ne	8ae54 <CEcoVFB1_AF252188_IEcoCGI1_QueryInterface+0x2a8>  // b.any
   8acf0:	f94013a0 	ldr	x0, [x29, #32]
   8acf4:	91002000 	add	x0, x0, #0x8
   8acf8:	39400001 	ldrb	w1, [x0]
   8acfc:	90000200 	adrp	x0, ca000 <IID_IEcoIPCCMailbox1+0x8>
   8ad00:	9102a000 	add	x0, x0, #0xa8
   8ad04:	39400000 	ldrb	w0, [x0]
   8ad08:	6b00003f 	cmp	w1, w0
   8ad0c:	54000a41 	b.ne	8ae54 <CEcoVFB1_AF252188_IEcoCGI1_QueryInterface+0x2a8>  // b.any
   8ad10:	f94013a0 	ldr	x0, [x29, #32]
   8ad14:	91002400 	add	x0, x0, #0x9
   8ad18:	39400001 	ldrb	w1, [x0]
   8ad1c:	90000200 	adrp	x0, ca000 <IID_IEcoIPCCMailbox1+0x8>
   8ad20:	9102a400 	add	x0, x0, #0xa9
   8ad24:	39400000 	ldrb	w0, [x0]
   8ad28:	6b00003f 	cmp	w1, w0
   8ad2c:	54000941 	b.ne	8ae54 <CEcoVFB1_AF252188_IEcoCGI1_QueryInterface+0x2a8>  // b.any
   8ad30:	f94013a0 	ldr	x0, [x29, #32]
   8ad34:	91002800 	add	x0, x0, #0xa
   8ad38:	39400001 	ldrb	w1, [x0]
   8ad3c:	90000200 	adrp	x0, ca000 <IID_IEcoIPCCMailbox1+0x8>
   8ad40:	9102a800 	add	x0, x0, #0xaa
   8ad44:	39400000 	ldrb	w0, [x0]
   8ad48:	6b00003f 	cmp	w1, w0
   8ad4c:	54000841 	b.ne	8ae54 <CEcoVFB1_AF252188_IEcoCGI1_QueryInterface+0x2a8>  // b.any
   8ad50:	f94013a0 	ldr	x0, [x29, #32]
   8ad54:	91002c00 	add	x0, x0, #0xb
   8ad58:	39400001 	ldrb	w1, [x0]
   8ad5c:	90000200 	adrp	x0, ca000 <IID_IEcoIPCCMailbox1+0x8>
   8ad60:	9102ac00 	add	x0, x0, #0xab
   8ad64:	39400000 	ldrb	w0, [x0]
   8ad68:	6b00003f 	cmp	w1, w0
   8ad6c:	54000741 	b.ne	8ae54 <CEcoVFB1_AF252188_IEcoCGI1_QueryInterface+0x2a8>  // b.any
   8ad70:	f94013a0 	ldr	x0, [x29, #32]
   8ad74:	91003000 	add	x0, x0, #0xc
   8ad78:	39400001 	ldrb	w1, [x0]
   8ad7c:	90000200 	adrp	x0, ca000 <IID_IEcoIPCCMailbox1+0x8>
   8ad80:	9102b000 	add	x0, x0, #0xac
   8ad84:	39400000 	ldrb	w0, [x0]
   8ad88:	6b00003f 	cmp	w1, w0
   8ad8c:	54000641 	b.ne	8ae54 <CEcoVFB1_AF252188_IEcoCGI1_QueryInterface+0x2a8>  // b.any
   8ad90:	f94013a0 	ldr	x0, [x29, #32]
   8ad94:	91003400 	add	x0, x0, #0xd
   8ad98:	39400001 	ldrb	w1, [x0]
   8ad9c:	90000200 	adrp	x0, ca000 <IID_IEcoIPCCMailbox1+0x8>
   8ada0:	9102b400 	add	x0, x0, #0xad
   8ada4:	39400000 	ldrb	w0, [x0]
   8ada8:	6b00003f 	cmp	w1, w0
   8adac:	54000541 	b.ne	8ae54 <CEcoVFB1_AF252188_IEcoCGI1_QueryInterface+0x2a8>  // b.any
   8adb0:	f94013a0 	ldr	x0, [x29, #32]
   8adb4:	91003800 	add	x0, x0, #0xe
   8adb8:	39400001 	ldrb	w1, [x0]
   8adbc:	90000200 	adrp	x0, ca000 <IID_IEcoIPCCMailbox1+0x8>
   8adc0:	9102b800 	add	x0, x0, #0xae
   8adc4:	39400000 	ldrb	w0, [x0]
   8adc8:	6b00003f 	cmp	w1, w0
   8adcc:	54000441 	b.ne	8ae54 <CEcoVFB1_AF252188_IEcoCGI1_QueryInterface+0x2a8>  // b.any
   8add0:	f94013a0 	ldr	x0, [x29, #32]
   8add4:	91003c00 	add	x0, x0, #0xf
   8add8:	39400001 	ldrb	w1, [x0]
   8addc:	90000200 	adrp	x0, ca000 <IID_IEcoIPCCMailbox1+0x8>
   8ade0:	9102bc00 	add	x0, x0, #0xaf
   8ade4:	39400000 	ldrb	w0, [x0]
   8ade8:	6b00003f 	cmp	w1, w0
   8adec:	54000341 	b.ne	8ae54 <CEcoVFB1_AF252188_IEcoCGI1_QueryInterface+0x2a8>  // b.any
   8adf0:	f94013a0 	ldr	x0, [x29, #32]
   8adf4:	91004000 	add	x0, x0, #0x10
   8adf8:	39400001 	ldrb	w1, [x0]
   8adfc:	90000200 	adrp	x0, ca000 <IID_IEcoIPCCMailbox1+0x8>
   8ae00:	9102c000 	add	x0, x0, #0xb0
   8ae04:	39400000 	ldrb	w0, [x0]
   8ae08:	6b00003f 	cmp	w1, w0
   8ae0c:	54000241 	b.ne	8ae54 <CEcoVFB1_AF252188_IEcoCGI1_QueryInterface+0x2a8>  // b.any
   8ae10:	f94013a0 	ldr	x0, [x29, #32]
   8ae14:	91004400 	add	x0, x0, #0x11
   8ae18:	39400001 	ldrb	w1, [x0]
   8ae1c:	90000200 	adrp	x0, ca000 <IID_IEcoIPCCMailbox1+0x8>
   8ae20:	9102c400 	add	x0, x0, #0xb1
   8ae24:	39400000 	ldrb	w0, [x0]
   8ae28:	6b00003f 	cmp	w1, w0
   8ae2c:	54000141 	b.ne	8ae54 <CEcoVFB1_AF252188_IEcoCGI1_QueryInterface+0x2a8>  // b.any
   8ae30:	f9401fa1 	ldr	x1, [x29, #56]
   8ae34:	f9400fa0 	ldr	x0, [x29, #24]
   8ae38:	f9000001 	str	x1, [x0]
   8ae3c:	f9401fa0 	ldr	x0, [x29, #56]
   8ae40:	f9400000 	ldr	x0, [x0]
   8ae44:	f9400401 	ldr	x1, [x0, #8]
   8ae48:	f9401fa0 	ldr	x0, [x29, #56]
   8ae4c:	d63f0020 	blr	x1
   8ae50:	14000136 	b	8b328 <CEcoVFB1_AF252188_IEcoCGI1_QueryInterface+0x77c>
   8ae54:	f94013a0 	ldr	x0, [x29, #32]
   8ae58:	39400001 	ldrb	w1, [x0]
   8ae5c:	90000200 	adrp	x0, ca000 <IID_IEcoIPCCMailbox1+0x8>
   8ae60:	91040000 	add	x0, x0, #0x100
   8ae64:	39400000 	ldrb	w0, [x0]
   8ae68:	6b00003f 	cmp	w1, w0
   8ae6c:	54001261 	b.ne	8b0b8 <CEcoVFB1_AF252188_IEcoCGI1_QueryInterface+0x50c>  // b.any
   8ae70:	f94013a0 	ldr	x0, [x29, #32]
   8ae74:	91000400 	add	x0, x0, #0x1
   8ae78:	39400001 	ldrb	w1, [x0]
   8ae7c:	90000200 	adrp	x0, ca000 <IID_IEcoIPCCMailbox1+0x8>
   8ae80:	91040400 	add	x0, x0, #0x101
   8ae84:	39400000 	ldrb	w0, [x0]
   8ae88:	6b00003f 	cmp	w1, w0
   8ae8c:	54001161 	b.ne	8b0b8 <CEcoVFB1_AF252188_IEcoCGI1_QueryInterface+0x50c>  // b.any
   8ae90:	f94013a0 	ldr	x0, [x29, #32]
   8ae94:	91000800 	add	x0, x0, #0x2
   8ae98:	39400001 	ldrb	w1, [x0]
   8ae9c:	90000200 	adrp	x0, ca000 <IID_IEcoIPCCMailbox1+0x8>
   8aea0:	91040800 	add	x0, x0, #0x102
   8aea4:	39400000 	ldrb	w0, [x0]
   8aea8:	6b00003f 	cmp	w1, w0
   8aeac:	54001061 	b.ne	8b0b8 <CEcoVFB1_AF252188_IEcoCGI1_QueryInterface+0x50c>  // b.any
   8aeb0:	f94013a0 	ldr	x0, [x29, #32]
   8aeb4:	91000c00 	add	x0, x0, #0x3
   8aeb8:	39400001 	ldrb	w1, [x0]
   8aebc:	90000200 	adrp	x0, ca000 <IID_IEcoIPCCMailbox1+0x8>
   8aec0:	91040c00 	add	x0, x0, #0x103
   8aec4:	39400000 	ldrb	w0, [x0]
   8aec8:	6b00003f 	cmp	w1, w0
   8aecc:	54000f61 	b.ne	8b0b8 <CEcoVFB1_AF252188_IEcoCGI1_QueryInterface+0x50c>  // b.any
   8aed0:	f94013a0 	ldr	x0, [x29, #32]
   8aed4:	91001000 	add	x0, x0, #0x4
   8aed8:	39400001 	ldrb	w1, [x0]
   8aedc:	90000200 	adrp	x0, ca000 <IID_IEcoIPCCMailbox1+0x8>
   8aee0:	91041000 	add	x0, x0, #0x104
   8aee4:	39400000 	ldrb	w0, [x0]
   8aee8:	6b00003f 	cmp	w1, w0
   8aeec:	54000e61 	b.ne	8b0b8 <CEcoVFB1_AF252188_IEcoCGI1_QueryInterface+0x50c>  // b.any
   8aef0:	f94013a0 	ldr	x0, [x29, #32]
   8aef4:	91001400 	add	x0, x0, #0x5
   8aef8:	39400001 	ldrb	w1, [x0]
   8aefc:	90000200 	adrp	x0, ca000 <IID_IEcoIPCCMailbox1+0x8>
   8af00:	91041400 	add	x0, x0, #0x105
   8af04:	39400000 	ldrb	w0, [x0]
   8af08:	6b00003f 	cmp	w1, w0
   8af0c:	54000d61 	b.ne	8b0b8 <CEcoVFB1_AF252188_IEcoCGI1_QueryInterface+0x50c>  // b.any
   8af10:	f94013a0 	ldr	x0, [x29, #32]
   8af14:	91001800 	add	x0, x0, #0x6
   8af18:	39400001 	ldrb	w1, [x0]
   8af1c:	90000200 	adrp	x0, ca000 <IID_IEcoIPCCMailbox1+0x8>
   8af20:	91041800 	add	x0, x0, #0x106
   8af24:	39400000 	ldrb	w0, [x0]
   8af28:	6b00003f 	cmp	w1, w0
   8af2c:	54000c61 	b.ne	8b0b8 <CEcoVFB1_AF252188_IEcoCGI1_QueryInterface+0x50c>  // b.any
   8af30:	f94013a0 	ldr	x0, [x29, #32]
   8af34:	91001c00 	add	x0, x0, #0x7
   8af38:	39400001 	ldrb	w1, [x0]
   8af3c:	90000200 	adrp	x0, ca000 <IID_IEcoIPCCMailbox1+0x8>
   8af40:	91041c00 	add	x0, x0, #0x107
   8af44:	39400000 	ldrb	w0, [x0]
   8af48:	6b00003f 	cmp	w1, w0
   8af4c:	54000b61 	b.ne	8b0b8 <CEcoVFB1_AF252188_IEcoCGI1_QueryInterface+0x50c>  // b.any
   8af50:	f94013a0 	ldr	x0, [x29, #32]
   8af54:	91002000 	add	x0, x0, #0x8
   8af58:	39400001 	ldrb	w1, [x0]
   8af5c:	90000200 	adrp	x0, ca000 <IID_IEcoIPCCMailbox1+0x8>
   8af60:	91042000 	add	x0, x0, #0x108
   8af64:	39400000 	ldrb	w0, [x0]
   8af68:	6b00003f 	cmp	w1, w0
   8af6c:	54000a61 	b.ne	8b0b8 <CEcoVFB1_AF252188_IEcoCGI1_QueryInterface+0x50c>  // b.any
   8af70:	f94013a0 	ldr	x0, [x29, #32]
   8af74:	91002400 	add	x0, x0, #0x9
   8af78:	39400001 	ldrb	w1, [x0]
   8af7c:	90000200 	adrp	x0, ca000 <IID_IEcoIPCCMailbox1+0x8>
   8af80:	91042400 	add	x0, x0, #0x109
   8af84:	39400000 	ldrb	w0, [x0]
   8af88:	6b00003f 	cmp	w1, w0
   8af8c:	54000961 	b.ne	8b0b8 <CEcoVFB1_AF252188_IEcoCGI1_QueryInterface+0x50c>  // b.any
   8af90:	f94013a0 	ldr	x0, [x29, #32]
   8af94:	91002800 	add	x0, x0, #0xa
   8af98:	39400001 	ldrb	w1, [x0]
   8af9c:	90000200 	adrp	x0, ca000 <IID_IEcoIPCCMailbox1+0x8>
   8afa0:	91042800 	add	x0, x0, #0x10a
   8afa4:	39400000 	ldrb	w0, [x0]
   8afa8:	6b00003f 	cmp	w1, w0
   8afac:	54000861 	b.ne	8b0b8 <CEcoVFB1_AF252188_IEcoCGI1_QueryInterface+0x50c>  // b.any
   8afb0:	f94013a0 	ldr	x0, [x29, #32]
   8afb4:	91002c00 	add	x0, x0, #0xb
   8afb8:	39400001 	ldrb	w1, [x0]
   8afbc:	90000200 	adrp	x0, ca000 <IID_IEcoIPCCMailbox1+0x8>
   8afc0:	91042c00 	add	x0, x0, #0x10b
   8afc4:	39400000 	ldrb	w0, [x0]
   8afc8:	6b00003f 	cmp	w1, w0
   8afcc:	54000761 	b.ne	8b0b8 <CEcoVFB1_AF252188_IEcoCGI1_QueryInterface+0x50c>  // b.any
   8afd0:	f94013a0 	ldr	x0, [x29, #32]
   8afd4:	91003000 	add	x0, x0, #0xc
   8afd8:	39400001 	ldrb	w1, [x0]
   8afdc:	90000200 	adrp	x0, ca000 <IID_IEcoIPCCMailbox1+0x8>
   8afe0:	91043000 	add	x0, x0, #0x10c
   8afe4:	39400000 	ldrb	w0, [x0]
   8afe8:	6b00003f 	cmp	w1, w0
   8afec:	54000661 	b.ne	8b0b8 <CEcoVFB1_AF252188_IEcoCGI1_QueryInterface+0x50c>  // b.any
   8aff0:	f94013a0 	ldr	x0, [x29, #32]
   8aff4:	91003400 	add	x0, x0, #0xd
   8aff8:	39400001 	ldrb	w1, [x0]
   8affc:	90000200 	adrp	x0, ca000 <IID_IEcoIPCCMailbox1+0x8>
   8b000:	91043400 	add	x0, x0, #0x10d
   8b004:	39400000 	ldrb	w0, [x0]
   8b008:	6b00003f 	cmp	w1, w0
   8b00c:	54000561 	b.ne	8b0b8 <CEcoVFB1_AF252188_IEcoCGI1_QueryInterface+0x50c>  // b.any
   8b010:	f94013a0 	ldr	x0, [x29, #32]
   8b014:	91003800 	add	x0, x0, #0xe
   8b018:	39400001 	ldrb	w1, [x0]
   8b01c:	f00001e0 	adrp	x0, ca000 <IID_IEcoIPCCMailbox1+0x8>
   8b020:	91043800 	add	x0, x0, #0x10e
   8b024:	39400000 	ldrb	w0, [x0]
   8b028:	6b00003f 	cmp	w1, w0
   8b02c:	54000461 	b.ne	8b0b8 <CEcoVFB1_AF252188_IEcoCGI1_QueryInterface+0x50c>  // b.any
   8b030:	f94013a0 	ldr	x0, [x29, #32]
   8b034:	91003c00 	add	x0, x0, #0xf
   8b038:	39400001 	ldrb	w1, [x0]
   8b03c:	f00001e0 	adrp	x0, ca000 <IID_IEcoIPCCMailbox1+0x8>
   8b040:	91043c00 	add	x0, x0, #0x10f
   8b044:	39400000 	ldrb	w0, [x0]
   8b048:	6b00003f 	cmp	w1, w0
   8b04c:	54000361 	b.ne	8b0b8 <CEcoVFB1_AF252188_IEcoCGI1_QueryInterface+0x50c>  // b.any
   8b050:	f94013a0 	ldr	x0, [x29, #32]
   8b054:	91004000 	add	x0, x0, #0x10
   8b058:	39400001 	ldrb	w1, [x0]
   8b05c:	f00001e0 	adrp	x0, ca000 <IID_IEcoIPCCMailbox1+0x8>
   8b060:	91044000 	add	x0, x0, #0x110
   8b064:	39400000 	ldrb	w0, [x0]
   8b068:	6b00003f 	cmp	w1, w0
   8b06c:	54000261 	b.ne	8b0b8 <CEcoVFB1_AF252188_IEcoCGI1_QueryInterface+0x50c>  // b.any
   8b070:	f94013a0 	ldr	x0, [x29, #32]
   8b074:	91004400 	add	x0, x0, #0x11
   8b078:	39400001 	ldrb	w1, [x0]
   8b07c:	f00001e0 	adrp	x0, ca000 <IID_IEcoIPCCMailbox1+0x8>
   8b080:	91044400 	add	x0, x0, #0x111
   8b084:	39400000 	ldrb	w0, [x0]
   8b088:	6b00003f 	cmp	w1, w0
   8b08c:	54000161 	b.ne	8b0b8 <CEcoVFB1_AF252188_IEcoCGI1_QueryInterface+0x50c>  // b.any
   8b090:	f9401fa0 	ldr	x0, [x29, #56]
   8b094:	91002001 	add	x1, x0, #0x8
   8b098:	f9400fa0 	ldr	x0, [x29, #24]
   8b09c:	f9000001 	str	x1, [x0]
   8b0a0:	f9401fa0 	ldr	x0, [x29, #56]
   8b0a4:	f9400000 	ldr	x0, [x0]
   8b0a8:	f9400401 	ldr	x1, [x0, #8]
   8b0ac:	f9401fa0 	ldr	x0, [x29, #56]
   8b0b0:	d63f0020 	blr	x1
   8b0b4:	1400009d 	b	8b328 <CEcoVFB1_AF252188_IEcoCGI1_QueryInterface+0x77c>
   8b0b8:	f94013a0 	ldr	x0, [x29, #32]
   8b0bc:	39400001 	ldrb	w1, [x0]
   8b0c0:	f00001e0 	adrp	x0, ca000 <IID_IEcoIPCCMailbox1+0x8>
   8b0c4:	9100a000 	add	x0, x0, #0x28
   8b0c8:	39400000 	ldrb	w0, [x0]
   8b0cc:	6b00003f 	cmp	w1, w0
   8b0d0:	54001241 	b.ne	8b318 <CEcoVFB1_AF252188_IEcoCGI1_QueryInterface+0x76c>  // b.any
   8b0d4:	f94013a0 	ldr	x0, [x29, #32]
   8b0d8:	91000400 	add	x0, x0, #0x1
   8b0dc:	39400001 	ldrb	w1, [x0]
   8b0e0:	f00001e0 	adrp	x0, ca000 <IID_IEcoIPCCMailbox1+0x8>
   8b0e4:	9100a400 	add	x0, x0, #0x29
   8b0e8:	39400000 	ldrb	w0, [x0]
   8b0ec:	6b00003f 	cmp	w1, w0
   8b0f0:	54001141 	b.ne	8b318 <CEcoVFB1_AF252188_IEcoCGI1_QueryInterface+0x76c>  // b.any
   8b0f4:	f94013a0 	ldr	x0, [x29, #32]
   8b0f8:	91000800 	add	x0, x0, #0x2
   8b0fc:	39400001 	ldrb	w1, [x0]
   8b100:	f00001e0 	adrp	x0, ca000 <IID_IEcoIPCCMailbox1+0x8>
   8b104:	9100a800 	add	x0, x0, #0x2a
   8b108:	39400000 	ldrb	w0, [x0]
   8b10c:	6b00003f 	cmp	w1, w0
   8b110:	54001041 	b.ne	8b318 <CEcoVFB1_AF252188_IEcoCGI1_QueryInterface+0x76c>  // b.any
   8b114:	f94013a0 	ldr	x0, [x29, #32]
   8b118:	91000c00 	add	x0, x0, #0x3
   8b11c:	39400001 	ldrb	w1, [x0]
   8b120:	f00001e0 	adrp	x0, ca000 <IID_IEcoIPCCMailbox1+0x8>
   8b124:	9100ac00 	add	x0, x0, #0x2b
   8b128:	39400000 	ldrb	w0, [x0]
   8b12c:	6b00003f 	cmp	w1, w0
   8b130:	54000f41 	b.ne	8b318 <CEcoVFB1_AF252188_IEcoCGI1_QueryInterface+0x76c>  // b.any
   8b134:	f94013a0 	ldr	x0, [x29, #32]
   8b138:	91001000 	add	x0, x0, #0x4
   8b13c:	39400001 	ldrb	w1, [x0]
   8b140:	f00001e0 	adrp	x0, ca000 <IID_IEcoIPCCMailbox1+0x8>
   8b144:	9100b000 	add	x0, x0, #0x2c
   8b148:	39400000 	ldrb	w0, [x0]
   8b14c:	6b00003f 	cmp	w1, w0
   8b150:	54000e41 	b.ne	8b318 <CEcoVFB1_AF252188_IEcoCGI1_QueryInterface+0x76c>  // b.any
   8b154:	f94013a0 	ldr	x0, [x29, #32]
   8b158:	91001400 	add	x0, x0, #0x5
   8b15c:	39400001 	ldrb	w1, [x0]
   8b160:	f00001e0 	adrp	x0, ca000 <IID_IEcoIPCCMailbox1+0x8>
   8b164:	9100b400 	add	x0, x0, #0x2d
   8b168:	39400000 	ldrb	w0, [x0]
   8b16c:	6b00003f 	cmp	w1, w0
   8b170:	54000d41 	b.ne	8b318 <CEcoVFB1_AF252188_IEcoCGI1_QueryInterface+0x76c>  // b.any
   8b174:	f94013a0 	ldr	x0, [x29, #32]
   8b178:	91001800 	add	x0, x0, #0x6
   8b17c:	39400001 	ldrb	w1, [x0]
   8b180:	f00001e0 	adrp	x0, ca000 <IID_IEcoIPCCMailbox1+0x8>
   8b184:	9100b800 	add	x0, x0, #0x2e
   8b188:	39400000 	ldrb	w0, [x0]
   8b18c:	6b00003f 	cmp	w1, w0
   8b190:	54000c41 	b.ne	8b318 <CEcoVFB1_AF252188_IEcoCGI1_QueryInterface+0x76c>  // b.any
   8b194:	f94013a0 	ldr	x0, [x29, #32]
   8b198:	91001c00 	add	x0, x0, #0x7
   8b19c:	39400001 	ldrb	w1, [x0]
   8b1a0:	f00001e0 	adrp	x0, ca000 <IID_IEcoIPCCMailbox1+0x8>
   8b1a4:	9100bc00 	add	x0, x0, #0x2f
   8b1a8:	39400000 	ldrb	w0, [x0]
   8b1ac:	6b00003f 	cmp	w1, w0
   8b1b0:	54000b41 	b.ne	8b318 <CEcoVFB1_AF252188_IEcoCGI1_QueryInterface+0x76c>  // b.any
   8b1b4:	f94013a0 	ldr	x0, [x29, #32]
   8b1b8:	91002000 	add	x0, x0, #0x8
   8b1bc:	39400001 	ldrb	w1, [x0]
   8b1c0:	f00001e0 	adrp	x0, ca000 <IID_IEcoIPCCMailbox1+0x8>
   8b1c4:	9100c000 	add	x0, x0, #0x30
   8b1c8:	39400000 	ldrb	w0, [x0]
   8b1cc:	6b00003f 	cmp	w1, w0
   8b1d0:	54000a41 	b.ne	8b318 <CEcoVFB1_AF252188_IEcoCGI1_QueryInterface+0x76c>  // b.any
   8b1d4:	f94013a0 	ldr	x0, [x29, #32]
   8b1d8:	91002400 	add	x0, x0, #0x9
   8b1dc:	39400001 	ldrb	w1, [x0]
   8b1e0:	f00001e0 	adrp	x0, ca000 <IID_IEcoIPCCMailbox1+0x8>
   8b1e4:	9100c400 	add	x0, x0, #0x31
   8b1e8:	39400000 	ldrb	w0, [x0]
   8b1ec:	6b00003f 	cmp	w1, w0
   8b1f0:	54000941 	b.ne	8b318 <CEcoVFB1_AF252188_IEcoCGI1_QueryInterface+0x76c>  // b.any
   8b1f4:	f94013a0 	ldr	x0, [x29, #32]
   8b1f8:	91002800 	add	x0, x0, #0xa
   8b1fc:	39400001 	ldrb	w1, [x0]
   8b200:	f00001e0 	adrp	x0, ca000 <IID_IEcoIPCCMailbox1+0x8>
   8b204:	9100c800 	add	x0, x0, #0x32
   8b208:	39400000 	ldrb	w0, [x0]
   8b20c:	6b00003f 	cmp	w1, w0
   8b210:	54000841 	b.ne	8b318 <CEcoVFB1_AF252188_IEcoCGI1_QueryInterface+0x76c>  // b.any
   8b214:	f94013a0 	ldr	x0, [x29, #32]
   8b218:	91002c00 	add	x0, x0, #0xb
   8b21c:	39400001 	ldrb	w1, [x0]
   8b220:	f00001e0 	adrp	x0, ca000 <IID_IEcoIPCCMailbox1+0x8>
   8b224:	9100cc00 	add	x0, x0, #0x33
   8b228:	39400000 	ldrb	w0, [x0]
   8b22c:	6b00003f 	cmp	w1, w0
   8b230:	54000741 	b.ne	8b318 <CEcoVFB1_AF252188_IEcoCGI1_QueryInterface+0x76c>  // b.any
   8b234:	f94013a0 	ldr	x0, [x29, #32]
   8b238:	91003000 	add	x0, x0, #0xc
   8b23c:	39400001 	ldrb	w1, [x0]
   8b240:	f00001e0 	adrp	x0, ca000 <IID_IEcoIPCCMailbox1+0x8>
   8b244:	9100d000 	add	x0, x0, #0x34
   8b248:	39400000 	ldrb	w0, [x0]
   8b24c:	6b00003f 	cmp	w1, w0
   8b250:	54000641 	b.ne	8b318 <CEcoVFB1_AF252188_IEcoCGI1_QueryInterface+0x76c>  // b.any
   8b254:	f94013a0 	ldr	x0, [x29, #32]
   8b258:	91003400 	add	x0, x0, #0xd
   8b25c:	39400001 	ldrb	w1, [x0]
   8b260:	f00001e0 	adrp	x0, ca000 <IID_IEcoIPCCMailbox1+0x8>
   8b264:	9100d400 	add	x0, x0, #0x35
   8b268:	39400000 	ldrb	w0, [x0]
   8b26c:	6b00003f 	cmp	w1, w0
   8b270:	54000541 	b.ne	8b318 <CEcoVFB1_AF252188_IEcoCGI1_QueryInterface+0x76c>  // b.any
   8b274:	f94013a0 	ldr	x0, [x29, #32]
   8b278:	91003800 	add	x0, x0, #0xe
   8b27c:	39400001 	ldrb	w1, [x0]
   8b280:	f00001e0 	adrp	x0, ca000 <IID_IEcoIPCCMailbox1+0x8>
   8b284:	9100d800 	add	x0, x0, #0x36
   8b288:	39400000 	ldrb	w0, [x0]
   8b28c:	6b00003f 	cmp	w1, w0
   8b290:	54000441 	b.ne	8b318 <CEcoVFB1_AF252188_IEcoCGI1_QueryInterface+0x76c>  // b.any
   8b294:	f94013a0 	ldr	x0, [x29, #32]
   8b298:	91003c00 	add	x0, x0, #0xf
   8b29c:	39400001 	ldrb	w1, [x0]
   8b2a0:	f00001e0 	adrp	x0, ca000 <IID_IEcoIPCCMailbox1+0x8>
   8b2a4:	9100dc00 	add	x0, x0, #0x37
   8b2a8:	39400000 	ldrb	w0, [x0]
   8b2ac:	6b00003f 	cmp	w1, w0
   8b2b0:	54000341 	b.ne	8b318 <CEcoVFB1_AF252188_IEcoCGI1_QueryInterface+0x76c>  // b.any
   8b2b4:	f94013a0 	ldr	x0, [x29, #32]
   8b2b8:	91004000 	add	x0, x0, #0x10
   8b2bc:	39400001 	ldrb	w1, [x0]
   8b2c0:	f00001e0 	adrp	x0, ca000 <IID_IEcoIPCCMailbox1+0x8>
   8b2c4:	9100e000 	add	x0, x0, #0x38
   8b2c8:	39400000 	ldrb	w0, [x0]
   8b2cc:	6b00003f 	cmp	w1, w0
   8b2d0:	54000241 	b.ne	8b318 <CEcoVFB1_AF252188_IEcoCGI1_QueryInterface+0x76c>  // b.any
   8b2d4:	f94013a0 	ldr	x0, [x29, #32]
   8b2d8:	91004400 	add	x0, x0, #0x11
   8b2dc:	39400001 	ldrb	w1, [x0]
   8b2e0:	f00001e0 	adrp	x0, ca000 <IID_IEcoIPCCMailbox1+0x8>
   8b2e4:	9100e400 	add	x0, x0, #0x39
   8b2e8:	39400000 	ldrb	w0, [x0]
   8b2ec:	6b00003f 	cmp	w1, w0
   8b2f0:	54000141 	b.ne	8b318 <CEcoVFB1_AF252188_IEcoCGI1_QueryInterface+0x76c>  // b.any
   8b2f4:	f9401fa1 	ldr	x1, [x29, #56]
   8b2f8:	f9400fa0 	ldr	x0, [x29, #24]
   8b2fc:	f9000001 	str	x1, [x0]
   8b300:	f9401fa0 	ldr	x0, [x29, #56]
   8b304:	f9400000 	ldr	x0, [x0]
   8b308:	f9400401 	ldr	x1, [x0, #8]
   8b30c:	f9401fa0 	ldr	x0, [x29, #56]
   8b310:	d63f0020 	blr	x1
   8b314:	14000005 	b	8b328 <CEcoVFB1_AF252188_IEcoCGI1_QueryInterface+0x77c>
   8b318:	f9400fa0 	ldr	x0, [x29, #24]
   8b31c:	f900001f 	str	xzr, [x0]
   8b320:	12800000 	mov	w0, #0xffffffff            	// #-1
   8b324:	14000002 	b	8b32c <CEcoVFB1_AF252188_IEcoCGI1_QueryInterface+0x780>
   8b328:	52800000 	mov	w0, #0x0                   	// #0
   8b32c:	a8c47bfd 	ldp	x29, x30, [sp], #64
   8b330:	d65f03c0 	ret

000000000008b334 <CEcoVFB1_AF252188_IEcoCGI1_AddRef>:
   8b334:	d10083ff 	sub	sp, sp, #0x20
   8b338:	f90007e0 	str	x0, [sp, #8]
   8b33c:	f94007e0 	ldr	x0, [sp, #8]
   8b340:	d1002000 	sub	x0, x0, #0x8
   8b344:	f9000fe0 	str	x0, [sp, #24]
   8b348:	f94007e0 	ldr	x0, [sp, #8]
   8b34c:	f100001f 	cmp	x0, #0x0
   8b350:	54000061 	b.ne	8b35c <CEcoVFB1_AF252188_IEcoCGI1_AddRef+0x28>  // b.any
   8b354:	12800000 	mov	w0, #0xffffffff            	// #-1
   8b358:	14000008 	b	8b378 <CEcoVFB1_AF252188_IEcoCGI1_AddRef+0x44>
   8b35c:	f9400fe0 	ldr	x0, [sp, #24]
   8b360:	b9401000 	ldr	w0, [x0, #16]
   8b364:	11000401 	add	w1, w0, #0x1
   8b368:	f9400fe0 	ldr	x0, [sp, #24]
   8b36c:	b9001001 	str	w1, [x0, #16]
   8b370:	f9400fe0 	ldr	x0, [sp, #24]
   8b374:	b9401000 	ldr	w0, [x0, #16]
   8b378:	910083ff 	add	sp, sp, #0x20
   8b37c:	d65f03c0 	ret

000000000008b380 <CEcoVFB1_AF252188_IEcoCGI1_Release>:
   8b380:	a9bd7bfd 	stp	x29, x30, [sp, #-48]!
   8b384:	910003fd 	mov	x29, sp
   8b388:	f9000fa0 	str	x0, [x29, #24]
   8b38c:	f9400fa0 	ldr	x0, [x29, #24]
   8b390:	d1002000 	sub	x0, x0, #0x8
   8b394:	f90017a0 	str	x0, [x29, #40]
   8b398:	f9400fa0 	ldr	x0, [x29, #24]
   8b39c:	f100001f 	cmp	x0, #0x0
   8b3a0:	54000061 	b.ne	8b3ac <CEcoVFB1_AF252188_IEcoCGI1_Release+0x2c>  // b.any
   8b3a4:	12800000 	mov	w0, #0xffffffff            	// #-1
   8b3a8:	14000010 	b	8b3e8 <CEcoVFB1_AF252188_IEcoCGI1_Release+0x68>
   8b3ac:	f94017a0 	ldr	x0, [x29, #40]
   8b3b0:	b9401000 	ldr	w0, [x0, #16]
   8b3b4:	51000401 	sub	w1, w0, #0x1
   8b3b8:	f94017a0 	ldr	x0, [x29, #40]
   8b3bc:	b9001001 	str	w1, [x0, #16]
   8b3c0:	f94017a0 	ldr	x0, [x29, #40]
   8b3c4:	b9401000 	ldr	w0, [x0, #16]
   8b3c8:	7100001f 	cmp	w0, #0x0
   8b3cc:	540000a1 	b.ne	8b3e0 <CEcoVFB1_AF252188_IEcoCGI1_Release+0x60>  // b.any
   8b3d0:	f94017a0 	ldr	x0, [x29, #40]
   8b3d4:	94000200 	bl	8bbd4 <deleteCEcoVFB1_AF252188>
   8b3d8:	52800000 	mov	w0, #0x0                   	// #0
   8b3dc:	14000003 	b	8b3e8 <CEcoVFB1_AF252188_IEcoCGI1_Release+0x68>
   8b3e0:	f94017a0 	ldr	x0, [x29, #40]
   8b3e4:	b9401000 	ldr	w0, [x0, #16]
   8b3e8:	a8c37bfd 	ldp	x29, x30, [sp], #48
   8b3ec:	d65f03c0 	ret

000000000008b3f0 <CEcoVFB1_AF252188_IEcoCGI1_CreateVirtualDevice>:
   8b3f0:	a9bc7bfd 	stp	x29, x30, [sp, #-64]!
   8b3f4:	910003fd 	mov	x29, sp
   8b3f8:	f9000fa0 	str	x0, [x29, #24]
   8b3fc:	f9400fa0 	ldr	x0, [x29, #24]
   8b400:	d1002000 	sub	x0, x0, #0x8
   8b404:	f9001fa0 	str	x0, [x29, #56]
   8b408:	f90017bf 	str	xzr, [x29, #40]
   8b40c:	79006fbf 	strh	wzr, [x29, #54]
   8b410:	f9400fa0 	ldr	x0, [x29, #24]
   8b414:	f100001f 	cmp	x0, #0x0
   8b418:	54000061 	b.ne	8b424 <CEcoVFB1_AF252188_IEcoCGI1_CreateVirtualDevice+0x34>  // b.any
   8b41c:	92800000 	mov	x0, #0xffffffffffffffff    	// #-1
   8b420:	1400000a 	b	8b448 <CEcoVFB1_AF252188_IEcoCGI1_CreateVirtualDevice+0x58>
   8b424:	f9401fa0 	ldr	x0, [x29, #56]
   8b428:	f9401000 	ldr	x0, [x0, #32]
   8b42c:	9100a3a1 	add	x1, x29, #0x28
   8b430:	aa0103e3 	mov	x3, x1
   8b434:	f9401fa2 	ldr	x2, [x29, #56]
   8b438:	d2800001 	mov	x1, #0x0                   	// #0
   8b43c:	94000724 	bl	8d0cc <createCEcoVFB1VirtualDevice_AF252188>
   8b440:	79006fa0 	strh	w0, [x29, #54]
   8b444:	f94017a0 	ldr	x0, [x29, #40]
   8b448:	a8c47bfd 	ldp	x29, x30, [sp], #64
   8b44c:	d65f03c0 	ret

000000000008b450 <initCEcoVFB1_AF252188>:
   8b450:	d10543ff 	sub	sp, sp, #0x150
   8b454:	a90a7bfd 	stp	x29, x30, [sp, #160]
   8b458:	910283fd 	add	x29, sp, #0xa0
   8b45c:	f9000fa0 	str	x0, [x29, #24]
   8b460:	f9000ba1 	str	x1, [x29, #16]
   8b464:	f9400fa0 	ldr	x0, [x29, #24]
   8b468:	f90057a0 	str	x0, [x29, #168]
   8b46c:	12800000 	mov	w0, #0xffffffff            	// #-1
   8b470:	79014fa0 	strh	w0, [x29, #166]
   8b474:	f90047bf 	str	xzr, [x29, #136]
   8b478:	f90043bf 	str	xzr, [x29, #128]
   8b47c:	f9004fbf 	str	xzr, [x29, #152]
   8b480:	b90097bf 	str	wzr, [x29, #148]
   8b484:	b90093bf 	str	wzr, [x29, #144]
   8b488:	a9027fbf 	stp	xzr, xzr, [x29, #32]
   8b48c:	a9037fbf 	stp	xzr, xzr, [x29, #48]
   8b490:	a9047fbf 	stp	xzr, xzr, [x29, #64]
   8b494:	a9057fbf 	stp	xzr, xzr, [x29, #80]
   8b498:	a9067fbf 	stp	xzr, xzr, [x29, #96]
   8b49c:	f9003bbf 	str	xzr, [x29, #112]
   8b4a0:	b9007bbf 	str	wzr, [x29, #120]
   8b4a4:	f9400fa0 	ldr	x0, [x29, #24]
   8b4a8:	f100001f 	cmp	x0, #0x0
   8b4ac:	54000061 	b.ne	8b4b8 <initCEcoVFB1_AF252188+0x68>  // b.any
   8b4b0:	79c14fa0 	ldrsh	w0, [x29, #166]
   8b4b4:	140000b7 	b	8b790 <initCEcoVFB1_AF252188+0x340>
   8b4b8:	f9400ba0 	ldr	x0, [x29, #16]
   8b4bc:	f9400000 	ldr	x0, [x0]
   8b4c0:	f9400003 	ldr	x3, [x0]
   8b4c4:	910223a1 	add	x1, x29, #0x88
   8b4c8:	f00001e0 	adrp	x0, ca000 <IID_IEcoIPCCMailbox1+0x8>
   8b4cc:	91016000 	add	x0, x0, #0x58
   8b4d0:	aa0103e2 	mov	x2, x1
   8b4d4:	aa0003e1 	mov	x1, x0
   8b4d8:	f9400ba0 	ldr	x0, [x29, #16]
   8b4dc:	d63f0060 	blr	x3
   8b4e0:	79014fa0 	strh	w0, [x29, #166]
   8b4e4:	79c14fa0 	ldrsh	w0, [x29, #166]
   8b4e8:	7100001f 	cmp	w0, #0x0
   8b4ec:	540000c0 	b.eq	8b504 <initCEcoVFB1_AF252188+0xb4>  // b.none
   8b4f0:	f94047a0 	ldr	x0, [x29, #136]
   8b4f4:	f100001f 	cmp	x0, #0x0
   8b4f8:	54000061 	b.ne	8b504 <initCEcoVFB1_AF252188+0xb4>  // b.any
   8b4fc:	79c14fa0 	ldrsh	w0, [x29, #166]
   8b500:	140000a4 	b	8b790 <initCEcoVFB1_AF252188+0x340>
   8b504:	f94057a0 	ldr	x0, [x29, #168]
   8b508:	f9400ba1 	ldr	x1, [x29, #16]
   8b50c:	f9001001 	str	x1, [x0, #32]
   8b510:	f94047a0 	ldr	x0, [x29, #136]
   8b514:	f9400000 	ldr	x0, [x0]
   8b518:	f9400003 	ldr	x3, [x0]
   8b51c:	f94047a4 	ldr	x4, [x29, #136]
   8b520:	910203a1 	add	x1, x29, #0x80
   8b524:	f00001e0 	adrp	x0, ca000 <IID_IEcoIPCCMailbox1+0x8>
   8b528:	9101c000 	add	x0, x0, #0x70
   8b52c:	aa0103e2 	mov	x2, x1
   8b530:	aa0003e1 	mov	x1, x0
   8b534:	aa0403e0 	mov	x0, x4
   8b538:	d63f0060 	blr	x3
   8b53c:	79014fa0 	strh	w0, [x29, #166]
   8b540:	f94043a0 	ldr	x0, [x29, #128]
   8b544:	f9400000 	ldr	x0, [x0]
   8b548:	f9401c05 	ldr	x5, [x0, #56]
   8b54c:	f94043a6 	ldr	x6, [x29, #128]
   8b550:	f94057a0 	ldr	x0, [x29, #168]
   8b554:	9100a002 	add	x2, x0, #0x28
   8b558:	f00001e0 	adrp	x0, ca000 <IID_IEcoIPCCMailbox1+0x8>
   8b55c:	91046001 	add	x1, x0, #0x118
   8b560:	f00001e0 	adrp	x0, ca000 <IID_IEcoIPCCMailbox1+0x8>
   8b564:	9104c000 	add	x0, x0, #0x130
   8b568:	aa0203e4 	mov	x4, x2
   8b56c:	aa0103e3 	mov	x3, x1
   8b570:	d2800002 	mov	x2, #0x0                   	// #0
   8b574:	aa0003e1 	mov	x1, x0
   8b578:	aa0603e0 	mov	x0, x6
   8b57c:	d63f00a0 	blr	x5
   8b580:	79c14fa0 	ldrsh	w0, [x29, #166]
   8b584:	7100001f 	cmp	w0, #0x0
   8b588:	540000e0 	b.eq	8b5a4 <initCEcoVFB1_AF252188+0x154>  // b.none
   8b58c:	f94057a0 	ldr	x0, [x29, #168]
   8b590:	f9401400 	ldr	x0, [x0, #40]
   8b594:	f100001f 	cmp	x0, #0x0
   8b598:	54000061 	b.ne	8b5a4 <initCEcoVFB1_AF252188+0x154>  // b.any
   8b59c:	79c14fa0 	ldrsh	w0, [x29, #166]
   8b5a0:	1400007c 	b	8b790 <initCEcoVFB1_AF252188+0x340>
   8b5a4:	f94057a0 	ldr	x0, [x29, #168]
   8b5a8:	f9401400 	ldr	x0, [x0, #40]
   8b5ac:	f9400000 	ldr	x0, [x0]
   8b5b0:	f9401c08 	ldr	x8, [x0, #56]
   8b5b4:	f94057a0 	ldr	x0, [x29, #168]
   8b5b8:	f9401400 	ldr	x0, [x0, #40]
   8b5bc:	910083a1 	add	x1, x29, #0x20
   8b5c0:	b90003ff 	str	wzr, [sp]
   8b5c4:	52800007 	mov	w7, #0x0                   	// #0
   8b5c8:	52800006 	mov	w6, #0x0                   	// #0
   8b5cc:	52800105 	mov	w5, #0x8                   	// #8
   8b5d0:	52800064 	mov	w4, #0x3                   	// #3
   8b5d4:	72a00084 	movk	w4, #0x4, lsl #16
   8b5d8:	528000a3 	mov	w3, #0x5                   	// #5
   8b5dc:	aa0103e2 	mov	x2, x1
   8b5e0:	52800101 	mov	w1, #0x8                   	// #8
   8b5e4:	d63f0100 	blr	x8
   8b5e8:	13003c00 	sxth	w0, w0
   8b5ec:	3100041f 	cmn	w0, #0x1
   8b5f0:	540000e0 	b.eq	8b60c <initCEcoVFB1_AF252188+0x1bc>  // b.none
   8b5f4:	b9402fa1 	ldr	w1, [x29, #44]
   8b5f8:	f94057a0 	ldr	x0, [x29, #168]
   8b5fc:	b9003801 	str	w1, [x0, #56]
   8b600:	b94033a1 	ldr	w1, [x29, #48]
   8b604:	f94057a0 	ldr	x0, [x29, #168]
   8b608:	b9003c01 	str	w1, [x0, #60]
   8b60c:	f94057a0 	ldr	x0, [x29, #168]
   8b610:	f9401400 	ldr	x0, [x0, #40]
   8b614:	f9400000 	ldr	x0, [x0]
   8b618:	f9401c08 	ldr	x8, [x0, #56]
   8b61c:	f94057a0 	ldr	x0, [x29, #168]
   8b620:	f9401400 	ldr	x0, [x0, #40]
   8b624:	910083a1 	add	x1, x29, #0x20
   8b628:	52800007 	mov	w7, #0x0                   	// #0
   8b62c:	52800086 	mov	w6, #0x4                   	// #4
   8b630:	52800085 	mov	w5, #0x4                   	// #4
   8b634:	528000a4 	mov	w4, #0x5                   	// #5
   8b638:	72a00084 	movk	w4, #0x4, lsl #16
   8b63c:	52800083 	mov	w3, #0x4                   	// #4
   8b640:	aa0103e2 	mov	x2, x1
   8b644:	52800101 	mov	w1, #0x8                   	// #8
   8b648:	d63f0100 	blr	x8
   8b64c:	13003c00 	sxth	w0, w0
   8b650:	3100041f 	cmn	w0, #0x1
   8b654:	54000080 	b.eq	8b664 <initCEcoVFB1_AF252188+0x214>  // b.none
   8b658:	b9402fa1 	ldr	w1, [x29, #44]
   8b65c:	f94057a0 	ldr	x0, [x29, #168]
   8b660:	b9004001 	str	w1, [x0, #64]
   8b664:	f94057a0 	ldr	x0, [x29, #168]
   8b668:	f9401400 	ldr	x0, [x0, #40]
   8b66c:	f9400000 	ldr	x0, [x0]
   8b670:	f9401c08 	ldr	x8, [x0, #56]
   8b674:	f94057a0 	ldr	x0, [x29, #168]
   8b678:	f9401409 	ldr	x9, [x0, #40]
   8b67c:	f94057a0 	ldr	x0, [x29, #168]
   8b680:	b9403800 	ldr	w0, [x0, #56]
   8b684:	f94057a1 	ldr	x1, [x29, #168]
   8b688:	b9403c21 	ldr	w1, [x1, #60]
   8b68c:	f94057a2 	ldr	x2, [x29, #168]
   8b690:	b9403842 	ldr	w2, [x2, #56]
   8b694:	f94057a3 	ldr	x3, [x29, #168]
   8b698:	b9403c63 	ldr	w3, [x3, #60]
   8b69c:	f94057a4 	ldr	x4, [x29, #168]
   8b6a0:	b9404084 	ldr	w4, [x4, #64]
   8b6a4:	910083aa 	add	x10, x29, #0x20
   8b6a8:	b90093ff 	str	wzr, [sp, #144]
   8b6ac:	b9008bff 	str	wzr, [sp, #136]
   8b6b0:	52800085 	mov	w5, #0x4                   	// #4
   8b6b4:	b90083e5 	str	w5, [sp, #128]
   8b6b8:	52800105 	mov	w5, #0x8                   	// #8
   8b6bc:	72a00085 	movk	w5, #0x4, lsl #16
   8b6c0:	b9007be5 	str	w5, [sp, #120]
   8b6c4:	b90073e4 	str	w4, [sp, #112]
   8b6c8:	52800084 	mov	w4, #0x4                   	// #4
   8b6cc:	b9006be4 	str	w4, [sp, #104]
   8b6d0:	52800084 	mov	w4, #0x4                   	// #4
   8b6d4:	b90063e4 	str	w4, [sp, #96]
   8b6d8:	529000a4 	mov	w4, #0x8005                	// #32773
   8b6dc:	72a00084 	movk	w4, #0x4, lsl #16
   8b6e0:	b9005be4 	str	w4, [sp, #88]
   8b6e4:	b90053e3 	str	w3, [sp, #80]
   8b6e8:	b9004be2 	str	w2, [sp, #72]
   8b6ec:	52800102 	mov	w2, #0x8                   	// #8
   8b6f0:	b90043e2 	str	w2, [sp, #64]
   8b6f4:	52800102 	mov	w2, #0x8                   	// #8
   8b6f8:	b9003be2 	str	w2, [sp, #56]
   8b6fc:	52900082 	mov	w2, #0x8004                	// #32772
   8b700:	72a00082 	movk	w2, #0x4, lsl #16
   8b704:	b90033e2 	str	w2, [sp, #48]
   8b708:	b9002be1 	str	w1, [sp, #40]
   8b70c:	b90023e0 	str	w0, [sp, #32]
   8b710:	52800100 	mov	w0, #0x8                   	// #8
   8b714:	b9001be0 	str	w0, [sp, #24]
   8b718:	52800100 	mov	w0, #0x8                   	// #8
   8b71c:	b90013e0 	str	w0, [sp, #16]
   8b720:	52900060 	mov	w0, #0x8003                	// #32771
   8b724:	72a00080 	movk	w0, #0x4, lsl #16
   8b728:	b9000be0 	str	w0, [sp, #8]
   8b72c:	b90003ff 	str	wzr, [sp]
   8b730:	52800207 	mov	w7, #0x10                  	// #16
   8b734:	52800086 	mov	w6, #0x4                   	// #4
   8b738:	52800105 	mov	w5, #0x8                   	// #8
   8b73c:	52800024 	mov	w4, #0x1                   	// #1
   8b740:	72a00084 	movk	w4, #0x4, lsl #16
   8b744:	528002e3 	mov	w3, #0x17                  	// #23
   8b748:	aa0a03e2 	mov	x2, x10
   8b74c:	52800101 	mov	w1, #0x8                   	// #8
   8b750:	aa0903e0 	mov	x0, x9
   8b754:	d63f0100 	blr	x8
   8b758:	b9402fa0 	ldr	w0, [x29, #44]
   8b75c:	2a0003e0 	mov	w0, w0
   8b760:	aa0003e1 	mov	x1, x0
   8b764:	f94057a0 	ldr	x0, [x29, #168]
   8b768:	f9001801 	str	x1, [x0, #48]
   8b76c:	b9407ba1 	ldr	w1, [x29, #120]
   8b770:	f94057a0 	ldr	x0, [x29, #168]
   8b774:	b9004401 	str	w1, [x0, #68]
   8b778:	f94057a0 	ldr	x0, [x29, #168]
   8b77c:	b9404400 	ldr	w0, [x0, #68]
   8b780:	53017c01 	lsr	w1, w0, #1
   8b784:	f94057a0 	ldr	x0, [x29, #168]
   8b788:	b9004401 	str	w1, [x0, #68]
   8b78c:	52800000 	mov	w0, #0x0                   	// #0
   8b790:	a94a7bfd 	ldp	x29, x30, [sp, #160]
   8b794:	910543ff 	add	sp, sp, #0x150
   8b798:	d65f03c0 	ret

000000000008b79c <createCEcoVFB1_AF252188>:
   8b79c:	d105c3ff 	sub	sp, sp, #0x170
   8b7a0:	a90a7bfd 	stp	x29, x30, [sp, #160]
   8b7a4:	910283fd 	add	x29, sp, #0xa0
   8b7a8:	f90017a0 	str	x0, [x29, #40]
   8b7ac:	f90013a1 	str	x1, [x29, #32]
   8b7b0:	f9000fa2 	str	x2, [x29, #24]
   8b7b4:	12800000 	mov	w0, #0xffffffff            	// #-1
   8b7b8:	79019fa0 	strh	w0, [x29, #206]
   8b7bc:	f90053bf 	str	xzr, [x29, #160]
   8b7c0:	f9004fbf 	str	xzr, [x29, #152]
   8b7c4:	f90063bf 	str	xzr, [x29, #192]
   8b7c8:	f9005fbf 	str	xzr, [x29, #184]
   8b7cc:	f9005bbf 	str	xzr, [x29, #176]
   8b7d0:	f00001e0 	adrp	x0, ca000 <IID_IEcoIPCCMailbox1+0x8>
   8b7d4:	9103a000 	add	x0, x0, #0xe8
   8b7d8:	f90057a0 	str	x0, [x29, #168]
   8b7dc:	f9001fbf 	str	xzr, [x29, #56]
   8b7e0:	f90023bf 	str	xzr, [x29, #64]
   8b7e4:	f90027bf 	str	xzr, [x29, #72]
   8b7e8:	f9002bbf 	str	xzr, [x29, #80]
   8b7ec:	f9002fbf 	str	xzr, [x29, #88]
   8b7f0:	f90033bf 	str	xzr, [x29, #96]
   8b7f4:	f90037bf 	str	xzr, [x29, #104]
   8b7f8:	f9003bbf 	str	xzr, [x29, #112]
   8b7fc:	f9003fbf 	str	xzr, [x29, #120]
   8b800:	f90043bf 	str	xzr, [x29, #128]
   8b804:	f90047bf 	str	xzr, [x29, #136]
   8b808:	b90093bf 	str	wzr, [x29, #144]
   8b80c:	f9400fa0 	ldr	x0, [x29, #24]
   8b810:	f100001f 	cmp	x0, #0x0
   8b814:	54000080 	b.eq	8b824 <createCEcoVFB1_AF252188+0x88>  // b.none
   8b818:	f94017a0 	ldr	x0, [x29, #40]
   8b81c:	f100001f 	cmp	x0, #0x0
   8b820:	54000061 	b.ne	8b82c <createCEcoVFB1_AF252188+0x90>  // b.any
   8b824:	79c19fa0 	ldrsh	w0, [x29, #206]
   8b828:	140000e8 	b	8bbc8 <createCEcoVFB1_AF252188+0x42c>
   8b82c:	f94017a0 	ldr	x0, [x29, #40]
   8b830:	f9400000 	ldr	x0, [x0]
   8b834:	f9400003 	ldr	x3, [x0]
   8b838:	910283a1 	add	x1, x29, #0xa0
   8b83c:	f00001e0 	adrp	x0, ca000 <IID_IEcoIPCCMailbox1+0x8>
   8b840:	91016000 	add	x0, x0, #0x58
   8b844:	aa0103e2 	mov	x2, x1
   8b848:	aa0003e1 	mov	x1, x0
   8b84c:	f94017a0 	ldr	x0, [x29, #40]
   8b850:	d63f0060 	blr	x3
   8b854:	79019fa0 	strh	w0, [x29, #206]
   8b858:	79c19fa0 	ldrsh	w0, [x29, #206]
   8b85c:	7100001f 	cmp	w0, #0x0
   8b860:	540000c0 	b.eq	8b878 <createCEcoVFB1_AF252188+0xdc>  // b.none
   8b864:	f94053a0 	ldr	x0, [x29, #160]
   8b868:	f100001f 	cmp	x0, #0x0
   8b86c:	54000061 	b.ne	8b878 <createCEcoVFB1_AF252188+0xdc>  // b.any
   8b870:	79c19fa0 	ldrsh	w0, [x29, #206]
   8b874:	140000d5 	b	8bbc8 <createCEcoVFB1_AF252188+0x42c>
   8b878:	f94053a0 	ldr	x0, [x29, #160]
   8b87c:	f9400000 	ldr	x0, [x0]
   8b880:	f9400003 	ldr	x3, [x0]
   8b884:	f94053a4 	ldr	x4, [x29, #160]
   8b888:	910263a1 	add	x1, x29, #0x98
   8b88c:	f00001e0 	adrp	x0, ca000 <IID_IEcoIPCCMailbox1+0x8>
   8b890:	9101c000 	add	x0, x0, #0x70
   8b894:	aa0103e2 	mov	x2, x1
   8b898:	aa0003e1 	mov	x1, x0
   8b89c:	aa0403e0 	mov	x0, x4
   8b8a0:	d63f0060 	blr	x3
   8b8a4:	79019fa0 	strh	w0, [x29, #206]
   8b8a8:	90000020 	adrp	x0, 8f000 <_malloc_r+0x818>
   8b8ac:	9136a000 	add	x0, x0, #0xda8
   8b8b0:	f9005ba0 	str	x0, [x29, #176]
   8b8b4:	f9405ba0 	ldr	x0, [x29, #176]
   8b8b8:	b9401000 	ldr	w0, [x0, #16]
   8b8bc:	7100001f 	cmp	w0, #0x0
   8b8c0:	540017c1 	b.ne	8bbb8 <createCEcoVFB1_AF252188+0x41c>  // b.any
   8b8c4:	f9405ba0 	ldr	x0, [x29, #176]
   8b8c8:	52800021 	mov	w1, #0x1                   	// #1
   8b8cc:	b9001001 	str	w1, [x0, #16]
   8b8d0:	f9404fa0 	ldr	x0, [x29, #152]
   8b8d4:	f9400000 	ldr	x0, [x0]
   8b8d8:	f9401c05 	ldr	x5, [x0, #56]
   8b8dc:	f9404fa6 	ldr	x6, [x29, #152]
   8b8e0:	f9405ba0 	ldr	x0, [x29, #176]
   8b8e4:	9100a002 	add	x2, x0, #0x28
   8b8e8:	f00001e0 	adrp	x0, ca000 <IID_IEcoIPCCMailbox1+0x8>
   8b8ec:	91046001 	add	x1, x0, #0x118
   8b8f0:	f00001e0 	adrp	x0, ca000 <IID_IEcoIPCCMailbox1+0x8>
   8b8f4:	9104c000 	add	x0, x0, #0x130
   8b8f8:	aa0203e4 	mov	x4, x2
   8b8fc:	aa0103e3 	mov	x3, x1
   8b900:	d2800002 	mov	x2, #0x0                   	// #0
   8b904:	aa0003e1 	mov	x1, x0
   8b908:	aa0603e0 	mov	x0, x6
   8b90c:	d63f00a0 	blr	x5
   8b910:	79019fa0 	strh	w0, [x29, #206]
   8b914:	79c19fa0 	ldrsh	w0, [x29, #206]
   8b918:	7100001f 	cmp	w0, #0x0
   8b91c:	540000e0 	b.eq	8b938 <createCEcoVFB1_AF252188+0x19c>  // b.none
   8b920:	f9405ba0 	ldr	x0, [x29, #176]
   8b924:	f9401400 	ldr	x0, [x0, #40]
   8b928:	f100001f 	cmp	x0, #0x0
   8b92c:	54000061 	b.ne	8b938 <createCEcoVFB1_AF252188+0x19c>  // b.any
   8b930:	79c19fa0 	ldrsh	w0, [x29, #206]
   8b934:	140000a5 	b	8bbc8 <createCEcoVFB1_AF252188+0x42c>
   8b938:	f9405ba0 	ldr	x0, [x29, #176]
   8b93c:	f9401400 	ldr	x0, [x0, #40]
   8b940:	f9400000 	ldr	x0, [x0]
   8b944:	f9401c08 	ldr	x8, [x0, #56]
   8b948:	f9405ba0 	ldr	x0, [x29, #176]
   8b94c:	f9401400 	ldr	x0, [x0, #40]
   8b950:	9100e3a1 	add	x1, x29, #0x38
   8b954:	b90003ff 	str	wzr, [sp]
   8b958:	52800007 	mov	w7, #0x0                   	// #0
   8b95c:	52800006 	mov	w6, #0x0                   	// #0
   8b960:	52800105 	mov	w5, #0x8                   	// #8
   8b964:	52800064 	mov	w4, #0x3                   	// #3
   8b968:	72a00084 	movk	w4, #0x4, lsl #16
   8b96c:	528000a3 	mov	w3, #0x5                   	// #5
   8b970:	aa0103e2 	mov	x2, x1
   8b974:	52800101 	mov	w1, #0x8                   	// #8
   8b978:	d63f0100 	blr	x8
   8b97c:	13003c00 	sxth	w0, w0
   8b980:	3100041f 	cmn	w0, #0x1
   8b984:	540000e0 	b.eq	8b9a0 <createCEcoVFB1_AF252188+0x204>  // b.none
   8b988:	b94047a1 	ldr	w1, [x29, #68]
   8b98c:	f9405ba0 	ldr	x0, [x29, #176]
   8b990:	b9003801 	str	w1, [x0, #56]
   8b994:	b9404ba1 	ldr	w1, [x29, #72]
   8b998:	f9405ba0 	ldr	x0, [x29, #176]
   8b99c:	b9003c01 	str	w1, [x0, #60]
   8b9a0:	f9405ba0 	ldr	x0, [x29, #176]
   8b9a4:	f9401400 	ldr	x0, [x0, #40]
   8b9a8:	f9400000 	ldr	x0, [x0]
   8b9ac:	f9401c08 	ldr	x8, [x0, #56]
   8b9b0:	f9405ba0 	ldr	x0, [x29, #176]
   8b9b4:	f9401400 	ldr	x0, [x0, #40]
   8b9b8:	9100e3a1 	add	x1, x29, #0x38
   8b9bc:	52800007 	mov	w7, #0x0                   	// #0
   8b9c0:	52800086 	mov	w6, #0x4                   	// #4
   8b9c4:	52800085 	mov	w5, #0x4                   	// #4
   8b9c8:	528000a4 	mov	w4, #0x5                   	// #5
   8b9cc:	72a00084 	movk	w4, #0x4, lsl #16
   8b9d0:	52800083 	mov	w3, #0x4                   	// #4
   8b9d4:	aa0103e2 	mov	x2, x1
   8b9d8:	52800101 	mov	w1, #0x8                   	// #8
   8b9dc:	d63f0100 	blr	x8
   8b9e0:	13003c00 	sxth	w0, w0
   8b9e4:	3100041f 	cmn	w0, #0x1
   8b9e8:	54000080 	b.eq	8b9f8 <createCEcoVFB1_AF252188+0x25c>  // b.none
   8b9ec:	b94047a1 	ldr	w1, [x29, #68]
   8b9f0:	f9405ba0 	ldr	x0, [x29, #176]
   8b9f4:	b9004001 	str	w1, [x0, #64]
   8b9f8:	f9405ba0 	ldr	x0, [x29, #176]
   8b9fc:	f9401400 	ldr	x0, [x0, #40]
   8ba00:	f9400000 	ldr	x0, [x0]
   8ba04:	f9401c08 	ldr	x8, [x0, #56]
   8ba08:	f9405ba0 	ldr	x0, [x29, #176]
   8ba0c:	f9401409 	ldr	x9, [x0, #40]
   8ba10:	f9405ba0 	ldr	x0, [x29, #176]
   8ba14:	b9403805 	ldr	w5, [x0, #56]
   8ba18:	f9405ba0 	ldr	x0, [x29, #176]
   8ba1c:	b9403c00 	ldr	w0, [x0, #60]
   8ba20:	f9405ba1 	ldr	x1, [x29, #176]
   8ba24:	b9403821 	ldr	w1, [x1, #56]
   8ba28:	f9405ba2 	ldr	x2, [x29, #176]
   8ba2c:	b9403c42 	ldr	w2, [x2, #60]
   8ba30:	f9405ba3 	ldr	x3, [x29, #176]
   8ba34:	b9404063 	ldr	w3, [x3, #64]
   8ba38:	9100e3aa 	add	x10, x29, #0x38
   8ba3c:	b90093ff 	str	wzr, [sp, #144]
   8ba40:	b9008bff 	str	wzr, [sp, #136]
   8ba44:	52800084 	mov	w4, #0x4                   	// #4
   8ba48:	b90083e4 	str	w4, [sp, #128]
   8ba4c:	52800104 	mov	w4, #0x8                   	// #8
   8ba50:	72a00084 	movk	w4, #0x4, lsl #16
   8ba54:	b9007be4 	str	w4, [sp, #120]
   8ba58:	b90073ff 	str	wzr, [sp, #112]
   8ba5c:	52800204 	mov	w4, #0x10                  	// #16
   8ba60:	b9006be4 	str	w4, [sp, #104]
   8ba64:	52800084 	mov	w4, #0x4                   	// #4
   8ba68:	b90063e4 	str	w4, [sp, #96]
   8ba6c:	52800104 	mov	w4, #0x8                   	// #8
   8ba70:	b9005be4 	str	w4, [sp, #88]
   8ba74:	52800024 	mov	w4, #0x1                   	// #1
   8ba78:	72a00084 	movk	w4, #0x4, lsl #16
   8ba7c:	b90053e4 	str	w4, [sp, #80]
   8ba80:	b9004be3 	str	w3, [sp, #72]
   8ba84:	52800083 	mov	w3, #0x4                   	// #4
   8ba88:	b90043e3 	str	w3, [sp, #64]
   8ba8c:	52800083 	mov	w3, #0x4                   	// #4
   8ba90:	b9003be3 	str	w3, [sp, #56]
   8ba94:	529000a3 	mov	w3, #0x8005                	// #32773
   8ba98:	72a00083 	movk	w3, #0x4, lsl #16
   8ba9c:	b90033e3 	str	w3, [sp, #48]
   8baa0:	b9002be2 	str	w2, [sp, #40]
   8baa4:	b90023e1 	str	w1, [sp, #32]
   8baa8:	52800101 	mov	w1, #0x8                   	// #8
   8baac:	b9001be1 	str	w1, [sp, #24]
   8bab0:	52800101 	mov	w1, #0x8                   	// #8
   8bab4:	b90013e1 	str	w1, [sp, #16]
   8bab8:	52900081 	mov	w1, #0x8004                	// #32772
   8babc:	72a00081 	movk	w1, #0x4, lsl #16
   8bac0:	b9000be1 	str	w1, [sp, #8]
   8bac4:	b90003e0 	str	w0, [sp]
   8bac8:	2a0503e7 	mov	w7, w5
   8bacc:	52800106 	mov	w6, #0x8                   	// #8
   8bad0:	52800105 	mov	w5, #0x8                   	// #8
   8bad4:	52900064 	mov	w4, #0x8003                	// #32771
   8bad8:	72a00084 	movk	w4, #0x4, lsl #16
   8badc:	528002e3 	mov	w3, #0x17                  	// #23
   8bae0:	aa0a03e2 	mov	x2, x10
   8bae4:	52800101 	mov	w1, #0x8                   	// #8
   8bae8:	aa0903e0 	mov	x0, x9
   8baec:	d63f0100 	blr	x8
   8baf0:	b9407fa0 	ldr	w0, [x29, #124]
   8baf4:	2a0003e0 	mov	w0, w0
   8baf8:	aa0003e1 	mov	x1, x0
   8bafc:	f9405ba0 	ldr	x0, [x29, #176]
   8bb00:	f9001801 	str	x1, [x0, #48]
   8bb04:	b94093a1 	ldr	w1, [x29, #144]
   8bb08:	f9405ba0 	ldr	x0, [x29, #176]
   8bb0c:	b9004401 	str	w1, [x0, #68]
   8bb10:	f9405ba0 	ldr	x0, [x29, #176]
   8bb14:	b9404000 	ldr	w0, [x0, #64]
   8bb18:	7100801f 	cmp	w0, #0x20
   8bb1c:	54000141 	b.ne	8bb44 <createCEcoVFB1_AF252188+0x3a8>  // b.any
   8bb20:	f9405ba0 	ldr	x0, [x29, #176]
   8bb24:	b9404400 	ldr	w0, [x0, #68]
   8bb28:	53027c01 	lsr	w1, w0, #2
   8bb2c:	f9405ba0 	ldr	x0, [x29, #176]
   8bb30:	b9004401 	str	w1, [x0, #68]
   8bb34:	f9405ba0 	ldr	x0, [x29, #176]
   8bb38:	52800081 	mov	w1, #0x4                   	// #4
   8bb3c:	b9004801 	str	w1, [x0, #72]
   8bb40:	1400001e 	b	8bbb8 <createCEcoVFB1_AF252188+0x41c>
   8bb44:	f9405ba0 	ldr	x0, [x29, #176]
   8bb48:	b9404000 	ldr	w0, [x0, #64]
   8bb4c:	7100601f 	cmp	w0, #0x18
   8bb50:	540001c1 	b.ne	8bb88 <createCEcoVFB1_AF252188+0x3ec>  // b.any
   8bb54:	f9405ba0 	ldr	x0, [x29, #176]
   8bb58:	b9404401 	ldr	w1, [x0, #68]
   8bb5c:	52955560 	mov	w0, #0xaaab                	// #43691
   8bb60:	72b55540 	movk	w0, #0xaaaa, lsl #16
   8bb64:	9ba07c20 	umull	x0, w1, w0
   8bb68:	d360fc00 	lsr	x0, x0, #32
   8bb6c:	53017c01 	lsr	w1, w0, #1
   8bb70:	f9405ba0 	ldr	x0, [x29, #176]
   8bb74:	b9004401 	str	w1, [x0, #68]
   8bb78:	f9405ba0 	ldr	x0, [x29, #176]
   8bb7c:	52800061 	mov	w1, #0x3                   	// #3
   8bb80:	b9004801 	str	w1, [x0, #72]
   8bb84:	1400000d 	b	8bbb8 <createCEcoVFB1_AF252188+0x41c>
   8bb88:	f9405ba0 	ldr	x0, [x29, #176]
   8bb8c:	b9404000 	ldr	w0, [x0, #64]
   8bb90:	7100401f 	cmp	w0, #0x10
   8bb94:	54000121 	b.ne	8bbb8 <createCEcoVFB1_AF252188+0x41c>  // b.any
   8bb98:	f9405ba0 	ldr	x0, [x29, #176]
   8bb9c:	b9404400 	ldr	w0, [x0, #68]
   8bba0:	53017c01 	lsr	w1, w0, #1
   8bba4:	f9405ba0 	ldr	x0, [x29, #176]
   8bba8:	b9004401 	str	w1, [x0, #68]
   8bbac:	f9405ba0 	ldr	x0, [x29, #176]
   8bbb0:	52800041 	mov	w1, #0x2                   	// #2
   8bbb4:	b9004801 	str	w1, [x0, #72]
   8bbb8:	f9400fa0 	ldr	x0, [x29, #24]
   8bbbc:	f9405ba1 	ldr	x1, [x29, #176]
   8bbc0:	f9000001 	str	x1, [x0]
   8bbc4:	52800000 	mov	w0, #0x0                   	// #0
   8bbc8:	a94a7bfd 	ldp	x29, x30, [sp, #160]
   8bbcc:	9105c3ff 	add	sp, sp, #0x170
   8bbd0:	d65f03c0 	ret

000000000008bbd4 <deleteCEcoVFB1_AF252188>:
   8bbd4:	d10083ff 	sub	sp, sp, #0x20
   8bbd8:	f90007e0 	str	x0, [sp, #8]
   8bbdc:	f94007e0 	ldr	x0, [sp, #8]
   8bbe0:	f9000fe0 	str	x0, [sp, #24]
   8bbe4:	f9000bff 	str	xzr, [sp, #16]
   8bbe8:	d503201f 	nop
   8bbec:	910083ff 	add	sp, sp, #0x20
   8bbf0:	d65f03c0 	ret

000000000008bbf4 <CEcoVFB1VirtualDevice_AF252188_QueryInterface>:
   8bbf4:	a9bc7bfd 	stp	x29, x30, [sp, #-64]!
   8bbf8:	910003fd 	mov	x29, sp
   8bbfc:	f90017a0 	str	x0, [x29, #40]
   8bc00:	f90013a1 	str	x1, [x29, #32]
   8bc04:	f9000fa2 	str	x2, [x29, #24]
   8bc08:	f94017a0 	ldr	x0, [x29, #40]
   8bc0c:	f9001fa0 	str	x0, [x29, #56]
   8bc10:	12800000 	mov	w0, #0xffffffff            	// #-1
   8bc14:	79006fa0 	strh	w0, [x29, #54]
   8bc18:	f94017a0 	ldr	x0, [x29, #40]
   8bc1c:	f100001f 	cmp	x0, #0x0
   8bc20:	54000080 	b.eq	8bc30 <CEcoVFB1VirtualDevice_AF252188_QueryInterface+0x3c>  // b.none
   8bc24:	f9400fa0 	ldr	x0, [x29, #24]
   8bc28:	f100001f 	cmp	x0, #0x0
   8bc2c:	54000061 	b.ne	8bc38 <CEcoVFB1VirtualDevice_AF252188_QueryInterface+0x44>  // b.any
   8bc30:	79c06fa0 	ldrsh	w0, [x29, #54]
   8bc34:	140001cf 	b	8c370 <CEcoVFB1VirtualDevice_AF252188_QueryInterface+0x77c>
   8bc38:	f94013a0 	ldr	x0, [x29, #32]
   8bc3c:	39400001 	ldrb	w1, [x0]
   8bc40:	90000200 	adrp	x0, cb000 <BitFont+0xe10>
   8bc44:	910c0000 	add	x0, x0, #0x300
   8bc48:	39400000 	ldrb	w0, [x0]
   8bc4c:	6b00003f 	cmp	w1, w0
   8bc50:	54001241 	b.ne	8be98 <CEcoVFB1VirtualDevice_AF252188_QueryInterface+0x2a4>  // b.any
   8bc54:	f94013a0 	ldr	x0, [x29, #32]
   8bc58:	91000400 	add	x0, x0, #0x1
   8bc5c:	39400001 	ldrb	w1, [x0]
   8bc60:	90000200 	adrp	x0, cb000 <BitFont+0xe10>
   8bc64:	910c0400 	add	x0, x0, #0x301
   8bc68:	39400000 	ldrb	w0, [x0]
   8bc6c:	6b00003f 	cmp	w1, w0
   8bc70:	54001141 	b.ne	8be98 <CEcoVFB1VirtualDevice_AF252188_QueryInterface+0x2a4>  // b.any
   8bc74:	f94013a0 	ldr	x0, [x29, #32]
   8bc78:	91000800 	add	x0, x0, #0x2
   8bc7c:	39400001 	ldrb	w1, [x0]
   8bc80:	90000200 	adrp	x0, cb000 <BitFont+0xe10>
   8bc84:	910c0800 	add	x0, x0, #0x302
   8bc88:	39400000 	ldrb	w0, [x0]
   8bc8c:	6b00003f 	cmp	w1, w0
   8bc90:	54001041 	b.ne	8be98 <CEcoVFB1VirtualDevice_AF252188_QueryInterface+0x2a4>  // b.any
   8bc94:	f94013a0 	ldr	x0, [x29, #32]
   8bc98:	91000c00 	add	x0, x0, #0x3
   8bc9c:	39400001 	ldrb	w1, [x0]
   8bca0:	90000200 	adrp	x0, cb000 <BitFont+0xe10>
   8bca4:	910c0c00 	add	x0, x0, #0x303
   8bca8:	39400000 	ldrb	w0, [x0]
   8bcac:	6b00003f 	cmp	w1, w0
   8bcb0:	54000f41 	b.ne	8be98 <CEcoVFB1VirtualDevice_AF252188_QueryInterface+0x2a4>  // b.any
   8bcb4:	f94013a0 	ldr	x0, [x29, #32]
   8bcb8:	91001000 	add	x0, x0, #0x4
   8bcbc:	39400001 	ldrb	w1, [x0]
   8bcc0:	90000200 	adrp	x0, cb000 <BitFont+0xe10>
   8bcc4:	910c1000 	add	x0, x0, #0x304
   8bcc8:	39400000 	ldrb	w0, [x0]
   8bccc:	6b00003f 	cmp	w1, w0
   8bcd0:	54000e41 	b.ne	8be98 <CEcoVFB1VirtualDevice_AF252188_QueryInterface+0x2a4>  // b.any
   8bcd4:	f94013a0 	ldr	x0, [x29, #32]
   8bcd8:	91001400 	add	x0, x0, #0x5
   8bcdc:	39400001 	ldrb	w1, [x0]
   8bce0:	90000200 	adrp	x0, cb000 <BitFont+0xe10>
   8bce4:	910c1400 	add	x0, x0, #0x305
   8bce8:	39400000 	ldrb	w0, [x0]
   8bcec:	6b00003f 	cmp	w1, w0
   8bcf0:	54000d41 	b.ne	8be98 <CEcoVFB1VirtualDevice_AF252188_QueryInterface+0x2a4>  // b.any
   8bcf4:	f94013a0 	ldr	x0, [x29, #32]
   8bcf8:	91001800 	add	x0, x0, #0x6
   8bcfc:	39400001 	ldrb	w1, [x0]
   8bd00:	90000200 	adrp	x0, cb000 <BitFont+0xe10>
   8bd04:	910c1800 	add	x0, x0, #0x306
   8bd08:	39400000 	ldrb	w0, [x0]
   8bd0c:	6b00003f 	cmp	w1, w0
   8bd10:	54000c41 	b.ne	8be98 <CEcoVFB1VirtualDevice_AF252188_QueryInterface+0x2a4>  // b.any
   8bd14:	f94013a0 	ldr	x0, [x29, #32]
   8bd18:	91001c00 	add	x0, x0, #0x7
   8bd1c:	39400001 	ldrb	w1, [x0]
   8bd20:	90000200 	adrp	x0, cb000 <BitFont+0xe10>
   8bd24:	910c1c00 	add	x0, x0, #0x307
   8bd28:	39400000 	ldrb	w0, [x0]
   8bd2c:	6b00003f 	cmp	w1, w0
   8bd30:	54000b41 	b.ne	8be98 <CEcoVFB1VirtualDevice_AF252188_QueryInterface+0x2a4>  // b.any
   8bd34:	f94013a0 	ldr	x0, [x29, #32]
   8bd38:	91002000 	add	x0, x0, #0x8
   8bd3c:	39400001 	ldrb	w1, [x0]
   8bd40:	90000200 	adrp	x0, cb000 <BitFont+0xe10>
   8bd44:	910c2000 	add	x0, x0, #0x308
   8bd48:	39400000 	ldrb	w0, [x0]
   8bd4c:	6b00003f 	cmp	w1, w0
   8bd50:	54000a41 	b.ne	8be98 <CEcoVFB1VirtualDevice_AF252188_QueryInterface+0x2a4>  // b.any
   8bd54:	f94013a0 	ldr	x0, [x29, #32]
   8bd58:	91002400 	add	x0, x0, #0x9
   8bd5c:	39400001 	ldrb	w1, [x0]
   8bd60:	90000200 	adrp	x0, cb000 <BitFont+0xe10>
   8bd64:	910c2400 	add	x0, x0, #0x309
   8bd68:	39400000 	ldrb	w0, [x0]
   8bd6c:	6b00003f 	cmp	w1, w0
   8bd70:	54000941 	b.ne	8be98 <CEcoVFB1VirtualDevice_AF252188_QueryInterface+0x2a4>  // b.any
   8bd74:	f94013a0 	ldr	x0, [x29, #32]
   8bd78:	91002800 	add	x0, x0, #0xa
   8bd7c:	39400001 	ldrb	w1, [x0]
   8bd80:	90000200 	adrp	x0, cb000 <BitFont+0xe10>
   8bd84:	910c2800 	add	x0, x0, #0x30a
   8bd88:	39400000 	ldrb	w0, [x0]
   8bd8c:	6b00003f 	cmp	w1, w0
   8bd90:	54000841 	b.ne	8be98 <CEcoVFB1VirtualDevice_AF252188_QueryInterface+0x2a4>  // b.any
   8bd94:	f94013a0 	ldr	x0, [x29, #32]
   8bd98:	91002c00 	add	x0, x0, #0xb
   8bd9c:	39400001 	ldrb	w1, [x0]
   8bda0:	90000200 	adrp	x0, cb000 <BitFont+0xe10>
   8bda4:	910c2c00 	add	x0, x0, #0x30b
   8bda8:	39400000 	ldrb	w0, [x0]
   8bdac:	6b00003f 	cmp	w1, w0
   8bdb0:	54000741 	b.ne	8be98 <CEcoVFB1VirtualDevice_AF252188_QueryInterface+0x2a4>  // b.any
   8bdb4:	f94013a0 	ldr	x0, [x29, #32]
   8bdb8:	91003000 	add	x0, x0, #0xc
   8bdbc:	39400001 	ldrb	w1, [x0]
   8bdc0:	90000200 	adrp	x0, cb000 <BitFont+0xe10>
   8bdc4:	910c3000 	add	x0, x0, #0x30c
   8bdc8:	39400000 	ldrb	w0, [x0]
   8bdcc:	6b00003f 	cmp	w1, w0
   8bdd0:	54000641 	b.ne	8be98 <CEcoVFB1VirtualDevice_AF252188_QueryInterface+0x2a4>  // b.any
   8bdd4:	f94013a0 	ldr	x0, [x29, #32]
   8bdd8:	91003400 	add	x0, x0, #0xd
   8bddc:	39400001 	ldrb	w1, [x0]
   8bde0:	90000200 	adrp	x0, cb000 <BitFont+0xe10>
   8bde4:	910c3400 	add	x0, x0, #0x30d
   8bde8:	39400000 	ldrb	w0, [x0]
   8bdec:	6b00003f 	cmp	w1, w0
   8bdf0:	54000541 	b.ne	8be98 <CEcoVFB1VirtualDevice_AF252188_QueryInterface+0x2a4>  // b.any
   8bdf4:	f94013a0 	ldr	x0, [x29, #32]
   8bdf8:	91003800 	add	x0, x0, #0xe
   8bdfc:	39400001 	ldrb	w1, [x0]
   8be00:	90000200 	adrp	x0, cb000 <BitFont+0xe10>
   8be04:	910c3800 	add	x0, x0, #0x30e
   8be08:	39400000 	ldrb	w0, [x0]
   8be0c:	6b00003f 	cmp	w1, w0
   8be10:	54000441 	b.ne	8be98 <CEcoVFB1VirtualDevice_AF252188_QueryInterface+0x2a4>  // b.any
   8be14:	f94013a0 	ldr	x0, [x29, #32]
   8be18:	91003c00 	add	x0, x0, #0xf
   8be1c:	39400001 	ldrb	w1, [x0]
   8be20:	90000200 	adrp	x0, cb000 <BitFont+0xe10>
   8be24:	910c3c00 	add	x0, x0, #0x30f
   8be28:	39400000 	ldrb	w0, [x0]
   8be2c:	6b00003f 	cmp	w1, w0
   8be30:	54000341 	b.ne	8be98 <CEcoVFB1VirtualDevice_AF252188_QueryInterface+0x2a4>  // b.any
   8be34:	f94013a0 	ldr	x0, [x29, #32]
   8be38:	91004000 	add	x0, x0, #0x10
   8be3c:	39400001 	ldrb	w1, [x0]
   8be40:	90000200 	adrp	x0, cb000 <BitFont+0xe10>
   8be44:	910c4000 	add	x0, x0, #0x310
   8be48:	39400000 	ldrb	w0, [x0]
   8be4c:	6b00003f 	cmp	w1, w0
   8be50:	54000241 	b.ne	8be98 <CEcoVFB1VirtualDevice_AF252188_QueryInterface+0x2a4>  // b.any
   8be54:	f94013a0 	ldr	x0, [x29, #32]
   8be58:	91004400 	add	x0, x0, #0x11
   8be5c:	39400001 	ldrb	w1, [x0]
   8be60:	90000200 	adrp	x0, cb000 <BitFont+0xe10>
   8be64:	910c4400 	add	x0, x0, #0x311
   8be68:	39400000 	ldrb	w0, [x0]
   8be6c:	6b00003f 	cmp	w1, w0
   8be70:	54000141 	b.ne	8be98 <CEcoVFB1VirtualDevice_AF252188_QueryInterface+0x2a4>  // b.any
   8be74:	f9401fa1 	ldr	x1, [x29, #56]
   8be78:	f9400fa0 	ldr	x0, [x29, #24]
   8be7c:	f9000001 	str	x1, [x0]
   8be80:	f9401fa0 	ldr	x0, [x29, #56]
   8be84:	f9400000 	ldr	x0, [x0]
   8be88:	f9400401 	ldr	x1, [x0, #8]
   8be8c:	f9401fa0 	ldr	x0, [x29, #56]
   8be90:	d63f0020 	blr	x1
   8be94:	14000136 	b	8c36c <CEcoVFB1VirtualDevice_AF252188_QueryInterface+0x778>
   8be98:	f94013a0 	ldr	x0, [x29, #32]
   8be9c:	39400001 	ldrb	w1, [x0]
   8bea0:	90000200 	adrp	x0, cb000 <BitFont+0xe10>
   8bea4:	910c6000 	add	x0, x0, #0x318
   8bea8:	39400000 	ldrb	w0, [x0]
   8beac:	6b00003f 	cmp	w1, w0
   8beb0:	54001261 	b.ne	8c0fc <CEcoVFB1VirtualDevice_AF252188_QueryInterface+0x508>  // b.any
   8beb4:	f94013a0 	ldr	x0, [x29, #32]
   8beb8:	91000400 	add	x0, x0, #0x1
   8bebc:	39400001 	ldrb	w1, [x0]
   8bec0:	90000200 	adrp	x0, cb000 <BitFont+0xe10>
   8bec4:	910c6400 	add	x0, x0, #0x319
   8bec8:	39400000 	ldrb	w0, [x0]
   8becc:	6b00003f 	cmp	w1, w0
   8bed0:	54001161 	b.ne	8c0fc <CEcoVFB1VirtualDevice_AF252188_QueryInterface+0x508>  // b.any
   8bed4:	f94013a0 	ldr	x0, [x29, #32]
   8bed8:	91000800 	add	x0, x0, #0x2
   8bedc:	39400001 	ldrb	w1, [x0]
   8bee0:	90000200 	adrp	x0, cb000 <BitFont+0xe10>
   8bee4:	910c6800 	add	x0, x0, #0x31a
   8bee8:	39400000 	ldrb	w0, [x0]
   8beec:	6b00003f 	cmp	w1, w0
   8bef0:	54001061 	b.ne	8c0fc <CEcoVFB1VirtualDevice_AF252188_QueryInterface+0x508>  // b.any
   8bef4:	f94013a0 	ldr	x0, [x29, #32]
   8bef8:	91000c00 	add	x0, x0, #0x3
   8befc:	39400001 	ldrb	w1, [x0]
   8bf00:	90000200 	adrp	x0, cb000 <BitFont+0xe10>
   8bf04:	910c6c00 	add	x0, x0, #0x31b
   8bf08:	39400000 	ldrb	w0, [x0]
   8bf0c:	6b00003f 	cmp	w1, w0
   8bf10:	54000f61 	b.ne	8c0fc <CEcoVFB1VirtualDevice_AF252188_QueryInterface+0x508>  // b.any
   8bf14:	f94013a0 	ldr	x0, [x29, #32]
   8bf18:	91001000 	add	x0, x0, #0x4
   8bf1c:	39400001 	ldrb	w1, [x0]
   8bf20:	90000200 	adrp	x0, cb000 <BitFont+0xe10>
   8bf24:	910c7000 	add	x0, x0, #0x31c
   8bf28:	39400000 	ldrb	w0, [x0]
   8bf2c:	6b00003f 	cmp	w1, w0
   8bf30:	54000e61 	b.ne	8c0fc <CEcoVFB1VirtualDevice_AF252188_QueryInterface+0x508>  // b.any
   8bf34:	f94013a0 	ldr	x0, [x29, #32]
   8bf38:	91001400 	add	x0, x0, #0x5
   8bf3c:	39400001 	ldrb	w1, [x0]
   8bf40:	90000200 	adrp	x0, cb000 <BitFont+0xe10>
   8bf44:	910c7400 	add	x0, x0, #0x31d
   8bf48:	39400000 	ldrb	w0, [x0]
   8bf4c:	6b00003f 	cmp	w1, w0
   8bf50:	54000d61 	b.ne	8c0fc <CEcoVFB1VirtualDevice_AF252188_QueryInterface+0x508>  // b.any
   8bf54:	f94013a0 	ldr	x0, [x29, #32]
   8bf58:	91001800 	add	x0, x0, #0x6
   8bf5c:	39400001 	ldrb	w1, [x0]
   8bf60:	90000200 	adrp	x0, cb000 <BitFont+0xe10>
   8bf64:	910c7800 	add	x0, x0, #0x31e
   8bf68:	39400000 	ldrb	w0, [x0]
   8bf6c:	6b00003f 	cmp	w1, w0
   8bf70:	54000c61 	b.ne	8c0fc <CEcoVFB1VirtualDevice_AF252188_QueryInterface+0x508>  // b.any
   8bf74:	f94013a0 	ldr	x0, [x29, #32]
   8bf78:	91001c00 	add	x0, x0, #0x7
   8bf7c:	39400001 	ldrb	w1, [x0]
   8bf80:	90000200 	adrp	x0, cb000 <BitFont+0xe10>
   8bf84:	910c7c00 	add	x0, x0, #0x31f
   8bf88:	39400000 	ldrb	w0, [x0]
   8bf8c:	6b00003f 	cmp	w1, w0
   8bf90:	54000b61 	b.ne	8c0fc <CEcoVFB1VirtualDevice_AF252188_QueryInterface+0x508>  // b.any
   8bf94:	f94013a0 	ldr	x0, [x29, #32]
   8bf98:	91002000 	add	x0, x0, #0x8
   8bf9c:	39400001 	ldrb	w1, [x0]
   8bfa0:	90000200 	adrp	x0, cb000 <BitFont+0xe10>
   8bfa4:	910c8000 	add	x0, x0, #0x320
   8bfa8:	39400000 	ldrb	w0, [x0]
   8bfac:	6b00003f 	cmp	w1, w0
   8bfb0:	54000a61 	b.ne	8c0fc <CEcoVFB1VirtualDevice_AF252188_QueryInterface+0x508>  // b.any
   8bfb4:	f94013a0 	ldr	x0, [x29, #32]
   8bfb8:	91002400 	add	x0, x0, #0x9
   8bfbc:	39400001 	ldrb	w1, [x0]
   8bfc0:	90000200 	adrp	x0, cb000 <BitFont+0xe10>
   8bfc4:	910c8400 	add	x0, x0, #0x321
   8bfc8:	39400000 	ldrb	w0, [x0]
   8bfcc:	6b00003f 	cmp	w1, w0
   8bfd0:	54000961 	b.ne	8c0fc <CEcoVFB1VirtualDevice_AF252188_QueryInterface+0x508>  // b.any
   8bfd4:	f94013a0 	ldr	x0, [x29, #32]
   8bfd8:	91002800 	add	x0, x0, #0xa
   8bfdc:	39400001 	ldrb	w1, [x0]
   8bfe0:	90000200 	adrp	x0, cb000 <BitFont+0xe10>
   8bfe4:	910c8800 	add	x0, x0, #0x322
   8bfe8:	39400000 	ldrb	w0, [x0]
   8bfec:	6b00003f 	cmp	w1, w0
   8bff0:	54000861 	b.ne	8c0fc <CEcoVFB1VirtualDevice_AF252188_QueryInterface+0x508>  // b.any
   8bff4:	f94013a0 	ldr	x0, [x29, #32]
   8bff8:	91002c00 	add	x0, x0, #0xb
   8bffc:	39400001 	ldrb	w1, [x0]
   8c000:	f00001e0 	adrp	x0, cb000 <BitFont+0xe10>
   8c004:	910c8c00 	add	x0, x0, #0x323
   8c008:	39400000 	ldrb	w0, [x0]
   8c00c:	6b00003f 	cmp	w1, w0
   8c010:	54000761 	b.ne	8c0fc <CEcoVFB1VirtualDevice_AF252188_QueryInterface+0x508>  // b.any
   8c014:	f94013a0 	ldr	x0, [x29, #32]
   8c018:	91003000 	add	x0, x0, #0xc
   8c01c:	39400001 	ldrb	w1, [x0]
   8c020:	f00001e0 	adrp	x0, cb000 <BitFont+0xe10>
   8c024:	910c9000 	add	x0, x0, #0x324
   8c028:	39400000 	ldrb	w0, [x0]
   8c02c:	6b00003f 	cmp	w1, w0
   8c030:	54000661 	b.ne	8c0fc <CEcoVFB1VirtualDevice_AF252188_QueryInterface+0x508>  // b.any
   8c034:	f94013a0 	ldr	x0, [x29, #32]
   8c038:	91003400 	add	x0, x0, #0xd
   8c03c:	39400001 	ldrb	w1, [x0]
   8c040:	f00001e0 	adrp	x0, cb000 <BitFont+0xe10>
   8c044:	910c9400 	add	x0, x0, #0x325
   8c048:	39400000 	ldrb	w0, [x0]
   8c04c:	6b00003f 	cmp	w1, w0
   8c050:	54000561 	b.ne	8c0fc <CEcoVFB1VirtualDevice_AF252188_QueryInterface+0x508>  // b.any
   8c054:	f94013a0 	ldr	x0, [x29, #32]
   8c058:	91003800 	add	x0, x0, #0xe
   8c05c:	39400001 	ldrb	w1, [x0]
   8c060:	f00001e0 	adrp	x0, cb000 <BitFont+0xe10>
   8c064:	910c9800 	add	x0, x0, #0x326
   8c068:	39400000 	ldrb	w0, [x0]
   8c06c:	6b00003f 	cmp	w1, w0
   8c070:	54000461 	b.ne	8c0fc <CEcoVFB1VirtualDevice_AF252188_QueryInterface+0x508>  // b.any
   8c074:	f94013a0 	ldr	x0, [x29, #32]
   8c078:	91003c00 	add	x0, x0, #0xf
   8c07c:	39400001 	ldrb	w1, [x0]
   8c080:	f00001e0 	adrp	x0, cb000 <BitFont+0xe10>
   8c084:	910c9c00 	add	x0, x0, #0x327
   8c088:	39400000 	ldrb	w0, [x0]
   8c08c:	6b00003f 	cmp	w1, w0
   8c090:	54000361 	b.ne	8c0fc <CEcoVFB1VirtualDevice_AF252188_QueryInterface+0x508>  // b.any
   8c094:	f94013a0 	ldr	x0, [x29, #32]
   8c098:	91004000 	add	x0, x0, #0x10
   8c09c:	39400001 	ldrb	w1, [x0]
   8c0a0:	f00001e0 	adrp	x0, cb000 <BitFont+0xe10>
   8c0a4:	910ca000 	add	x0, x0, #0x328
   8c0a8:	39400000 	ldrb	w0, [x0]
   8c0ac:	6b00003f 	cmp	w1, w0
   8c0b0:	54000261 	b.ne	8c0fc <CEcoVFB1VirtualDevice_AF252188_QueryInterface+0x508>  // b.any
   8c0b4:	f94013a0 	ldr	x0, [x29, #32]
   8c0b8:	91004400 	add	x0, x0, #0x11
   8c0bc:	39400001 	ldrb	w1, [x0]
   8c0c0:	f00001e0 	adrp	x0, cb000 <BitFont+0xe10>
   8c0c4:	910ca400 	add	x0, x0, #0x329
   8c0c8:	39400000 	ldrb	w0, [x0]
   8c0cc:	6b00003f 	cmp	w1, w0
   8c0d0:	54000161 	b.ne	8c0fc <CEcoVFB1VirtualDevice_AF252188_QueryInterface+0x508>  // b.any
   8c0d4:	f9401fa0 	ldr	x0, [x29, #56]
   8c0d8:	91002001 	add	x1, x0, #0x8
   8c0dc:	f9400fa0 	ldr	x0, [x29, #24]
   8c0e0:	f9000001 	str	x1, [x0]
   8c0e4:	f9401fa0 	ldr	x0, [x29, #56]
   8c0e8:	f9400000 	ldr	x0, [x0]
   8c0ec:	f9400401 	ldr	x1, [x0, #8]
   8c0f0:	f9401fa0 	ldr	x0, [x29, #56]
   8c0f4:	d63f0020 	blr	x1
   8c0f8:	1400009d 	b	8c36c <CEcoVFB1VirtualDevice_AF252188_QueryInterface+0x778>
   8c0fc:	f94013a0 	ldr	x0, [x29, #32]
   8c100:	39400001 	ldrb	w1, [x0]
   8c104:	f00001e0 	adrp	x0, cb000 <BitFont+0xe10>
   8c108:	9107e000 	add	x0, x0, #0x1f8
   8c10c:	39400000 	ldrb	w0, [x0]
   8c110:	6b00003f 	cmp	w1, w0
   8c114:	54001241 	b.ne	8c35c <CEcoVFB1VirtualDevice_AF252188_QueryInterface+0x768>  // b.any
   8c118:	f94013a0 	ldr	x0, [x29, #32]
   8c11c:	91000400 	add	x0, x0, #0x1
   8c120:	39400001 	ldrb	w1, [x0]
   8c124:	f00001e0 	adrp	x0, cb000 <BitFont+0xe10>
   8c128:	9107e400 	add	x0, x0, #0x1f9
   8c12c:	39400000 	ldrb	w0, [x0]
   8c130:	6b00003f 	cmp	w1, w0
   8c134:	54001141 	b.ne	8c35c <CEcoVFB1VirtualDevice_AF252188_QueryInterface+0x768>  // b.any
   8c138:	f94013a0 	ldr	x0, [x29, #32]
   8c13c:	91000800 	add	x0, x0, #0x2
   8c140:	39400001 	ldrb	w1, [x0]
   8c144:	f00001e0 	adrp	x0, cb000 <BitFont+0xe10>
   8c148:	9107e800 	add	x0, x0, #0x1fa
   8c14c:	39400000 	ldrb	w0, [x0]
   8c150:	6b00003f 	cmp	w1, w0
   8c154:	54001041 	b.ne	8c35c <CEcoVFB1VirtualDevice_AF252188_QueryInterface+0x768>  // b.any
   8c158:	f94013a0 	ldr	x0, [x29, #32]
   8c15c:	91000c00 	add	x0, x0, #0x3
   8c160:	39400001 	ldrb	w1, [x0]
   8c164:	f00001e0 	adrp	x0, cb000 <BitFont+0xe10>
   8c168:	9107ec00 	add	x0, x0, #0x1fb
   8c16c:	39400000 	ldrb	w0, [x0]
   8c170:	6b00003f 	cmp	w1, w0
   8c174:	54000f41 	b.ne	8c35c <CEcoVFB1VirtualDevice_AF252188_QueryInterface+0x768>  // b.any
   8c178:	f94013a0 	ldr	x0, [x29, #32]
   8c17c:	91001000 	add	x0, x0, #0x4
   8c180:	39400001 	ldrb	w1, [x0]
   8c184:	f00001e0 	adrp	x0, cb000 <BitFont+0xe10>
   8c188:	9107f000 	add	x0, x0, #0x1fc
   8c18c:	39400000 	ldrb	w0, [x0]
   8c190:	6b00003f 	cmp	w1, w0
   8c194:	54000e41 	b.ne	8c35c <CEcoVFB1VirtualDevice_AF252188_QueryInterface+0x768>  // b.any
   8c198:	f94013a0 	ldr	x0, [x29, #32]
   8c19c:	91001400 	add	x0, x0, #0x5
   8c1a0:	39400001 	ldrb	w1, [x0]
   8c1a4:	f00001e0 	adrp	x0, cb000 <BitFont+0xe10>
   8c1a8:	9107f400 	add	x0, x0, #0x1fd
   8c1ac:	39400000 	ldrb	w0, [x0]
   8c1b0:	6b00003f 	cmp	w1, w0
   8c1b4:	54000d41 	b.ne	8c35c <CEcoVFB1VirtualDevice_AF252188_QueryInterface+0x768>  // b.any
   8c1b8:	f94013a0 	ldr	x0, [x29, #32]
   8c1bc:	91001800 	add	x0, x0, #0x6
   8c1c0:	39400001 	ldrb	w1, [x0]
   8c1c4:	f00001e0 	adrp	x0, cb000 <BitFont+0xe10>
   8c1c8:	9107f800 	add	x0, x0, #0x1fe
   8c1cc:	39400000 	ldrb	w0, [x0]
   8c1d0:	6b00003f 	cmp	w1, w0
   8c1d4:	54000c41 	b.ne	8c35c <CEcoVFB1VirtualDevice_AF252188_QueryInterface+0x768>  // b.any
   8c1d8:	f94013a0 	ldr	x0, [x29, #32]
   8c1dc:	91001c00 	add	x0, x0, #0x7
   8c1e0:	39400001 	ldrb	w1, [x0]
   8c1e4:	f00001e0 	adrp	x0, cb000 <BitFont+0xe10>
   8c1e8:	9107fc00 	add	x0, x0, #0x1ff
   8c1ec:	39400000 	ldrb	w0, [x0]
   8c1f0:	6b00003f 	cmp	w1, w0
   8c1f4:	54000b41 	b.ne	8c35c <CEcoVFB1VirtualDevice_AF252188_QueryInterface+0x768>  // b.any
   8c1f8:	f94013a0 	ldr	x0, [x29, #32]
   8c1fc:	91002000 	add	x0, x0, #0x8
   8c200:	39400001 	ldrb	w1, [x0]
   8c204:	f00001e0 	adrp	x0, cb000 <BitFont+0xe10>
   8c208:	91080000 	add	x0, x0, #0x200
   8c20c:	39400000 	ldrb	w0, [x0]
   8c210:	6b00003f 	cmp	w1, w0
   8c214:	54000a41 	b.ne	8c35c <CEcoVFB1VirtualDevice_AF252188_QueryInterface+0x768>  // b.any
   8c218:	f94013a0 	ldr	x0, [x29, #32]
   8c21c:	91002400 	add	x0, x0, #0x9
   8c220:	39400001 	ldrb	w1, [x0]
   8c224:	f00001e0 	adrp	x0, cb000 <BitFont+0xe10>
   8c228:	91080400 	add	x0, x0, #0x201
   8c22c:	39400000 	ldrb	w0, [x0]
   8c230:	6b00003f 	cmp	w1, w0
   8c234:	54000941 	b.ne	8c35c <CEcoVFB1VirtualDevice_AF252188_QueryInterface+0x768>  // b.any
   8c238:	f94013a0 	ldr	x0, [x29, #32]
   8c23c:	91002800 	add	x0, x0, #0xa
   8c240:	39400001 	ldrb	w1, [x0]
   8c244:	f00001e0 	adrp	x0, cb000 <BitFont+0xe10>
   8c248:	91080800 	add	x0, x0, #0x202
   8c24c:	39400000 	ldrb	w0, [x0]
   8c250:	6b00003f 	cmp	w1, w0
   8c254:	54000841 	b.ne	8c35c <CEcoVFB1VirtualDevice_AF252188_QueryInterface+0x768>  // b.any
   8c258:	f94013a0 	ldr	x0, [x29, #32]
   8c25c:	91002c00 	add	x0, x0, #0xb
   8c260:	39400001 	ldrb	w1, [x0]
   8c264:	f00001e0 	adrp	x0, cb000 <BitFont+0xe10>
   8c268:	91080c00 	add	x0, x0, #0x203
   8c26c:	39400000 	ldrb	w0, [x0]
   8c270:	6b00003f 	cmp	w1, w0
   8c274:	54000741 	b.ne	8c35c <CEcoVFB1VirtualDevice_AF252188_QueryInterface+0x768>  // b.any
   8c278:	f94013a0 	ldr	x0, [x29, #32]
   8c27c:	91003000 	add	x0, x0, #0xc
   8c280:	39400001 	ldrb	w1, [x0]
   8c284:	f00001e0 	adrp	x0, cb000 <BitFont+0xe10>
   8c288:	91081000 	add	x0, x0, #0x204
   8c28c:	39400000 	ldrb	w0, [x0]
   8c290:	6b00003f 	cmp	w1, w0
   8c294:	54000641 	b.ne	8c35c <CEcoVFB1VirtualDevice_AF252188_QueryInterface+0x768>  // b.any
   8c298:	f94013a0 	ldr	x0, [x29, #32]
   8c29c:	91003400 	add	x0, x0, #0xd
   8c2a0:	39400001 	ldrb	w1, [x0]
   8c2a4:	f00001e0 	adrp	x0, cb000 <BitFont+0xe10>
   8c2a8:	91081400 	add	x0, x0, #0x205
   8c2ac:	39400000 	ldrb	w0, [x0]
   8c2b0:	6b00003f 	cmp	w1, w0
   8c2b4:	54000541 	b.ne	8c35c <CEcoVFB1VirtualDevice_AF252188_QueryInterface+0x768>  // b.any
   8c2b8:	f94013a0 	ldr	x0, [x29, #32]
   8c2bc:	91003800 	add	x0, x0, #0xe
   8c2c0:	39400001 	ldrb	w1, [x0]
   8c2c4:	f00001e0 	adrp	x0, cb000 <BitFont+0xe10>
   8c2c8:	91081800 	add	x0, x0, #0x206
   8c2cc:	39400000 	ldrb	w0, [x0]
   8c2d0:	6b00003f 	cmp	w1, w0
   8c2d4:	54000441 	b.ne	8c35c <CEcoVFB1VirtualDevice_AF252188_QueryInterface+0x768>  // b.any
   8c2d8:	f94013a0 	ldr	x0, [x29, #32]
   8c2dc:	91003c00 	add	x0, x0, #0xf
   8c2e0:	39400001 	ldrb	w1, [x0]
   8c2e4:	f00001e0 	adrp	x0, cb000 <BitFont+0xe10>
   8c2e8:	91081c00 	add	x0, x0, #0x207
   8c2ec:	39400000 	ldrb	w0, [x0]
   8c2f0:	6b00003f 	cmp	w1, w0
   8c2f4:	54000341 	b.ne	8c35c <CEcoVFB1VirtualDevice_AF252188_QueryInterface+0x768>  // b.any
   8c2f8:	f94013a0 	ldr	x0, [x29, #32]
   8c2fc:	91004000 	add	x0, x0, #0x10
   8c300:	39400001 	ldrb	w1, [x0]
   8c304:	f00001e0 	adrp	x0, cb000 <BitFont+0xe10>
   8c308:	91082000 	add	x0, x0, #0x208
   8c30c:	39400000 	ldrb	w0, [x0]
   8c310:	6b00003f 	cmp	w1, w0
   8c314:	54000241 	b.ne	8c35c <CEcoVFB1VirtualDevice_AF252188_QueryInterface+0x768>  // b.any
   8c318:	f94013a0 	ldr	x0, [x29, #32]
   8c31c:	91004400 	add	x0, x0, #0x11
   8c320:	39400001 	ldrb	w1, [x0]
   8c324:	f00001e0 	adrp	x0, cb000 <BitFont+0xe10>
   8c328:	91082400 	add	x0, x0, #0x209
   8c32c:	39400000 	ldrb	w0, [x0]
   8c330:	6b00003f 	cmp	w1, w0
   8c334:	54000141 	b.ne	8c35c <CEcoVFB1VirtualDevice_AF252188_QueryInterface+0x768>  // b.any
   8c338:	f9401fa1 	ldr	x1, [x29, #56]
   8c33c:	f9400fa0 	ldr	x0, [x29, #24]
   8c340:	f9000001 	str	x1, [x0]
   8c344:	f9401fa0 	ldr	x0, [x29, #56]
   8c348:	f9400000 	ldr	x0, [x0]
   8c34c:	f9400401 	ldr	x1, [x0, #8]
   8c350:	f9401fa0 	ldr	x0, [x29, #56]
   8c354:	d63f0020 	blr	x1
   8c358:	14000005 	b	8c36c <CEcoVFB1VirtualDevice_AF252188_QueryInterface+0x778>
   8c35c:	f9400fa0 	ldr	x0, [x29, #24]
   8c360:	f900001f 	str	xzr, [x0]
   8c364:	12800000 	mov	w0, #0xffffffff            	// #-1
   8c368:	14000002 	b	8c370 <CEcoVFB1VirtualDevice_AF252188_QueryInterface+0x77c>
   8c36c:	52800000 	mov	w0, #0x0                   	// #0
   8c370:	a8c47bfd 	ldp	x29, x30, [sp], #64
   8c374:	d65f03c0 	ret

000000000008c378 <CEcoVFB1VirtualDevice_AF252188_AddRef>:
   8c378:	d10083ff 	sub	sp, sp, #0x20
   8c37c:	f90007e0 	str	x0, [sp, #8]
   8c380:	f94007e0 	ldr	x0, [sp, #8]
   8c384:	f9000fe0 	str	x0, [sp, #24]
   8c388:	f94007e0 	ldr	x0, [sp, #8]
   8c38c:	f100001f 	cmp	x0, #0x0
   8c390:	54000061 	b.ne	8c39c <CEcoVFB1VirtualDevice_AF252188_AddRef+0x24>  // b.any
   8c394:	12800000 	mov	w0, #0xffffffff            	// #-1
   8c398:	14000008 	b	8c3b8 <CEcoVFB1VirtualDevice_AF252188_AddRef+0x40>
   8c39c:	f9400fe0 	ldr	x0, [sp, #24]
   8c3a0:	b9401000 	ldr	w0, [x0, #16]
   8c3a4:	11000401 	add	w1, w0, #0x1
   8c3a8:	f9400fe0 	ldr	x0, [sp, #24]
   8c3ac:	b9001001 	str	w1, [x0, #16]
   8c3b0:	f9400fe0 	ldr	x0, [sp, #24]
   8c3b4:	b9401000 	ldr	w0, [x0, #16]
   8c3b8:	910083ff 	add	sp, sp, #0x20
   8c3bc:	d65f03c0 	ret

000000000008c3c0 <CEcoVFB1VirtualDevice_AF252188_Release>:
   8c3c0:	a9bd7bfd 	stp	x29, x30, [sp, #-48]!
   8c3c4:	910003fd 	mov	x29, sp
   8c3c8:	f9000fa0 	str	x0, [x29, #24]
   8c3cc:	f9400fa0 	ldr	x0, [x29, #24]
   8c3d0:	f90017a0 	str	x0, [x29, #40]
   8c3d4:	f9400fa0 	ldr	x0, [x29, #24]
   8c3d8:	f100001f 	cmp	x0, #0x0
   8c3dc:	54000061 	b.ne	8c3e8 <CEcoVFB1VirtualDevice_AF252188_Release+0x28>  // b.any
   8c3e0:	12800000 	mov	w0, #0xffffffff            	// #-1
   8c3e4:	14000010 	b	8c424 <CEcoVFB1VirtualDevice_AF252188_Release+0x64>
   8c3e8:	f94017a0 	ldr	x0, [x29, #40]
   8c3ec:	b9401000 	ldr	w0, [x0, #16]
   8c3f0:	51000401 	sub	w1, w0, #0x1
   8c3f4:	f94017a0 	ldr	x0, [x29, #40]
   8c3f8:	b9001001 	str	w1, [x0, #16]
   8c3fc:	f94017a0 	ldr	x0, [x29, #40]
   8c400:	b9401000 	ldr	w0, [x0, #16]
   8c404:	7100001f 	cmp	w0, #0x0
   8c408:	540000a1 	b.ne	8c41c <CEcoVFB1VirtualDevice_AF252188_Release+0x5c>  // b.any
   8c40c:	f94017a0 	ldr	x0, [x29, #40]
   8c410:	94000355 	bl	8d164 <deleteCEcoVFB1VirtualDevice_AF252188>
   8c414:	52800000 	mov	w0, #0x0                   	// #0
   8c418:	14000003 	b	8c424 <CEcoVFB1VirtualDevice_AF252188_Release+0x64>
   8c41c:	f94017a0 	ldr	x0, [x29, #40]
   8c420:	b9401000 	ldr	w0, [x0, #16]
   8c424:	a8c37bfd 	ldp	x29, x30, [sp], #48
   8c428:	d65f03c0 	ret

000000000008c42c <CEcoVFB1VirtualDevice_AF252188_IEcoCGI1OneWayOutput_QueryInterface>:
   8c42c:	a9bc7bfd 	stp	x29, x30, [sp, #-64]!
   8c430:	910003fd 	mov	x29, sp
   8c434:	f90017a0 	str	x0, [x29, #40]
   8c438:	f90013a1 	str	x1, [x29, #32]
   8c43c:	f9000fa2 	str	x2, [x29, #24]
   8c440:	f94017a0 	ldr	x0, [x29, #40]
   8c444:	d1002000 	sub	x0, x0, #0x8
   8c448:	f9001fa0 	str	x0, [x29, #56]
   8c44c:	12800000 	mov	w0, #0xffffffff            	// #-1
   8c450:	79006fa0 	strh	w0, [x29, #54]
   8c454:	f94017a0 	ldr	x0, [x29, #40]
   8c458:	f100001f 	cmp	x0, #0x0
   8c45c:	54000080 	b.eq	8c46c <CEcoVFB1VirtualDevice_AF252188_IEcoCGI1OneWayOutput_QueryInterface+0x40>  // b.none
   8c460:	f9400fa0 	ldr	x0, [x29, #24]
   8c464:	f100001f 	cmp	x0, #0x0
   8c468:	54000061 	b.ne	8c474 <CEcoVFB1VirtualDevice_AF252188_IEcoCGI1OneWayOutput_QueryInterface+0x48>  // b.any
   8c46c:	79c06fa0 	ldrsh	w0, [x29, #54]
   8c470:	140001cf 	b	8cbac <CEcoVFB1VirtualDevice_AF252188_IEcoCGI1OneWayOutput_QueryInterface+0x780>
   8c474:	f94013a0 	ldr	x0, [x29, #32]
   8c478:	39400001 	ldrb	w1, [x0]
   8c47c:	f00001e0 	adrp	x0, cb000 <BitFont+0xe10>
   8c480:	910c0000 	add	x0, x0, #0x300
   8c484:	39400000 	ldrb	w0, [x0]
   8c488:	6b00003f 	cmp	w1, w0
   8c48c:	54001241 	b.ne	8c6d4 <CEcoVFB1VirtualDevice_AF252188_IEcoCGI1OneWayOutput_QueryInterface+0x2a8>  // b.any
   8c490:	f94013a0 	ldr	x0, [x29, #32]
   8c494:	91000400 	add	x0, x0, #0x1
   8c498:	39400001 	ldrb	w1, [x0]
   8c49c:	f00001e0 	adrp	x0, cb000 <BitFont+0xe10>
   8c4a0:	910c0400 	add	x0, x0, #0x301
   8c4a4:	39400000 	ldrb	w0, [x0]
   8c4a8:	6b00003f 	cmp	w1, w0
   8c4ac:	54001141 	b.ne	8c6d4 <CEcoVFB1VirtualDevice_AF252188_IEcoCGI1OneWayOutput_QueryInterface+0x2a8>  // b.any
   8c4b0:	f94013a0 	ldr	x0, [x29, #32]
   8c4b4:	91000800 	add	x0, x0, #0x2
   8c4b8:	39400001 	ldrb	w1, [x0]
   8c4bc:	f00001e0 	adrp	x0, cb000 <BitFont+0xe10>
   8c4c0:	910c0800 	add	x0, x0, #0x302
   8c4c4:	39400000 	ldrb	w0, [x0]
   8c4c8:	6b00003f 	cmp	w1, w0
   8c4cc:	54001041 	b.ne	8c6d4 <CEcoVFB1VirtualDevice_AF252188_IEcoCGI1OneWayOutput_QueryInterface+0x2a8>  // b.any
   8c4d0:	f94013a0 	ldr	x0, [x29, #32]
   8c4d4:	91000c00 	add	x0, x0, #0x3
   8c4d8:	39400001 	ldrb	w1, [x0]
   8c4dc:	f00001e0 	adrp	x0, cb000 <BitFont+0xe10>
   8c4e0:	910c0c00 	add	x0, x0, #0x303
   8c4e4:	39400000 	ldrb	w0, [x0]
   8c4e8:	6b00003f 	cmp	w1, w0
   8c4ec:	54000f41 	b.ne	8c6d4 <CEcoVFB1VirtualDevice_AF252188_IEcoCGI1OneWayOutput_QueryInterface+0x2a8>  // b.any
   8c4f0:	f94013a0 	ldr	x0, [x29, #32]
   8c4f4:	91001000 	add	x0, x0, #0x4
   8c4f8:	39400001 	ldrb	w1, [x0]
   8c4fc:	f00001e0 	adrp	x0, cb000 <BitFont+0xe10>
   8c500:	910c1000 	add	x0, x0, #0x304
   8c504:	39400000 	ldrb	w0, [x0]
   8c508:	6b00003f 	cmp	w1, w0
   8c50c:	54000e41 	b.ne	8c6d4 <CEcoVFB1VirtualDevice_AF252188_IEcoCGI1OneWayOutput_QueryInterface+0x2a8>  // b.any
   8c510:	f94013a0 	ldr	x0, [x29, #32]
   8c514:	91001400 	add	x0, x0, #0x5
   8c518:	39400001 	ldrb	w1, [x0]
   8c51c:	f00001e0 	adrp	x0, cb000 <BitFont+0xe10>
   8c520:	910c1400 	add	x0, x0, #0x305
   8c524:	39400000 	ldrb	w0, [x0]
   8c528:	6b00003f 	cmp	w1, w0
   8c52c:	54000d41 	b.ne	8c6d4 <CEcoVFB1VirtualDevice_AF252188_IEcoCGI1OneWayOutput_QueryInterface+0x2a8>  // b.any
   8c530:	f94013a0 	ldr	x0, [x29, #32]
   8c534:	91001800 	add	x0, x0, #0x6
   8c538:	39400001 	ldrb	w1, [x0]
   8c53c:	f00001e0 	adrp	x0, cb000 <BitFont+0xe10>
   8c540:	910c1800 	add	x0, x0, #0x306
   8c544:	39400000 	ldrb	w0, [x0]
   8c548:	6b00003f 	cmp	w1, w0
   8c54c:	54000c41 	b.ne	8c6d4 <CEcoVFB1VirtualDevice_AF252188_IEcoCGI1OneWayOutput_QueryInterface+0x2a8>  // b.any
   8c550:	f94013a0 	ldr	x0, [x29, #32]
   8c554:	91001c00 	add	x0, x0, #0x7
   8c558:	39400001 	ldrb	w1, [x0]
   8c55c:	f00001e0 	adrp	x0, cb000 <BitFont+0xe10>
   8c560:	910c1c00 	add	x0, x0, #0x307
   8c564:	39400000 	ldrb	w0, [x0]
   8c568:	6b00003f 	cmp	w1, w0
   8c56c:	54000b41 	b.ne	8c6d4 <CEcoVFB1VirtualDevice_AF252188_IEcoCGI1OneWayOutput_QueryInterface+0x2a8>  // b.any
   8c570:	f94013a0 	ldr	x0, [x29, #32]
   8c574:	91002000 	add	x0, x0, #0x8
   8c578:	39400001 	ldrb	w1, [x0]
   8c57c:	f00001e0 	adrp	x0, cb000 <BitFont+0xe10>
   8c580:	910c2000 	add	x0, x0, #0x308
   8c584:	39400000 	ldrb	w0, [x0]
   8c588:	6b00003f 	cmp	w1, w0
   8c58c:	54000a41 	b.ne	8c6d4 <CEcoVFB1VirtualDevice_AF252188_IEcoCGI1OneWayOutput_QueryInterface+0x2a8>  // b.any
   8c590:	f94013a0 	ldr	x0, [x29, #32]
   8c594:	91002400 	add	x0, x0, #0x9
   8c598:	39400001 	ldrb	w1, [x0]
   8c59c:	f00001e0 	adrp	x0, cb000 <BitFont+0xe10>
   8c5a0:	910c2400 	add	x0, x0, #0x309
   8c5a4:	39400000 	ldrb	w0, [x0]
   8c5a8:	6b00003f 	cmp	w1, w0
   8c5ac:	54000941 	b.ne	8c6d4 <CEcoVFB1VirtualDevice_AF252188_IEcoCGI1OneWayOutput_QueryInterface+0x2a8>  // b.any
   8c5b0:	f94013a0 	ldr	x0, [x29, #32]
   8c5b4:	91002800 	add	x0, x0, #0xa
   8c5b8:	39400001 	ldrb	w1, [x0]
   8c5bc:	f00001e0 	adrp	x0, cb000 <BitFont+0xe10>
   8c5c0:	910c2800 	add	x0, x0, #0x30a
   8c5c4:	39400000 	ldrb	w0, [x0]
   8c5c8:	6b00003f 	cmp	w1, w0
   8c5cc:	54000841 	b.ne	8c6d4 <CEcoVFB1VirtualDevice_AF252188_IEcoCGI1OneWayOutput_QueryInterface+0x2a8>  // b.any
   8c5d0:	f94013a0 	ldr	x0, [x29, #32]
   8c5d4:	91002c00 	add	x0, x0, #0xb
   8c5d8:	39400001 	ldrb	w1, [x0]
   8c5dc:	f00001e0 	adrp	x0, cb000 <BitFont+0xe10>
   8c5e0:	910c2c00 	add	x0, x0, #0x30b
   8c5e4:	39400000 	ldrb	w0, [x0]
   8c5e8:	6b00003f 	cmp	w1, w0
   8c5ec:	54000741 	b.ne	8c6d4 <CEcoVFB1VirtualDevice_AF252188_IEcoCGI1OneWayOutput_QueryInterface+0x2a8>  // b.any
   8c5f0:	f94013a0 	ldr	x0, [x29, #32]
   8c5f4:	91003000 	add	x0, x0, #0xc
   8c5f8:	39400001 	ldrb	w1, [x0]
   8c5fc:	f00001e0 	adrp	x0, cb000 <BitFont+0xe10>
   8c600:	910c3000 	add	x0, x0, #0x30c
   8c604:	39400000 	ldrb	w0, [x0]
   8c608:	6b00003f 	cmp	w1, w0
   8c60c:	54000641 	b.ne	8c6d4 <CEcoVFB1VirtualDevice_AF252188_IEcoCGI1OneWayOutput_QueryInterface+0x2a8>  // b.any
   8c610:	f94013a0 	ldr	x0, [x29, #32]
   8c614:	91003400 	add	x0, x0, #0xd
   8c618:	39400001 	ldrb	w1, [x0]
   8c61c:	f00001e0 	adrp	x0, cb000 <BitFont+0xe10>
   8c620:	910c3400 	add	x0, x0, #0x30d
   8c624:	39400000 	ldrb	w0, [x0]
   8c628:	6b00003f 	cmp	w1, w0
   8c62c:	54000541 	b.ne	8c6d4 <CEcoVFB1VirtualDevice_AF252188_IEcoCGI1OneWayOutput_QueryInterface+0x2a8>  // b.any
   8c630:	f94013a0 	ldr	x0, [x29, #32]
   8c634:	91003800 	add	x0, x0, #0xe
   8c638:	39400001 	ldrb	w1, [x0]
   8c63c:	f00001e0 	adrp	x0, cb000 <BitFont+0xe10>
   8c640:	910c3800 	add	x0, x0, #0x30e
   8c644:	39400000 	ldrb	w0, [x0]
   8c648:	6b00003f 	cmp	w1, w0
   8c64c:	54000441 	b.ne	8c6d4 <CEcoVFB1VirtualDevice_AF252188_IEcoCGI1OneWayOutput_QueryInterface+0x2a8>  // b.any
   8c650:	f94013a0 	ldr	x0, [x29, #32]
   8c654:	91003c00 	add	x0, x0, #0xf
   8c658:	39400001 	ldrb	w1, [x0]
   8c65c:	f00001e0 	adrp	x0, cb000 <BitFont+0xe10>
   8c660:	910c3c00 	add	x0, x0, #0x30f
   8c664:	39400000 	ldrb	w0, [x0]
   8c668:	6b00003f 	cmp	w1, w0
   8c66c:	54000341 	b.ne	8c6d4 <CEcoVFB1VirtualDevice_AF252188_IEcoCGI1OneWayOutput_QueryInterface+0x2a8>  // b.any
   8c670:	f94013a0 	ldr	x0, [x29, #32]
   8c674:	91004000 	add	x0, x0, #0x10
   8c678:	39400001 	ldrb	w1, [x0]
   8c67c:	f00001e0 	adrp	x0, cb000 <BitFont+0xe10>
   8c680:	910c4000 	add	x0, x0, #0x310
   8c684:	39400000 	ldrb	w0, [x0]
   8c688:	6b00003f 	cmp	w1, w0
   8c68c:	54000241 	b.ne	8c6d4 <CEcoVFB1VirtualDevice_AF252188_IEcoCGI1OneWayOutput_QueryInterface+0x2a8>  // b.any
   8c690:	f94013a0 	ldr	x0, [x29, #32]
   8c694:	91004400 	add	x0, x0, #0x11
   8c698:	39400001 	ldrb	w1, [x0]
   8c69c:	f00001e0 	adrp	x0, cb000 <BitFont+0xe10>
   8c6a0:	910c4400 	add	x0, x0, #0x311
   8c6a4:	39400000 	ldrb	w0, [x0]
   8c6a8:	6b00003f 	cmp	w1, w0
   8c6ac:	54000141 	b.ne	8c6d4 <CEcoVFB1VirtualDevice_AF252188_IEcoCGI1OneWayOutput_QueryInterface+0x2a8>  // b.any
   8c6b0:	f9401fa1 	ldr	x1, [x29, #56]
   8c6b4:	f9400fa0 	ldr	x0, [x29, #24]
   8c6b8:	f9000001 	str	x1, [x0]
   8c6bc:	f9401fa0 	ldr	x0, [x29, #56]
   8c6c0:	f9400000 	ldr	x0, [x0]
   8c6c4:	f9400401 	ldr	x1, [x0, #8]
   8c6c8:	f9401fa0 	ldr	x0, [x29, #56]
   8c6cc:	d63f0020 	blr	x1
   8c6d0:	14000136 	b	8cba8 <CEcoVFB1VirtualDevice_AF252188_IEcoCGI1OneWayOutput_QueryInterface+0x77c>
   8c6d4:	f94013a0 	ldr	x0, [x29, #32]
   8c6d8:	39400001 	ldrb	w1, [x0]
   8c6dc:	f00001e0 	adrp	x0, cb000 <BitFont+0xe10>
   8c6e0:	910c6000 	add	x0, x0, #0x318
   8c6e4:	39400000 	ldrb	w0, [x0]
   8c6e8:	6b00003f 	cmp	w1, w0
   8c6ec:	54001261 	b.ne	8c938 <CEcoVFB1VirtualDevice_AF252188_IEcoCGI1OneWayOutput_QueryInterface+0x50c>  // b.any
   8c6f0:	f94013a0 	ldr	x0, [x29, #32]
   8c6f4:	91000400 	add	x0, x0, #0x1
   8c6f8:	39400001 	ldrb	w1, [x0]
   8c6fc:	f00001e0 	adrp	x0, cb000 <BitFont+0xe10>
   8c700:	910c6400 	add	x0, x0, #0x319
   8c704:	39400000 	ldrb	w0, [x0]
   8c708:	6b00003f 	cmp	w1, w0
   8c70c:	54001161 	b.ne	8c938 <CEcoVFB1VirtualDevice_AF252188_IEcoCGI1OneWayOutput_QueryInterface+0x50c>  // b.any
   8c710:	f94013a0 	ldr	x0, [x29, #32]
   8c714:	91000800 	add	x0, x0, #0x2
   8c718:	39400001 	ldrb	w1, [x0]
   8c71c:	f00001e0 	adrp	x0, cb000 <BitFont+0xe10>
   8c720:	910c6800 	add	x0, x0, #0x31a
   8c724:	39400000 	ldrb	w0, [x0]
   8c728:	6b00003f 	cmp	w1, w0
   8c72c:	54001061 	b.ne	8c938 <CEcoVFB1VirtualDevice_AF252188_IEcoCGI1OneWayOutput_QueryInterface+0x50c>  // b.any
   8c730:	f94013a0 	ldr	x0, [x29, #32]
   8c734:	91000c00 	add	x0, x0, #0x3
   8c738:	39400001 	ldrb	w1, [x0]
   8c73c:	f00001e0 	adrp	x0, cb000 <BitFont+0xe10>
   8c740:	910c6c00 	add	x0, x0, #0x31b
   8c744:	39400000 	ldrb	w0, [x0]
   8c748:	6b00003f 	cmp	w1, w0
   8c74c:	54000f61 	b.ne	8c938 <CEcoVFB1VirtualDevice_AF252188_IEcoCGI1OneWayOutput_QueryInterface+0x50c>  // b.any
   8c750:	f94013a0 	ldr	x0, [x29, #32]
   8c754:	91001000 	add	x0, x0, #0x4
   8c758:	39400001 	ldrb	w1, [x0]
   8c75c:	f00001e0 	adrp	x0, cb000 <BitFont+0xe10>
   8c760:	910c7000 	add	x0, x0, #0x31c
   8c764:	39400000 	ldrb	w0, [x0]
   8c768:	6b00003f 	cmp	w1, w0
   8c76c:	54000e61 	b.ne	8c938 <CEcoVFB1VirtualDevice_AF252188_IEcoCGI1OneWayOutput_QueryInterface+0x50c>  // b.any
   8c770:	f94013a0 	ldr	x0, [x29, #32]
   8c774:	91001400 	add	x0, x0, #0x5
   8c778:	39400001 	ldrb	w1, [x0]
   8c77c:	f00001e0 	adrp	x0, cb000 <BitFont+0xe10>
   8c780:	910c7400 	add	x0, x0, #0x31d
   8c784:	39400000 	ldrb	w0, [x0]
   8c788:	6b00003f 	cmp	w1, w0
   8c78c:	54000d61 	b.ne	8c938 <CEcoVFB1VirtualDevice_AF252188_IEcoCGI1OneWayOutput_QueryInterface+0x50c>  // b.any
   8c790:	f94013a0 	ldr	x0, [x29, #32]
   8c794:	91001800 	add	x0, x0, #0x6
   8c798:	39400001 	ldrb	w1, [x0]
   8c79c:	f00001e0 	adrp	x0, cb000 <BitFont+0xe10>
   8c7a0:	910c7800 	add	x0, x0, #0x31e
   8c7a4:	39400000 	ldrb	w0, [x0]
   8c7a8:	6b00003f 	cmp	w1, w0
   8c7ac:	54000c61 	b.ne	8c938 <CEcoVFB1VirtualDevice_AF252188_IEcoCGI1OneWayOutput_QueryInterface+0x50c>  // b.any
   8c7b0:	f94013a0 	ldr	x0, [x29, #32]
   8c7b4:	91001c00 	add	x0, x0, #0x7
   8c7b8:	39400001 	ldrb	w1, [x0]
   8c7bc:	f00001e0 	adrp	x0, cb000 <BitFont+0xe10>
   8c7c0:	910c7c00 	add	x0, x0, #0x31f
   8c7c4:	39400000 	ldrb	w0, [x0]
   8c7c8:	6b00003f 	cmp	w1, w0
   8c7cc:	54000b61 	b.ne	8c938 <CEcoVFB1VirtualDevice_AF252188_IEcoCGI1OneWayOutput_QueryInterface+0x50c>  // b.any
   8c7d0:	f94013a0 	ldr	x0, [x29, #32]
   8c7d4:	91002000 	add	x0, x0, #0x8
   8c7d8:	39400001 	ldrb	w1, [x0]
   8c7dc:	f00001e0 	adrp	x0, cb000 <BitFont+0xe10>
   8c7e0:	910c8000 	add	x0, x0, #0x320
   8c7e4:	39400000 	ldrb	w0, [x0]
   8c7e8:	6b00003f 	cmp	w1, w0
   8c7ec:	54000a61 	b.ne	8c938 <CEcoVFB1VirtualDevice_AF252188_IEcoCGI1OneWayOutput_QueryInterface+0x50c>  // b.any
   8c7f0:	f94013a0 	ldr	x0, [x29, #32]
   8c7f4:	91002400 	add	x0, x0, #0x9
   8c7f8:	39400001 	ldrb	w1, [x0]
   8c7fc:	f00001e0 	adrp	x0, cb000 <BitFont+0xe10>
   8c800:	910c8400 	add	x0, x0, #0x321
   8c804:	39400000 	ldrb	w0, [x0]
   8c808:	6b00003f 	cmp	w1, w0
   8c80c:	54000961 	b.ne	8c938 <CEcoVFB1VirtualDevice_AF252188_IEcoCGI1OneWayOutput_QueryInterface+0x50c>  // b.any
   8c810:	f94013a0 	ldr	x0, [x29, #32]
   8c814:	91002800 	add	x0, x0, #0xa
   8c818:	39400001 	ldrb	w1, [x0]
   8c81c:	f00001e0 	adrp	x0, cb000 <BitFont+0xe10>
   8c820:	910c8800 	add	x0, x0, #0x322
   8c824:	39400000 	ldrb	w0, [x0]
   8c828:	6b00003f 	cmp	w1, w0
   8c82c:	54000861 	b.ne	8c938 <CEcoVFB1VirtualDevice_AF252188_IEcoCGI1OneWayOutput_QueryInterface+0x50c>  // b.any
   8c830:	f94013a0 	ldr	x0, [x29, #32]
   8c834:	91002c00 	add	x0, x0, #0xb
   8c838:	39400001 	ldrb	w1, [x0]
   8c83c:	f00001e0 	adrp	x0, cb000 <BitFont+0xe10>
   8c840:	910c8c00 	add	x0, x0, #0x323
   8c844:	39400000 	ldrb	w0, [x0]
   8c848:	6b00003f 	cmp	w1, w0
   8c84c:	54000761 	b.ne	8c938 <CEcoVFB1VirtualDevice_AF252188_IEcoCGI1OneWayOutput_QueryInterface+0x50c>  // b.any
   8c850:	f94013a0 	ldr	x0, [x29, #32]
   8c854:	91003000 	add	x0, x0, #0xc
   8c858:	39400001 	ldrb	w1, [x0]
   8c85c:	f00001e0 	adrp	x0, cb000 <BitFont+0xe10>
   8c860:	910c9000 	add	x0, x0, #0x324
   8c864:	39400000 	ldrb	w0, [x0]
   8c868:	6b00003f 	cmp	w1, w0
   8c86c:	54000661 	b.ne	8c938 <CEcoVFB1VirtualDevice_AF252188_IEcoCGI1OneWayOutput_QueryInterface+0x50c>  // b.any
   8c870:	f94013a0 	ldr	x0, [x29, #32]
   8c874:	91003400 	add	x0, x0, #0xd
   8c878:	39400001 	ldrb	w1, [x0]
   8c87c:	f00001e0 	adrp	x0, cb000 <BitFont+0xe10>
   8c880:	910c9400 	add	x0, x0, #0x325
   8c884:	39400000 	ldrb	w0, [x0]
   8c888:	6b00003f 	cmp	w1, w0
   8c88c:	54000561 	b.ne	8c938 <CEcoVFB1VirtualDevice_AF252188_IEcoCGI1OneWayOutput_QueryInterface+0x50c>  // b.any
   8c890:	f94013a0 	ldr	x0, [x29, #32]
   8c894:	91003800 	add	x0, x0, #0xe
   8c898:	39400001 	ldrb	w1, [x0]
   8c89c:	f00001e0 	adrp	x0, cb000 <BitFont+0xe10>
   8c8a0:	910c9800 	add	x0, x0, #0x326
   8c8a4:	39400000 	ldrb	w0, [x0]
   8c8a8:	6b00003f 	cmp	w1, w0
   8c8ac:	54000461 	b.ne	8c938 <CEcoVFB1VirtualDevice_AF252188_IEcoCGI1OneWayOutput_QueryInterface+0x50c>  // b.any
   8c8b0:	f94013a0 	ldr	x0, [x29, #32]
   8c8b4:	91003c00 	add	x0, x0, #0xf
   8c8b8:	39400001 	ldrb	w1, [x0]
   8c8bc:	f00001e0 	adrp	x0, cb000 <BitFont+0xe10>
   8c8c0:	910c9c00 	add	x0, x0, #0x327
   8c8c4:	39400000 	ldrb	w0, [x0]
   8c8c8:	6b00003f 	cmp	w1, w0
   8c8cc:	54000361 	b.ne	8c938 <CEcoVFB1VirtualDevice_AF252188_IEcoCGI1OneWayOutput_QueryInterface+0x50c>  // b.any
   8c8d0:	f94013a0 	ldr	x0, [x29, #32]
   8c8d4:	91004000 	add	x0, x0, #0x10
   8c8d8:	39400001 	ldrb	w1, [x0]
   8c8dc:	f00001e0 	adrp	x0, cb000 <BitFont+0xe10>
   8c8e0:	910ca000 	add	x0, x0, #0x328
   8c8e4:	39400000 	ldrb	w0, [x0]
   8c8e8:	6b00003f 	cmp	w1, w0
   8c8ec:	54000261 	b.ne	8c938 <CEcoVFB1VirtualDevice_AF252188_IEcoCGI1OneWayOutput_QueryInterface+0x50c>  // b.any
   8c8f0:	f94013a0 	ldr	x0, [x29, #32]
   8c8f4:	91004400 	add	x0, x0, #0x11
   8c8f8:	39400001 	ldrb	w1, [x0]
   8c8fc:	f00001e0 	adrp	x0, cb000 <BitFont+0xe10>
   8c900:	910ca400 	add	x0, x0, #0x329
   8c904:	39400000 	ldrb	w0, [x0]
   8c908:	6b00003f 	cmp	w1, w0
   8c90c:	54000161 	b.ne	8c938 <CEcoVFB1VirtualDevice_AF252188_IEcoCGI1OneWayOutput_QueryInterface+0x50c>  // b.any
   8c910:	f9401fa0 	ldr	x0, [x29, #56]
   8c914:	91002001 	add	x1, x0, #0x8
   8c918:	f9400fa0 	ldr	x0, [x29, #24]
   8c91c:	f9000001 	str	x1, [x0]
   8c920:	f9401fa0 	ldr	x0, [x29, #56]
   8c924:	f9400000 	ldr	x0, [x0]
   8c928:	f9400401 	ldr	x1, [x0, #8]
   8c92c:	f9401fa0 	ldr	x0, [x29, #56]
   8c930:	d63f0020 	blr	x1
   8c934:	1400009d 	b	8cba8 <CEcoVFB1VirtualDevice_AF252188_IEcoCGI1OneWayOutput_QueryInterface+0x77c>
   8c938:	f94013a0 	ldr	x0, [x29, #32]
   8c93c:	39400001 	ldrb	w1, [x0]
   8c940:	f00001e0 	adrp	x0, cb000 <BitFont+0xe10>
   8c944:	9107e000 	add	x0, x0, #0x1f8
   8c948:	39400000 	ldrb	w0, [x0]
   8c94c:	6b00003f 	cmp	w1, w0
   8c950:	54001241 	b.ne	8cb98 <CEcoVFB1VirtualDevice_AF252188_IEcoCGI1OneWayOutput_QueryInterface+0x76c>  // b.any
   8c954:	f94013a0 	ldr	x0, [x29, #32]
   8c958:	91000400 	add	x0, x0, #0x1
   8c95c:	39400001 	ldrb	w1, [x0]
   8c960:	f00001e0 	adrp	x0, cb000 <BitFont+0xe10>
   8c964:	9107e400 	add	x0, x0, #0x1f9
   8c968:	39400000 	ldrb	w0, [x0]
   8c96c:	6b00003f 	cmp	w1, w0
   8c970:	54001141 	b.ne	8cb98 <CEcoVFB1VirtualDevice_AF252188_IEcoCGI1OneWayOutput_QueryInterface+0x76c>  // b.any
   8c974:	f94013a0 	ldr	x0, [x29, #32]
   8c978:	91000800 	add	x0, x0, #0x2
   8c97c:	39400001 	ldrb	w1, [x0]
   8c980:	f00001e0 	adrp	x0, cb000 <BitFont+0xe10>
   8c984:	9107e800 	add	x0, x0, #0x1fa
   8c988:	39400000 	ldrb	w0, [x0]
   8c98c:	6b00003f 	cmp	w1, w0
   8c990:	54001041 	b.ne	8cb98 <CEcoVFB1VirtualDevice_AF252188_IEcoCGI1OneWayOutput_QueryInterface+0x76c>  // b.any
   8c994:	f94013a0 	ldr	x0, [x29, #32]
   8c998:	91000c00 	add	x0, x0, #0x3
   8c99c:	39400001 	ldrb	w1, [x0]
   8c9a0:	f00001e0 	adrp	x0, cb000 <BitFont+0xe10>
   8c9a4:	9107ec00 	add	x0, x0, #0x1fb
   8c9a8:	39400000 	ldrb	w0, [x0]
   8c9ac:	6b00003f 	cmp	w1, w0
   8c9b0:	54000f41 	b.ne	8cb98 <CEcoVFB1VirtualDevice_AF252188_IEcoCGI1OneWayOutput_QueryInterface+0x76c>  // b.any
   8c9b4:	f94013a0 	ldr	x0, [x29, #32]
   8c9b8:	91001000 	add	x0, x0, #0x4
   8c9bc:	39400001 	ldrb	w1, [x0]
   8c9c0:	f00001e0 	adrp	x0, cb000 <BitFont+0xe10>
   8c9c4:	9107f000 	add	x0, x0, #0x1fc
   8c9c8:	39400000 	ldrb	w0, [x0]
   8c9cc:	6b00003f 	cmp	w1, w0
   8c9d0:	54000e41 	b.ne	8cb98 <CEcoVFB1VirtualDevice_AF252188_IEcoCGI1OneWayOutput_QueryInterface+0x76c>  // b.any
   8c9d4:	f94013a0 	ldr	x0, [x29, #32]
   8c9d8:	91001400 	add	x0, x0, #0x5
   8c9dc:	39400001 	ldrb	w1, [x0]
   8c9e0:	f00001e0 	adrp	x0, cb000 <BitFont+0xe10>
   8c9e4:	9107f400 	add	x0, x0, #0x1fd
   8c9e8:	39400000 	ldrb	w0, [x0]
   8c9ec:	6b00003f 	cmp	w1, w0
   8c9f0:	54000d41 	b.ne	8cb98 <CEcoVFB1VirtualDevice_AF252188_IEcoCGI1OneWayOutput_QueryInterface+0x76c>  // b.any
   8c9f4:	f94013a0 	ldr	x0, [x29, #32]
   8c9f8:	91001800 	add	x0, x0, #0x6
   8c9fc:	39400001 	ldrb	w1, [x0]
   8ca00:	f00001e0 	adrp	x0, cb000 <BitFont+0xe10>
   8ca04:	9107f800 	add	x0, x0, #0x1fe
   8ca08:	39400000 	ldrb	w0, [x0]
   8ca0c:	6b00003f 	cmp	w1, w0
   8ca10:	54000c41 	b.ne	8cb98 <CEcoVFB1VirtualDevice_AF252188_IEcoCGI1OneWayOutput_QueryInterface+0x76c>  // b.any
   8ca14:	f94013a0 	ldr	x0, [x29, #32]
   8ca18:	91001c00 	add	x0, x0, #0x7
   8ca1c:	39400001 	ldrb	w1, [x0]
   8ca20:	f00001e0 	adrp	x0, cb000 <BitFont+0xe10>
   8ca24:	9107fc00 	add	x0, x0, #0x1ff
   8ca28:	39400000 	ldrb	w0, [x0]
   8ca2c:	6b00003f 	cmp	w1, w0
   8ca30:	54000b41 	b.ne	8cb98 <CEcoVFB1VirtualDevice_AF252188_IEcoCGI1OneWayOutput_QueryInterface+0x76c>  // b.any
   8ca34:	f94013a0 	ldr	x0, [x29, #32]
   8ca38:	91002000 	add	x0, x0, #0x8
   8ca3c:	39400001 	ldrb	w1, [x0]
   8ca40:	f00001e0 	adrp	x0, cb000 <BitFont+0xe10>
   8ca44:	91080000 	add	x0, x0, #0x200
   8ca48:	39400000 	ldrb	w0, [x0]
   8ca4c:	6b00003f 	cmp	w1, w0
   8ca50:	54000a41 	b.ne	8cb98 <CEcoVFB1VirtualDevice_AF252188_IEcoCGI1OneWayOutput_QueryInterface+0x76c>  // b.any
   8ca54:	f94013a0 	ldr	x0, [x29, #32]
   8ca58:	91002400 	add	x0, x0, #0x9
   8ca5c:	39400001 	ldrb	w1, [x0]
   8ca60:	f00001e0 	adrp	x0, cb000 <BitFont+0xe10>
   8ca64:	91080400 	add	x0, x0, #0x201
   8ca68:	39400000 	ldrb	w0, [x0]
   8ca6c:	6b00003f 	cmp	w1, w0
   8ca70:	54000941 	b.ne	8cb98 <CEcoVFB1VirtualDevice_AF252188_IEcoCGI1OneWayOutput_QueryInterface+0x76c>  // b.any
   8ca74:	f94013a0 	ldr	x0, [x29, #32]
   8ca78:	91002800 	add	x0, x0, #0xa
   8ca7c:	39400001 	ldrb	w1, [x0]
   8ca80:	f00001e0 	adrp	x0, cb000 <BitFont+0xe10>
   8ca84:	91080800 	add	x0, x0, #0x202
   8ca88:	39400000 	ldrb	w0, [x0]
   8ca8c:	6b00003f 	cmp	w1, w0
   8ca90:	54000841 	b.ne	8cb98 <CEcoVFB1VirtualDevice_AF252188_IEcoCGI1OneWayOutput_QueryInterface+0x76c>  // b.any
   8ca94:	f94013a0 	ldr	x0, [x29, #32]
   8ca98:	91002c00 	add	x0, x0, #0xb
   8ca9c:	39400001 	ldrb	w1, [x0]
   8caa0:	f00001e0 	adrp	x0, cb000 <BitFont+0xe10>
   8caa4:	91080c00 	add	x0, x0, #0x203
   8caa8:	39400000 	ldrb	w0, [x0]
   8caac:	6b00003f 	cmp	w1, w0
   8cab0:	54000741 	b.ne	8cb98 <CEcoVFB1VirtualDevice_AF252188_IEcoCGI1OneWayOutput_QueryInterface+0x76c>  // b.any
   8cab4:	f94013a0 	ldr	x0, [x29, #32]
   8cab8:	91003000 	add	x0, x0, #0xc
   8cabc:	39400001 	ldrb	w1, [x0]
   8cac0:	f00001e0 	adrp	x0, cb000 <BitFont+0xe10>
   8cac4:	91081000 	add	x0, x0, #0x204
   8cac8:	39400000 	ldrb	w0, [x0]
   8cacc:	6b00003f 	cmp	w1, w0
   8cad0:	54000641 	b.ne	8cb98 <CEcoVFB1VirtualDevice_AF252188_IEcoCGI1OneWayOutput_QueryInterface+0x76c>  // b.any
   8cad4:	f94013a0 	ldr	x0, [x29, #32]
   8cad8:	91003400 	add	x0, x0, #0xd
   8cadc:	39400001 	ldrb	w1, [x0]
   8cae0:	f00001e0 	adrp	x0, cb000 <BitFont+0xe10>
   8cae4:	91081400 	add	x0, x0, #0x205
   8cae8:	39400000 	ldrb	w0, [x0]
   8caec:	6b00003f 	cmp	w1, w0
   8caf0:	54000541 	b.ne	8cb98 <CEcoVFB1VirtualDevice_AF252188_IEcoCGI1OneWayOutput_QueryInterface+0x76c>  // b.any
   8caf4:	f94013a0 	ldr	x0, [x29, #32]
   8caf8:	91003800 	add	x0, x0, #0xe
   8cafc:	39400001 	ldrb	w1, [x0]
   8cb00:	f00001e0 	adrp	x0, cb000 <BitFont+0xe10>
   8cb04:	91081800 	add	x0, x0, #0x206
   8cb08:	39400000 	ldrb	w0, [x0]
   8cb0c:	6b00003f 	cmp	w1, w0
   8cb10:	54000441 	b.ne	8cb98 <CEcoVFB1VirtualDevice_AF252188_IEcoCGI1OneWayOutput_QueryInterface+0x76c>  // b.any
   8cb14:	f94013a0 	ldr	x0, [x29, #32]
   8cb18:	91003c00 	add	x0, x0, #0xf
   8cb1c:	39400001 	ldrb	w1, [x0]
   8cb20:	f00001e0 	adrp	x0, cb000 <BitFont+0xe10>
   8cb24:	91081c00 	add	x0, x0, #0x207
   8cb28:	39400000 	ldrb	w0, [x0]
   8cb2c:	6b00003f 	cmp	w1, w0
   8cb30:	54000341 	b.ne	8cb98 <CEcoVFB1VirtualDevice_AF252188_IEcoCGI1OneWayOutput_QueryInterface+0x76c>  // b.any
   8cb34:	f94013a0 	ldr	x0, [x29, #32]
   8cb38:	91004000 	add	x0, x0, #0x10
   8cb3c:	39400001 	ldrb	w1, [x0]
   8cb40:	f00001e0 	adrp	x0, cb000 <BitFont+0xe10>
   8cb44:	91082000 	add	x0, x0, #0x208
   8cb48:	39400000 	ldrb	w0, [x0]
   8cb4c:	6b00003f 	cmp	w1, w0
   8cb50:	54000241 	b.ne	8cb98 <CEcoVFB1VirtualDevice_AF252188_IEcoCGI1OneWayOutput_QueryInterface+0x76c>  // b.any
   8cb54:	f94013a0 	ldr	x0, [x29, #32]
   8cb58:	91004400 	add	x0, x0, #0x11
   8cb5c:	39400001 	ldrb	w1, [x0]
   8cb60:	f00001e0 	adrp	x0, cb000 <BitFont+0xe10>
   8cb64:	91082400 	add	x0, x0, #0x209
   8cb68:	39400000 	ldrb	w0, [x0]
   8cb6c:	6b00003f 	cmp	w1, w0
   8cb70:	54000141 	b.ne	8cb98 <CEcoVFB1VirtualDevice_AF252188_IEcoCGI1OneWayOutput_QueryInterface+0x76c>  // b.any
   8cb74:	f9401fa1 	ldr	x1, [x29, #56]
   8cb78:	f9400fa0 	ldr	x0, [x29, #24]
   8cb7c:	f9000001 	str	x1, [x0]
   8cb80:	f9401fa0 	ldr	x0, [x29, #56]
   8cb84:	f9400000 	ldr	x0, [x0]
   8cb88:	f9400401 	ldr	x1, [x0, #8]
   8cb8c:	f9401fa0 	ldr	x0, [x29, #56]
   8cb90:	d63f0020 	blr	x1
   8cb94:	14000005 	b	8cba8 <CEcoVFB1VirtualDevice_AF252188_IEcoCGI1OneWayOutput_QueryInterface+0x77c>
   8cb98:	f9400fa0 	ldr	x0, [x29, #24]
   8cb9c:	f900001f 	str	xzr, [x0]
   8cba0:	12800000 	mov	w0, #0xffffffff            	// #-1
   8cba4:	14000002 	b	8cbac <CEcoVFB1VirtualDevice_AF252188_IEcoCGI1OneWayOutput_QueryInterface+0x780>
   8cba8:	52800000 	mov	w0, #0x0                   	// #0
   8cbac:	a8c47bfd 	ldp	x29, x30, [sp], #64
   8cbb0:	d65f03c0 	ret

000000000008cbb4 <CEcoVFB1VirtualDevice_AF252188_IEcoCGI1OneWayOutput_AddRef>:
   8cbb4:	d10083ff 	sub	sp, sp, #0x20
   8cbb8:	f90007e0 	str	x0, [sp, #8]
   8cbbc:	f94007e0 	ldr	x0, [sp, #8]
   8cbc0:	d1002000 	sub	x0, x0, #0x8
   8cbc4:	f9000fe0 	str	x0, [sp, #24]
   8cbc8:	f94007e0 	ldr	x0, [sp, #8]
   8cbcc:	f100001f 	cmp	x0, #0x0
   8cbd0:	54000061 	b.ne	8cbdc <CEcoVFB1VirtualDevice_AF252188_IEcoCGI1OneWayOutput_AddRef+0x28>  // b.any
   8cbd4:	12800000 	mov	w0, #0xffffffff            	// #-1
   8cbd8:	14000008 	b	8cbf8 <CEcoVFB1VirtualDevice_AF252188_IEcoCGI1OneWayOutput_AddRef+0x44>
   8cbdc:	f9400fe0 	ldr	x0, [sp, #24]
   8cbe0:	b9401000 	ldr	w0, [x0, #16]
   8cbe4:	11000401 	add	w1, w0, #0x1
   8cbe8:	f9400fe0 	ldr	x0, [sp, #24]
   8cbec:	b9001001 	str	w1, [x0, #16]
   8cbf0:	f9400fe0 	ldr	x0, [sp, #24]
   8cbf4:	b9401000 	ldr	w0, [x0, #16]
   8cbf8:	910083ff 	add	sp, sp, #0x20
   8cbfc:	d65f03c0 	ret

000000000008cc00 <CEcoVFB1VirtualDevice_AF252188_IEcoCGI1OneWayOutput_Release>:
   8cc00:	a9bd7bfd 	stp	x29, x30, [sp, #-48]!
   8cc04:	910003fd 	mov	x29, sp
   8cc08:	f9000fa0 	str	x0, [x29, #24]
   8cc0c:	f9400fa0 	ldr	x0, [x29, #24]
   8cc10:	d1002000 	sub	x0, x0, #0x8
   8cc14:	f90017a0 	str	x0, [x29, #40]
   8cc18:	f9400fa0 	ldr	x0, [x29, #24]
   8cc1c:	f100001f 	cmp	x0, #0x0
   8cc20:	54000061 	b.ne	8cc2c <CEcoVFB1VirtualDevice_AF252188_IEcoCGI1OneWayOutput_Release+0x2c>  // b.any
   8cc24:	12800000 	mov	w0, #0xffffffff            	// #-1
   8cc28:	14000010 	b	8cc68 <CEcoVFB1VirtualDevice_AF252188_IEcoCGI1OneWayOutput_Release+0x68>
   8cc2c:	f94017a0 	ldr	x0, [x29, #40]
   8cc30:	b9401000 	ldr	w0, [x0, #16]
   8cc34:	51000401 	sub	w1, w0, #0x1
   8cc38:	f94017a0 	ldr	x0, [x29, #40]
   8cc3c:	b9001001 	str	w1, [x0, #16]
   8cc40:	f94017a0 	ldr	x0, [x29, #40]
   8cc44:	b9401000 	ldr	w0, [x0, #16]
   8cc48:	7100001f 	cmp	w0, #0x0
   8cc4c:	540000a1 	b.ne	8cc60 <CEcoVFB1VirtualDevice_AF252188_IEcoCGI1OneWayOutput_Release+0x60>  // b.any
   8cc50:	f94017a0 	ldr	x0, [x29, #40]
   8cc54:	94000144 	bl	8d164 <deleteCEcoVFB1VirtualDevice_AF252188>
   8cc58:	52800000 	mov	w0, #0x0                   	// #0
   8cc5c:	14000003 	b	8cc68 <CEcoVFB1VirtualDevice_AF252188_IEcoCGI1OneWayOutput_Release+0x68>
   8cc60:	f94017a0 	ldr	x0, [x29, #40]
   8cc64:	b9401000 	ldr	w0, [x0, #16]
   8cc68:	a8c37bfd 	ldp	x29, x30, [sp], #48
   8cc6c:	d65f03c0 	ret

000000000008cc70 <CEcoVFB1VirtualDevice_AF252188_IEcoCGI1OneWayOutput_Initialize>:
   8cc70:	d10083ff 	sub	sp, sp, #0x20
   8cc74:	f90007e0 	str	x0, [sp, #8]
   8cc78:	f94007e0 	ldr	x0, [sp, #8]
   8cc7c:	d1002000 	sub	x0, x0, #0x8
   8cc80:	f9000fe0 	str	x0, [sp, #24]
   8cc84:	f94007e0 	ldr	x0, [sp, #8]
   8cc88:	f100001f 	cmp	x0, #0x0
   8cc8c:	54000061 	b.ne	8cc98 <CEcoVFB1VirtualDevice_AF252188_IEcoCGI1OneWayOutput_Initialize+0x28>  // b.any
   8cc90:	12800000 	mov	w0, #0xffffffff            	// #-1
   8cc94:	14000002 	b	8cc9c <CEcoVFB1VirtualDevice_AF252188_IEcoCGI1OneWayOutput_Initialize+0x2c>
   8cc98:	52800000 	mov	w0, #0x0                   	// #0
   8cc9c:	910083ff 	add	sp, sp, #0x20
   8cca0:	d65f03c0 	ret

000000000008cca4 <CEcoVFB1VirtualDevice_AF252188_IEcoCGI1OneWayOutput_Terminate>:
   8cca4:	d10083ff 	sub	sp, sp, #0x20
   8cca8:	f90007e0 	str	x0, [sp, #8]
   8ccac:	f94007e0 	ldr	x0, [sp, #8]
   8ccb0:	d1002000 	sub	x0, x0, #0x8
   8ccb4:	f9000fe0 	str	x0, [sp, #24]
   8ccb8:	f94007e0 	ldr	x0, [sp, #8]
   8ccbc:	f100001f 	cmp	x0, #0x0
   8ccc0:	54000061 	b.ne	8cccc <CEcoVFB1VirtualDevice_AF252188_IEcoCGI1OneWayOutput_Terminate+0x28>  // b.any
   8ccc4:	12800000 	mov	w0, #0xffffffff            	// #-1
   8ccc8:	14000002 	b	8ccd0 <CEcoVFB1VirtualDevice_AF252188_IEcoCGI1OneWayOutput_Terminate+0x2c>
   8cccc:	52800000 	mov	w0, #0x0                   	// #0
   8ccd0:	910083ff 	add	sp, sp, #0x20
   8ccd4:	d65f03c0 	ret

000000000008ccd8 <CEcoVFB1VirtualDevice_AF252188_IEcoCGI1OneWayOutput_PrepareDrawingSurface>:
   8ccd8:	d10083ff 	sub	sp, sp, #0x20
   8ccdc:	f90007e0 	str	x0, [sp, #8]
   8cce0:	b90007e1 	str	w1, [sp, #4]
   8cce4:	f94007e0 	ldr	x0, [sp, #8]
   8cce8:	d1002000 	sub	x0, x0, #0x8
   8ccec:	f9000fe0 	str	x0, [sp, #24]
   8ccf0:	f94007e0 	ldr	x0, [sp, #8]
   8ccf4:	f100001f 	cmp	x0, #0x0
   8ccf8:	54000061 	b.ne	8cd04 <CEcoVFB1VirtualDevice_AF252188_IEcoCGI1OneWayOutput_PrepareDrawingSurface+0x2c>  // b.any
   8ccfc:	12800000 	mov	w0, #0xffffffff            	// #-1
   8cd00:	14000002 	b	8cd08 <CEcoVFB1VirtualDevice_AF252188_IEcoCGI1OneWayOutput_PrepareDrawingSurface+0x30>
   8cd04:	52800000 	mov	w0, #0x0                   	// #0
   8cd08:	910083ff 	add	sp, sp, #0x20
   8cd0c:	d65f03c0 	ret

000000000008cd10 <CEcoVFB1VirtualDevice_AF252188_IEcoCGI1OneWayOutput_ExecuteDeferredActions>:
   8cd10:	d10083ff 	sub	sp, sp, #0x20
   8cd14:	f90007e0 	str	x0, [sp, #8]
   8cd18:	f94007e0 	ldr	x0, [sp, #8]
   8cd1c:	d1002000 	sub	x0, x0, #0x8
   8cd20:	f9000fe0 	str	x0, [sp, #24]
   8cd24:	f94007e0 	ldr	x0, [sp, #8]
   8cd28:	f100001f 	cmp	x0, #0x0
   8cd2c:	54000061 	b.ne	8cd38 <CEcoVFB1VirtualDevice_AF252188_IEcoCGI1OneWayOutput_ExecuteDeferredActions+0x28>  // b.any
   8cd30:	12800000 	mov	w0, #0xffffffff            	// #-1
   8cd34:	14000002 	b	8cd3c <CEcoVFB1VirtualDevice_AF252188_IEcoCGI1OneWayOutput_ExecuteDeferredActions+0x2c>
   8cd38:	52800000 	mov	w0, #0x0                   	// #0
   8cd3c:	910083ff 	add	sp, sp, #0x20
   8cd40:	d65f03c0 	ret

000000000008cd44 <CEcoVFB1VirtualDevice_AF252188_IEcoCGI1OneWayOutput_EndPage>:
   8cd44:	d10083ff 	sub	sp, sp, #0x20
   8cd48:	f90007e0 	str	x0, [sp, #8]
   8cd4c:	f94007e0 	ldr	x0, [sp, #8]
   8cd50:	d1002000 	sub	x0, x0, #0x8
   8cd54:	f9000fe0 	str	x0, [sp, #24]
   8cd58:	f94007e0 	ldr	x0, [sp, #8]
   8cd5c:	f100001f 	cmp	x0, #0x0
   8cd60:	54000061 	b.ne	8cd6c <CEcoVFB1VirtualDevice_AF252188_IEcoCGI1OneWayOutput_EndPage+0x28>  // b.any
   8cd64:	12800000 	mov	w0, #0xffffffff            	// #-1
   8cd68:	14000002 	b	8cd70 <CEcoVFB1VirtualDevice_AF252188_IEcoCGI1OneWayOutput_EndPage+0x2c>
   8cd6c:	52800000 	mov	w0, #0x0                   	// #0
   8cd70:	910083ff 	add	sp, sp, #0x20
   8cd74:	d65f03c0 	ret

000000000008cd78 <CEcoVFB1VirtualDevice_AF252188_IEcoCGI1OneWayOutput_VDCExtent>:
   8cd78:	d10103ff 	sub	sp, sp, #0x40
   8cd7c:	f90017e0 	str	x0, [sp, #40]
   8cd80:	aa0103e5 	mov	x5, x1
   8cd84:	aa0303e1 	mov	x1, x3
   8cd88:	aa0403e0 	mov	x0, x4
   8cd8c:	f9000fe5 	str	x5, [sp, #24]
   8cd90:	f90013e2 	str	x2, [sp, #32]
   8cd94:	f90007e1 	str	x1, [sp, #8]
   8cd98:	f9000be0 	str	x0, [sp, #16]
   8cd9c:	f94017e0 	ldr	x0, [sp, #40]
   8cda0:	d1002000 	sub	x0, x0, #0x8
   8cda4:	f9001fe0 	str	x0, [sp, #56]
   8cda8:	f94017e0 	ldr	x0, [sp, #40]
   8cdac:	f100001f 	cmp	x0, #0x0
   8cdb0:	54000061 	b.ne	8cdbc <CEcoVFB1VirtualDevice_AF252188_IEcoCGI1OneWayOutput_VDCExtent+0x44>  // b.any
   8cdb4:	12800000 	mov	w0, #0xffffffff            	// #-1
   8cdb8:	14000002 	b	8cdc0 <CEcoVFB1VirtualDevice_AF252188_IEcoCGI1OneWayOutput_VDCExtent+0x48>
   8cdbc:	52800000 	mov	w0, #0x0                   	// #0
   8cdc0:	910103ff 	add	sp, sp, #0x40
   8cdc4:	d65f03c0 	ret

000000000008cdc8 <CEcoVFB1VirtualDevice_AF252188_IEcoCGI1OneWayOutput_DeviceViewport>:
   8cdc8:	d100c3ff 	sub	sp, sp, #0x30
   8cdcc:	f9000fe0 	str	x0, [sp, #24]
   8cdd0:	f9000be1 	str	x1, [sp, #16]
   8cdd4:	f90007e2 	str	x2, [sp, #8]
   8cdd8:	f9400fe0 	ldr	x0, [sp, #24]
   8cddc:	d1002000 	sub	x0, x0, #0x8
   8cde0:	f90017e0 	str	x0, [sp, #40]
   8cde4:	f9400fe0 	ldr	x0, [sp, #24]
   8cde8:	f100001f 	cmp	x0, #0x0
   8cdec:	54000061 	b.ne	8cdf8 <CEcoVFB1VirtualDevice_AF252188_IEcoCGI1OneWayOutput_DeviceViewport+0x30>  // b.any
   8cdf0:	12800000 	mov	w0, #0xffffffff            	// #-1
   8cdf4:	14000002 	b	8cdfc <CEcoVFB1VirtualDevice_AF252188_IEcoCGI1OneWayOutput_DeviceViewport+0x34>
   8cdf8:	52800000 	mov	w0, #0x0                   	// #0
   8cdfc:	9100c3ff 	add	sp, sp, #0x30
   8ce00:	d65f03c0 	ret

000000000008ce04 <CEcoVFB1VirtualDevice_AF252188_IEcoCGI1OneWayOutput_Polyline>:
   8ce04:	a9bc7bfd 	stp	x29, x30, [sp, #-64]!
   8ce08:	910003fd 	mov	x29, sp
   8ce0c:	f9000fa0 	str	x0, [x29, #24]
   8ce10:	f9000ba1 	str	x1, [x29, #16]
   8ce14:	f9400fa0 	ldr	x0, [x29, #24]
   8ce18:	d1002000 	sub	x0, x0, #0x8
   8ce1c:	f9001ba0 	str	x0, [x29, #48]
   8ce20:	79005fbf 	strh	wzr, [x29, #46]
   8ce24:	79005bbf 	strh	wzr, [x29, #44]
   8ce28:	790057bf 	strh	wzr, [x29, #42]
   8ce2c:	52800140 	mov	w0, #0xa                   	// #10
   8ce30:	790053a0 	strh	w0, [x29, #40]
   8ce34:	79004fbf 	strh	wzr, [x29, #38]
   8ce38:	79004bbf 	strh	wzr, [x29, #36]
   8ce3c:	79007fbf 	strh	wzr, [x29, #62]
   8ce40:	f9400fa0 	ldr	x0, [x29, #24]
   8ce44:	f100001f 	cmp	x0, #0x0
   8ce48:	54000061 	b.ne	8ce54 <CEcoVFB1VirtualDevice_AF252188_IEcoCGI1OneWayOutput_Polyline+0x50>  // b.any
   8ce4c:	12800000 	mov	w0, #0xffffffff            	// #-1
   8ce50:	1400002c 	b	8cf00 <CEcoVFB1VirtualDevice_AF252188_IEcoCGI1OneWayOutput_Polyline+0xfc>
   8ce54:	f9400ba0 	ldr	x0, [x29, #16]
   8ce58:	f9400400 	ldr	x0, [x0, #8]
   8ce5c:	f9400000 	ldr	x0, [x0]
   8ce60:	79c00000 	ldrsh	w0, [x0]
   8ce64:	79005fa0 	strh	w0, [x29, #46]
   8ce68:	f9400ba0 	ldr	x0, [x29, #16]
   8ce6c:	f9400400 	ldr	x0, [x0, #8]
   8ce70:	91002000 	add	x0, x0, #0x8
   8ce74:	f9400000 	ldr	x0, [x0]
   8ce78:	79c00000 	ldrsh	w0, [x0]
   8ce7c:	79005ba0 	strh	w0, [x29, #44]
   8ce80:	f9400ba0 	ldr	x0, [x29, #16]
   8ce84:	f9400400 	ldr	x0, [x0, #8]
   8ce88:	f9400000 	ldr	x0, [x0]
   8ce8c:	79c00400 	ldrsh	w0, [x0, #2]
   8ce90:	790057a0 	strh	w0, [x29, #42]
   8ce94:	f9400ba0 	ldr	x0, [x29, #16]
   8ce98:	f9400400 	ldr	x0, [x0, #8]
   8ce9c:	91002000 	add	x0, x0, #0x8
   8cea0:	f9400000 	ldr	x0, [x0]
   8cea4:	79c00400 	ldrsh	w0, [x0, #2]
   8cea8:	790053a0 	strh	w0, [x29, #40]
   8ceac:	79405fa0 	ldrh	w0, [x29, #46]
   8ceb0:	79007fa0 	strh	w0, [x29, #62]
   8ceb4:	1400000e 	b	8ceec <CEcoVFB1VirtualDevice_AF252188_IEcoCGI1OneWayOutput_Polyline+0xe8>
   8ceb8:	f9401ba0 	ldr	x0, [x29, #48]
   8cebc:	f9400c00 	ldr	x0, [x0, #24]
   8cec0:	f9400000 	ldr	x0, [x0]
   8cec4:	f9403004 	ldr	x4, [x0, #96]
   8cec8:	f9401ba0 	ldr	x0, [x29, #48]
   8cecc:	f9400c00 	ldr	x0, [x0, #24]
   8ced0:	794053a3 	ldrh	w3, [x29, #40]
   8ced4:	79407fa2 	ldrh	w2, [x29, #62]
   8ced8:	12800001 	mov	w1, #0xffffffff            	// #-1
   8cedc:	d63f0080 	blr	x4
   8cee0:	79407fa0 	ldrh	w0, [x29, #62]
   8cee4:	11000400 	add	w0, w0, #0x1
   8cee8:	79007fa0 	strh	w0, [x29, #62]
   8ceec:	79407fa1 	ldrh	w1, [x29, #62]
   8cef0:	79405ba0 	ldrh	w0, [x29, #44]
   8cef4:	6b00003f 	cmp	w1, w0
   8cef8:	54fffe09 	b.ls	8ceb8 <CEcoVFB1VirtualDevice_AF252188_IEcoCGI1OneWayOutput_Polyline+0xb4>  // b.plast
   8cefc:	52800000 	mov	w0, #0x0                   	// #0
   8cf00:	a8c47bfd 	ldp	x29, x30, [sp], #64
   8cf04:	d65f03c0 	ret

000000000008cf08 <CEcoVFB1VirtualDevice_AF252188_IEcoCGI1OneWayOutput_Text>:
   8cf08:	a9bb7bfd 	stp	x29, x30, [sp, #-80]!
   8cf0c:	910003fd 	mov	x29, sp
   8cf10:	f90017a0 	str	x0, [x29, #40]
   8cf14:	f90013a1 	str	x1, [x29, #32]
   8cf18:	b9001fa2 	str	w2, [x29, #28]
   8cf1c:	f9000ba3 	str	x3, [x29, #16]
   8cf20:	f94017a0 	ldr	x0, [x29, #40]
   8cf24:	d1002000 	sub	x0, x0, #0x8
   8cf28:	f9001fa0 	str	x0, [x29, #56]
   8cf2c:	f9400ba0 	ldr	x0, [x29, #16]
   8cf30:	f90027a0 	str	x0, [x29, #72]
   8cf34:	79006fbf 	strh	wzr, [x29, #54]
   8cf38:	79008fbf 	strh	wzr, [x29, #70]
   8cf3c:	f94017a0 	ldr	x0, [x29, #40]
   8cf40:	f100001f 	cmp	x0, #0x0
   8cf44:	540000c1 	b.ne	8cf5c <CEcoVFB1VirtualDevice_AF252188_IEcoCGI1OneWayOutput_Text+0x54>  // b.any
   8cf48:	f9400ba0 	ldr	x0, [x29, #16]
   8cf4c:	f100001f 	cmp	x0, #0x0
   8cf50:	54000061 	b.ne	8cf5c <CEcoVFB1VirtualDevice_AF252188_IEcoCGI1OneWayOutput_Text+0x54>  // b.any
   8cf54:	12800000 	mov	w0, #0xffffffff            	// #-1
   8cf58:	1400003f 	b	8d054 <CEcoVFB1VirtualDevice_AF252188_IEcoCGI1OneWayOutput_Text+0x14c>
   8cf5c:	f94013a0 	ldr	x0, [x29, #32]
   8cf60:	79400000 	ldrh	w0, [x0]
   8cf64:	79008fa0 	strh	w0, [x29, #70]
   8cf68:	f9401fa0 	ldr	x0, [x29, #56]
   8cf6c:	f9400c00 	ldr	x0, [x0, #24]
   8cf70:	f9400000 	ldr	x0, [x0]
   8cf74:	f9401404 	ldr	x4, [x0, #40]
   8cf78:	f9401fa0 	ldr	x0, [x29, #56]
   8cf7c:	f9400c05 	ldr	x5, [x0, #24]
   8cf80:	f94013a0 	ldr	x0, [x29, #32]
   8cf84:	79c00000 	ldrsh	w0, [x0]
   8cf88:	12003c01 	and	w1, w0, #0xffff
   8cf8c:	f94013a0 	ldr	x0, [x29, #32]
   8cf90:	79c00400 	ldrsh	w0, [x0, #2]
   8cf94:	12003c00 	and	w0, w0, #0xffff
   8cf98:	2a0003e3 	mov	w3, w0
   8cf9c:	2a0103e2 	mov	w2, w1
   8cfa0:	52800021 	mov	w1, #0x1                   	// #1
   8cfa4:	aa0503e0 	mov	x0, x5
   8cfa8:	d63f0080 	blr	x4
   8cfac:	14000025 	b	8d040 <CEcoVFB1VirtualDevice_AF252188_IEcoCGI1OneWayOutput_Text+0x138>
   8cfb0:	f9401fa0 	ldr	x0, [x29, #56]
   8cfb4:	f9400c00 	ldr	x0, [x0, #24]
   8cfb8:	f9400000 	ldr	x0, [x0]
   8cfbc:	f9401404 	ldr	x4, [x0, #40]
   8cfc0:	f9401fa0 	ldr	x0, [x29, #56]
   8cfc4:	f9400c05 	ldr	x5, [x0, #24]
   8cfc8:	79408fa1 	ldrh	w1, [x29, #70]
   8cfcc:	f94013a0 	ldr	x0, [x29, #32]
   8cfd0:	79c00400 	ldrsh	w0, [x0, #2]
   8cfd4:	12003c00 	and	w0, w0, #0xffff
   8cfd8:	2a0003e3 	mov	w3, w0
   8cfdc:	2a0103e2 	mov	w2, w1
   8cfe0:	52800021 	mov	w1, #0x1                   	// #1
   8cfe4:	aa0503e0 	mov	x0, x5
   8cfe8:	d63f0080 	blr	x4
   8cfec:	79408fa0 	ldrh	w0, [x29, #70]
   8cff0:	11001000 	add	w0, w0, #0x4
   8cff4:	12003c00 	and	w0, w0, #0xffff
   8cff8:	79008fa0 	strh	w0, [x29, #70]
   8cffc:	f9401fa0 	ldr	x0, [x29, #56]
   8d000:	f9400c00 	ldr	x0, [x0, #24]
   8d004:	f9400000 	ldr	x0, [x0]
   8d008:	f9402c05 	ldr	x5, [x0, #88]
   8d00c:	f9401fa0 	ldr	x0, [x29, #56]
   8d010:	f9400c06 	ldr	x6, [x0, #24]
   8d014:	f94027a0 	ldr	x0, [x29, #72]
   8d018:	39400000 	ldrb	w0, [x0]
   8d01c:	52800024 	mov	w4, #0x1                   	// #1
   8d020:	2a0003e3 	mov	w3, w0
   8d024:	528001e2 	mov	w2, #0xf                   	// #15
   8d028:	52800021 	mov	w1, #0x1                   	// #1
   8d02c:	aa0603e0 	mov	x0, x6
   8d030:	d63f00a0 	blr	x5
   8d034:	f94027a0 	ldr	x0, [x29, #72]
   8d038:	91000400 	add	x0, x0, #0x1
   8d03c:	f90027a0 	str	x0, [x29, #72]
   8d040:	f94027a0 	ldr	x0, [x29, #72]
   8d044:	39400000 	ldrb	w0, [x0]
   8d048:	7100001f 	cmp	w0, #0x0
   8d04c:	54fffb21 	b.ne	8cfb0 <CEcoVFB1VirtualDevice_AF252188_IEcoCGI1OneWayOutput_Text+0xa8>  // b.any
   8d050:	79c06fa0 	ldrsh	w0, [x29, #54]
   8d054:	a8c57bfd 	ldp	x29, x30, [sp], #80
   8d058:	d65f03c0 	ret

000000000008d05c <CEcoVFB1VirtualDevice_AF252188_IEcoCGI1OneWayOutput_LineType>:
   8d05c:	d10083ff 	sub	sp, sp, #0x20
   8d060:	f90007e0 	str	x0, [sp, #8]
   8d064:	79000fe1 	strh	w1, [sp, #6]
   8d068:	f94007e0 	ldr	x0, [sp, #8]
   8d06c:	d1002000 	sub	x0, x0, #0x8
   8d070:	f9000fe0 	str	x0, [sp, #24]
   8d074:	f94007e0 	ldr	x0, [sp, #8]
   8d078:	f100001f 	cmp	x0, #0x0
   8d07c:	54000061 	b.ne	8d088 <CEcoVFB1VirtualDevice_AF252188_IEcoCGI1OneWayOutput_LineType+0x2c>  // b.any
   8d080:	12800000 	mov	w0, #0xffffffff            	// #-1
   8d084:	14000002 	b	8d08c <CEcoVFB1VirtualDevice_AF252188_IEcoCGI1OneWayOutput_LineType+0x30>
   8d088:	52800000 	mov	w0, #0x0                   	// #0
   8d08c:	910083ff 	add	sp, sp, #0x20
   8d090:	d65f03c0 	ret

000000000008d094 <CEcoVFB1VirtualDevice_AF252188_IEcoCGI1OneWayOutput_CharcterHeight>:
   8d094:	d10083ff 	sub	sp, sp, #0x20
   8d098:	f90007e0 	str	x0, [sp, #8]
   8d09c:	79000fe1 	strh	w1, [sp, #6]
   8d0a0:	f94007e0 	ldr	x0, [sp, #8]
   8d0a4:	d1002000 	sub	x0, x0, #0x8
   8d0a8:	f9000fe0 	str	x0, [sp, #24]
   8d0ac:	f94007e0 	ldr	x0, [sp, #8]
   8d0b0:	f100001f 	cmp	x0, #0x0
   8d0b4:	54000061 	b.ne	8d0c0 <CEcoVFB1VirtualDevice_AF252188_IEcoCGI1OneWayOutput_CharcterHeight+0x2c>  // b.any
   8d0b8:	12800000 	mov	w0, #0xffffffff            	// #-1
   8d0bc:	14000002 	b	8d0c4 <CEcoVFB1VirtualDevice_AF252188_IEcoCGI1OneWayOutput_CharcterHeight+0x30>
   8d0c0:	52800000 	mov	w0, #0x0                   	// #0
   8d0c4:	910083ff 	add	sp, sp, #0x20
   8d0c8:	d65f03c0 	ret

000000000008d0cc <createCEcoVFB1VirtualDevice_AF252188>:
   8d0cc:	d100c3ff 	sub	sp, sp, #0x30
   8d0d0:	f9000fe0 	str	x0, [sp, #24]
   8d0d4:	f9000be1 	str	x1, [sp, #16]
   8d0d8:	f90007e2 	str	x2, [sp, #8]
   8d0dc:	f90003e3 	str	x3, [sp]
   8d0e0:	12800000 	mov	w0, #0xffffffff            	// #-1
   8d0e4:	79005fe0 	strh	w0, [sp, #46]
   8d0e8:	f90013ff 	str	xzr, [sp, #32]
   8d0ec:	f94003e0 	ldr	x0, [sp]
   8d0f0:	f100001f 	cmp	x0, #0x0
   8d0f4:	54000061 	b.ne	8d100 <createCEcoVFB1VirtualDevice_AF252188+0x34>  // b.any
   8d0f8:	79c05fe0 	ldrsh	w0, [sp, #46]
   8d0fc:	14000018 	b	8d15c <createCEcoVFB1VirtualDevice_AF252188+0x90>
   8d100:	d0000000 	adrp	x0, 8f000 <_malloc_r+0x818>
   8d104:	913a4000 	add	x0, x0, #0xe90
   8d108:	f90013e0 	str	x0, [sp, #32]
   8d10c:	f94013e0 	ldr	x0, [sp, #32]
   8d110:	b9401000 	ldr	w0, [x0, #16]
   8d114:	7100041f 	cmp	w0, #0x1
   8d118:	540000e9 	b.ls	8d134 <createCEcoVFB1VirtualDevice_AF252188+0x68>  // b.plast
   8d11c:	f94013e0 	ldr	x0, [sp, #32]
   8d120:	b9401000 	ldr	w0, [x0, #16]
   8d124:	11000401 	add	w1, w0, #0x1
   8d128:	f94013e0 	ldr	x0, [sp, #32]
   8d12c:	b9001001 	str	w1, [x0, #16]
   8d130:	14000004 	b	8d140 <createCEcoVFB1VirtualDevice_AF252188+0x74>
   8d134:	f94013e0 	ldr	x0, [sp, #32]
   8d138:	52800021 	mov	w1, #0x1                   	// #1
   8d13c:	b9001001 	str	w1, [x0, #16]
   8d140:	f94013e0 	ldr	x0, [sp, #32]
   8d144:	f94007e1 	ldr	x1, [sp, #8]
   8d148:	f9000c01 	str	x1, [x0, #24]
   8d14c:	f94003e0 	ldr	x0, [sp]
   8d150:	f94013e1 	ldr	x1, [sp, #32]
   8d154:	f9000001 	str	x1, [x0]
   8d158:	52800000 	mov	w0, #0x0                   	// #0
   8d15c:	9100c3ff 	add	sp, sp, #0x30
   8d160:	d65f03c0 	ret

000000000008d164 <deleteCEcoVFB1VirtualDevice_AF252188>:
   8d164:	a9bd7bfd 	stp	x29, x30, [sp, #-48]!
   8d168:	910003fd 	mov	x29, sp
   8d16c:	f9000fa0 	str	x0, [x29, #24]
   8d170:	f9400fa0 	ldr	x0, [x29, #24]
   8d174:	f90017a0 	str	x0, [x29, #40]
   8d178:	f94017a0 	ldr	x0, [x29, #40]
   8d17c:	f9400c00 	ldr	x0, [x0, #24]
   8d180:	f9400000 	ldr	x0, [x0]
   8d184:	f9400801 	ldr	x1, [x0, #16]
   8d188:	f94017a0 	ldr	x0, [x29, #40]
   8d18c:	f9400c00 	ldr	x0, [x0, #24]
   8d190:	d63f0020 	blr	x1
   8d194:	d503201f 	nop
   8d198:	a8c37bfd 	ldp	x29, x30, [sp], #48
   8d19c:	d65f03c0 	ret

000000000008d1a0 <IsEqualUGUID_00000000000000000000000042757331>:
   8d1a0:	d10083ff 	sub	sp, sp, #0x20
   8d1a4:	f90007e0 	str	x0, [sp, #8]
   8d1a8:	f90003e1 	str	x1, [sp]
   8d1ac:	39007fff 	strb	wzr, [sp, #31]
   8d1b0:	39007bff 	strb	wzr, [sp, #30]
   8d1b4:	39007bff 	strb	wzr, [sp, #30]
   8d1b8:	14000015 	b	8d20c <IsEqualUGUID_00000000000000000000000042757331+0x6c>
   8d1bc:	39807be0 	ldrsb	x0, [sp, #30]
   8d1c0:	f94007e1 	ldr	x1, [sp, #8]
   8d1c4:	8b000020 	add	x0, x1, x0
   8d1c8:	39400001 	ldrb	w1, [x0]
   8d1cc:	39807be0 	ldrsb	x0, [sp, #30]
   8d1d0:	f94003e2 	ldr	x2, [sp]
   8d1d4:	8b000040 	add	x0, x2, x0
   8d1d8:	39400000 	ldrb	w0, [x0]
   8d1dc:	6b00003f 	cmp	w1, w0
   8d1e0:	54000081 	b.ne	8d1f0 <IsEqualUGUID_00000000000000000000000042757331+0x50>  // b.any
   8d1e4:	52800020 	mov	w0, #0x1                   	// #1
   8d1e8:	39007fe0 	strb	w0, [sp, #31]
   8d1ec:	14000003 	b	8d1f8 <IsEqualUGUID_00000000000000000000000042757331+0x58>
   8d1f0:	39007fff 	strb	wzr, [sp, #31]
   8d1f4:	14000009 	b	8d218 <IsEqualUGUID_00000000000000000000000042757331+0x78>
   8d1f8:	39c07be0 	ldrsb	w0, [sp, #30]
   8d1fc:	12001c00 	and	w0, w0, #0xff
   8d200:	11000400 	add	w0, w0, #0x1
   8d204:	12001c00 	and	w0, w0, #0xff
   8d208:	39007be0 	strb	w0, [sp, #30]
   8d20c:	39c07be0 	ldrsb	w0, [sp, #30]
   8d210:	7100441f 	cmp	w0, #0x11
   8d214:	54fffd4d 	b.le	8d1bc <IsEqualUGUID_00000000000000000000000042757331+0x1c>
   8d218:	39407fe0 	ldrb	w0, [sp, #31]
   8d21c:	910083ff 	add	sp, sp, #0x20
   8d220:	d65f03c0 	ret

000000000008d224 <CEcoInterfaceBus1Factory_42757331_QueryInterface>:
   8d224:	a9bd7bfd 	stp	x29, x30, [sp, #-48]!
   8d228:	910003fd 	mov	x29, sp
   8d22c:	f90017a0 	str	x0, [x29, #40]
   8d230:	f90013a1 	str	x1, [x29, #32]
   8d234:	f9000fa2 	str	x2, [x29, #24]
   8d238:	d00001e0 	adrp	x0, cb000 <BitFont+0xe10>
   8d23c:	910de000 	add	x0, x0, #0x378
   8d240:	aa0003e1 	mov	x1, x0
   8d244:	f94013a0 	ldr	x0, [x29, #32]
   8d248:	97ffffd6 	bl	8d1a0 <IsEqualUGUID_00000000000000000000000042757331>
   8d24c:	12001c00 	and	w0, w0, #0xff
   8d250:	7100001f 	cmp	w0, #0x0
   8d254:	54000121 	b.ne	8d278 <CEcoInterfaceBus1Factory_42757331_QueryInterface+0x54>  // b.any
   8d258:	d00001e0 	adrp	x0, cb000 <BitFont+0xe10>
   8d25c:	910e4000 	add	x0, x0, #0x390
   8d260:	aa0003e1 	mov	x1, x0
   8d264:	f94013a0 	ldr	x0, [x29, #32]
   8d268:	97ffffce 	bl	8d1a0 <IsEqualUGUID_00000000000000000000000042757331>
   8d26c:	12001c00 	and	w0, w0, #0xff
   8d270:	7100001f 	cmp	w0, #0x0
   8d274:	54000160 	b.eq	8d2a0 <CEcoInterfaceBus1Factory_42757331_QueryInterface+0x7c>  // b.none
   8d278:	f9400fa0 	ldr	x0, [x29, #24]
   8d27c:	f94017a1 	ldr	x1, [x29, #40]
   8d280:	f9000001 	str	x1, [x0]
   8d284:	f94017a0 	ldr	x0, [x29, #40]
   8d288:	f9400000 	ldr	x0, [x0]
   8d28c:	f9400401 	ldr	x1, [x0, #8]
   8d290:	f94017a0 	ldr	x0, [x29, #40]
   8d294:	d63f0020 	blr	x1
   8d298:	52800000 	mov	w0, #0x0                   	// #0
   8d29c:	14000004 	b	8d2ac <CEcoInterfaceBus1Factory_42757331_QueryInterface+0x88>
   8d2a0:	f9400fa0 	ldr	x0, [x29, #24]
   8d2a4:	f900001f 	str	xzr, [x0]
   8d2a8:	12800000 	mov	w0, #0xffffffff            	// #-1
   8d2ac:	a8c37bfd 	ldp	x29, x30, [sp], #48
   8d2b0:	d65f03c0 	ret

000000000008d2b4 <CEcoInterfaceBus1Factory_42757331_AddRef>:
   8d2b4:	d10083ff 	sub	sp, sp, #0x20
   8d2b8:	f90007e0 	str	x0, [sp, #8]
   8d2bc:	f94007e0 	ldr	x0, [sp, #8]
   8d2c0:	f9000fe0 	str	x0, [sp, #24]
   8d2c4:	f94007e0 	ldr	x0, [sp, #8]
   8d2c8:	f100001f 	cmp	x0, #0x0
   8d2cc:	54000061 	b.ne	8d2d8 <CEcoInterfaceBus1Factory_42757331_AddRef+0x24>  // b.any
   8d2d0:	12800000 	mov	w0, #0xffffffff            	// #-1
   8d2d4:	14000008 	b	8d2f4 <CEcoInterfaceBus1Factory_42757331_AddRef+0x40>
   8d2d8:	f9400fe0 	ldr	x0, [sp, #24]
   8d2dc:	b9400800 	ldr	w0, [x0, #8]
   8d2e0:	11000401 	add	w1, w0, #0x1
   8d2e4:	f9400fe0 	ldr	x0, [sp, #24]
   8d2e8:	b9000801 	str	w1, [x0, #8]
   8d2ec:	f9400fe0 	ldr	x0, [sp, #24]
   8d2f0:	b9400800 	ldr	w0, [x0, #8]
   8d2f4:	910083ff 	add	sp, sp, #0x20
   8d2f8:	d65f03c0 	ret

000000000008d2fc <CEcoInterfaceBus1Factory_42757331_Release>:
   8d2fc:	d10083ff 	sub	sp, sp, #0x20
   8d300:	f90007e0 	str	x0, [sp, #8]
   8d304:	f94007e0 	ldr	x0, [sp, #8]
   8d308:	f9000fe0 	str	x0, [sp, #24]
   8d30c:	f94007e0 	ldr	x0, [sp, #8]
   8d310:	f100001f 	cmp	x0, #0x0
   8d314:	54000061 	b.ne	8d320 <CEcoInterfaceBus1Factory_42757331_Release+0x24>  // b.any
   8d318:	12800000 	mov	w0, #0xffffffff            	// #-1
   8d31c:	1400000e 	b	8d354 <CEcoInterfaceBus1Factory_42757331_Release+0x58>
   8d320:	f9400fe0 	ldr	x0, [sp, #24]
   8d324:	b9400800 	ldr	w0, [x0, #8]
   8d328:	51000401 	sub	w1, w0, #0x1
   8d32c:	f9400fe0 	ldr	x0, [sp, #24]
   8d330:	b9000801 	str	w1, [x0, #8]
   8d334:	f9400fe0 	ldr	x0, [sp, #24]
   8d338:	b9400800 	ldr	w0, [x0, #8]
   8d33c:	7100001f 	cmp	w0, #0x0
   8d340:	54000061 	b.ne	8d34c <CEcoInterfaceBus1Factory_42757331_Release+0x50>  // b.any
   8d344:	52800000 	mov	w0, #0x0                   	// #0
   8d348:	14000003 	b	8d354 <CEcoInterfaceBus1Factory_42757331_Release+0x58>
   8d34c:	f9400fe0 	ldr	x0, [sp, #24]
   8d350:	b9400800 	ldr	w0, [x0, #8]
   8d354:	910083ff 	add	sp, sp, #0x20
   8d358:	d65f03c0 	ret

000000000008d35c <CEcoInterfaceBus1Factory_42757331_Init>:
   8d35c:	a9bc7bfd 	stp	x29, x30, [sp, #-64]!
   8d360:	910003fd 	mov	x29, sp
   8d364:	f90017a0 	str	x0, [x29, #40]
   8d368:	f90013a1 	str	x1, [x29, #32]
   8d36c:	f9000fa2 	str	x2, [x29, #24]
   8d370:	f94017a0 	ldr	x0, [x29, #40]
   8d374:	f9001fa0 	str	x0, [x29, #56]
   8d378:	12800000 	mov	w0, #0xffffffff            	// #-1
   8d37c:	79006fa0 	strh	w0, [x29, #54]
   8d380:	f94017a0 	ldr	x0, [x29, #40]
   8d384:	f100001f 	cmp	x0, #0x0
   8d388:	54000061 	b.ne	8d394 <CEcoInterfaceBus1Factory_42757331_Init+0x38>  // b.any
   8d38c:	12800000 	mov	w0, #0xffffffff            	// #-1
   8d390:	14000008 	b	8d3b0 <CEcoInterfaceBus1Factory_42757331_Init+0x54>
   8d394:	f9401fa0 	ldr	x0, [x29, #56]
   8d398:	f9400c02 	ldr	x2, [x0, #24]
   8d39c:	f94013a1 	ldr	x1, [x29, #32]
   8d3a0:	f9400fa0 	ldr	x0, [x29, #24]
   8d3a4:	d63f0040 	blr	x2
   8d3a8:	79006fa0 	strh	w0, [x29, #54]
   8d3ac:	79c06fa0 	ldrsh	w0, [x29, #54]
   8d3b0:	a8c47bfd 	ldp	x29, x30, [sp], #64
   8d3b4:	d65f03c0 	ret

000000000008d3b8 <CEcoInterfaceBus1Factory_42757331_Alloc>:
   8d3b8:	a9ba7bfd 	stp	x29, x30, [sp, #-96]!
   8d3bc:	910003fd 	mov	x29, sp
   8d3c0:	f9001fa0 	str	x0, [x29, #56]
   8d3c4:	f9001ba1 	str	x1, [x29, #48]
   8d3c8:	f90017a2 	str	x2, [x29, #40]
   8d3cc:	f90013a3 	str	x3, [x29, #32]
   8d3d0:	f9000fa4 	str	x4, [x29, #24]
   8d3d4:	f9401fa0 	ldr	x0, [x29, #56]
   8d3d8:	f9002fa0 	str	x0, [x29, #88]
   8d3dc:	f90027bf 	str	xzr, [x29, #72]
   8d3e0:	12800000 	mov	w0, #0xffffffff            	// #-1
   8d3e4:	7900afa0 	strh	w0, [x29, #86]
   8d3e8:	f9401fa0 	ldr	x0, [x29, #56]
   8d3ec:	f100001f 	cmp	x0, #0x0
   8d3f0:	54000061 	b.ne	8d3fc <CEcoInterfaceBus1Factory_42757331_Alloc+0x44>  // b.any
   8d3f4:	12800000 	mov	w0, #0xffffffff            	// #-1
   8d3f8:	1400002c 	b	8d4a8 <CEcoInterfaceBus1Factory_42757331_Alloc+0xf0>
   8d3fc:	f94017a0 	ldr	x0, [x29, #40]
   8d400:	f100001f 	cmp	x0, #0x0
   8d404:	54000160 	b.eq	8d430 <CEcoInterfaceBus1Factory_42757331_Alloc+0x78>  // b.none
   8d408:	d00001e0 	adrp	x0, cb000 <BitFont+0xe10>
   8d40c:	910de000 	add	x0, x0, #0x378
   8d410:	aa0003e1 	mov	x1, x0
   8d414:	f94013a0 	ldr	x0, [x29, #32]
   8d418:	97ffff62 	bl	8d1a0 <IsEqualUGUID_00000000000000000000000042757331>
   8d41c:	12001c00 	and	w0, w0, #0xff
   8d420:	7100001f 	cmp	w0, #0x0
   8d424:	54000061 	b.ne	8d430 <CEcoInterfaceBus1Factory_42757331_Alloc+0x78>  // b.any
   8d428:	12800000 	mov	w0, #0xffffffff            	// #-1
   8d42c:	1400001f 	b	8d4a8 <CEcoInterfaceBus1Factory_42757331_Alloc+0xf0>
   8d430:	f9402fa0 	ldr	x0, [x29, #88]
   8d434:	f9400803 	ldr	x3, [x0, #16]
   8d438:	910123a0 	add	x0, x29, #0x48
   8d43c:	aa0003e2 	mov	x2, x0
   8d440:	f94017a1 	ldr	x1, [x29, #40]
   8d444:	f9401ba0 	ldr	x0, [x29, #48]
   8d448:	d63f0060 	blr	x3
   8d44c:	7900afa0 	strh	w0, [x29, #86]
   8d450:	79c0afa0 	ldrsh	w0, [x29, #86]
   8d454:	7100001f 	cmp	w0, #0x0
   8d458:	54000081 	b.ne	8d468 <CEcoInterfaceBus1Factory_42757331_Alloc+0xb0>  // b.any
   8d45c:	f94027a0 	ldr	x0, [x29, #72]
   8d460:	f100001f 	cmp	x0, #0x0
   8d464:	54000061 	b.ne	8d470 <CEcoInterfaceBus1Factory_42757331_Alloc+0xb8>  // b.any
   8d468:	12800000 	mov	w0, #0xffffffff            	// #-1
   8d46c:	1400000f 	b	8d4a8 <CEcoInterfaceBus1Factory_42757331_Alloc+0xf0>
   8d470:	f94027a0 	ldr	x0, [x29, #72]
   8d474:	f9400000 	ldr	x0, [x0]
   8d478:	f9400003 	ldr	x3, [x0]
   8d47c:	f94027a0 	ldr	x0, [x29, #72]
   8d480:	f9400fa2 	ldr	x2, [x29, #24]
   8d484:	f94013a1 	ldr	x1, [x29, #32]
   8d488:	d63f0060 	blr	x3
   8d48c:	7900afa0 	strh	w0, [x29, #86]
   8d490:	f94027a0 	ldr	x0, [x29, #72]
   8d494:	f9400000 	ldr	x0, [x0]
   8d498:	f9400801 	ldr	x1, [x0, #16]
   8d49c:	f94027a0 	ldr	x0, [x29, #72]
   8d4a0:	d63f0020 	blr	x1
   8d4a4:	79c0afa0 	ldrsh	w0, [x29, #86]
   8d4a8:	a8c67bfd 	ldp	x29, x30, [sp], #96
   8d4ac:	d65f03c0 	ret

000000000008d4b0 <CEcoInterfaceBus1Factory_42757331_get_Name>:
   8d4b0:	d10083ff 	sub	sp, sp, #0x20
   8d4b4:	f90007e0 	str	x0, [sp, #8]
   8d4b8:	f94007e0 	ldr	x0, [sp, #8]
   8d4bc:	f9000fe0 	str	x0, [sp, #24]
   8d4c0:	f94007e0 	ldr	x0, [sp, #8]
   8d4c4:	f100001f 	cmp	x0, #0x0
   8d4c8:	54000061 	b.ne	8d4d4 <CEcoInterfaceBus1Factory_42757331_get_Name+0x24>  // b.any
   8d4cc:	d2800000 	mov	x0, #0x0                   	// #0
   8d4d0:	14000003 	b	8d4dc <CEcoInterfaceBus1Factory_42757331_get_Name+0x2c>
   8d4d4:	f9400fe0 	ldr	x0, [sp, #24]
   8d4d8:	91008000 	add	x0, x0, #0x20
   8d4dc:	910083ff 	add	sp, sp, #0x20
   8d4e0:	d65f03c0 	ret

000000000008d4e4 <CEcoInterfaceBus1Factory_42757331_get_Version>:
   8d4e4:	d10083ff 	sub	sp, sp, #0x20
   8d4e8:	f90007e0 	str	x0, [sp, #8]
   8d4ec:	f94007e0 	ldr	x0, [sp, #8]
   8d4f0:	f9000fe0 	str	x0, [sp, #24]
   8d4f4:	f94007e0 	ldr	x0, [sp, #8]
   8d4f8:	f100001f 	cmp	x0, #0x0
   8d4fc:	54000061 	b.ne	8d508 <CEcoInterfaceBus1Factory_42757331_get_Version+0x24>  // b.any
   8d500:	d2800000 	mov	x0, #0x0                   	// #0
   8d504:	14000003 	b	8d510 <CEcoInterfaceBus1Factory_42757331_get_Version+0x2c>
   8d508:	f9400fe0 	ldr	x0, [sp, #24]
   8d50c:	91018000 	add	x0, x0, #0x60
   8d510:	910083ff 	add	sp, sp, #0x20
   8d514:	d65f03c0 	ret

000000000008d518 <CEcoInterfaceBus1Factory_42757331_get_Manufacturer>:
   8d518:	d10083ff 	sub	sp, sp, #0x20
   8d51c:	f90007e0 	str	x0, [sp, #8]
   8d520:	f94007e0 	ldr	x0, [sp, #8]
   8d524:	f9000fe0 	str	x0, [sp, #24]
   8d528:	f94007e0 	ldr	x0, [sp, #8]
   8d52c:	f100001f 	cmp	x0, #0x0
   8d530:	54000061 	b.ne	8d53c <CEcoInterfaceBus1Factory_42757331_get_Manufacturer+0x24>  // b.any
   8d534:	d2800000 	mov	x0, #0x0                   	// #0
   8d538:	14000003 	b	8d544 <CEcoInterfaceBus1Factory_42757331_get_Manufacturer+0x2c>
   8d53c:	f9400fe0 	ldr	x0, [sp, #24]
   8d540:	9101c000 	add	x0, x0, #0x70
   8d544:	910083ff 	add	sp, sp, #0x20
   8d548:	d65f03c0 	ret

000000000008d54c <CEcoInterfaceBus1_42757331_IEcoSystem1_QueryInterface>:
   8d54c:	a9bc7bfd 	stp	x29, x30, [sp, #-64]!
   8d550:	910003fd 	mov	x29, sp
   8d554:	f90017a0 	str	x0, [x29, #40]
   8d558:	f90013a1 	str	x1, [x29, #32]
   8d55c:	f9000fa2 	str	x2, [x29, #24]
   8d560:	f94017a0 	ldr	x0, [x29, #40]
   8d564:	f9001fa0 	str	x0, [x29, #56]
   8d568:	f94017a0 	ldr	x0, [x29, #40]
   8d56c:	f100001f 	cmp	x0, #0x0
   8d570:	54000080 	b.eq	8d580 <CEcoInterfaceBus1_42757331_IEcoSystem1_QueryInterface+0x34>  // b.none
   8d574:	f9400fa0 	ldr	x0, [x29, #24]
   8d578:	f100001f 	cmp	x0, #0x0
   8d57c:	54000061 	b.ne	8d588 <CEcoInterfaceBus1_42757331_IEcoSystem1_QueryInterface+0x3c>  // b.any
   8d580:	12800000 	mov	w0, #0xffffffff            	// #-1
   8d584:	1400003c 	b	8d674 <CEcoInterfaceBus1_42757331_IEcoSystem1_QueryInterface+0x128>
   8d588:	d00001e0 	adrp	x0, cb000 <BitFont+0xe10>
   8d58c:	9112c000 	add	x0, x0, #0x4b0
   8d590:	aa0003e1 	mov	x1, x0
   8d594:	f94013a0 	ldr	x0, [x29, #32]
   8d598:	97ffff02 	bl	8d1a0 <IsEqualUGUID_00000000000000000000000042757331>
   8d59c:	12001c00 	and	w0, w0, #0xff
   8d5a0:	7100001f 	cmp	w0, #0x0
   8d5a4:	540001a0 	b.eq	8d5d8 <CEcoInterfaceBus1_42757331_IEcoSystem1_QueryInterface+0x8c>  // b.none
   8d5a8:	f9401fa0 	ldr	x0, [x29, #56]
   8d5ac:	f9400c01 	ldr	x1, [x0, #24]
   8d5b0:	f9400fa0 	ldr	x0, [x29, #24]
   8d5b4:	f9000001 	str	x1, [x0]
   8d5b8:	f9401fa0 	ldr	x0, [x29, #56]
   8d5bc:	f9400c00 	ldr	x0, [x0, #24]
   8d5c0:	f9400000 	ldr	x0, [x0]
   8d5c4:	f9400401 	ldr	x1, [x0, #8]
   8d5c8:	f9401fa0 	ldr	x0, [x29, #56]
   8d5cc:	f9400c00 	ldr	x0, [x0, #24]
   8d5d0:	d63f0020 	blr	x1
   8d5d4:	14000027 	b	8d670 <CEcoInterfaceBus1_42757331_IEcoSystem1_QueryInterface+0x124>
   8d5d8:	d00001e0 	adrp	x0, cb000 <BitFont+0xe10>
   8d5dc:	91126000 	add	x0, x0, #0x498
   8d5e0:	aa0003e1 	mov	x1, x0
   8d5e4:	f94013a0 	ldr	x0, [x29, #32]
   8d5e8:	97fffeee 	bl	8d1a0 <IsEqualUGUID_00000000000000000000000042757331>
   8d5ec:	12001c00 	and	w0, w0, #0xff
   8d5f0:	7100001f 	cmp	w0, #0x0
   8d5f4:	54000140 	b.eq	8d61c <CEcoInterfaceBus1_42757331_IEcoSystem1_QueryInterface+0xd0>  // b.none
   8d5f8:	f9401fa1 	ldr	x1, [x29, #56]
   8d5fc:	f9400fa0 	ldr	x0, [x29, #24]
   8d600:	f9000001 	str	x1, [x0]
   8d604:	f9401fa0 	ldr	x0, [x29, #56]
   8d608:	f9400000 	ldr	x0, [x0]
   8d60c:	f9400401 	ldr	x1, [x0, #8]
   8d610:	f9401fa0 	ldr	x0, [x29, #56]
   8d614:	d63f0020 	blr	x1
   8d618:	14000016 	b	8d670 <CEcoInterfaceBus1_42757331_IEcoSystem1_QueryInterface+0x124>
   8d61c:	d00001e0 	adrp	x0, cb000 <BitFont+0xe10>
   8d620:	9111a000 	add	x0, x0, #0x468
   8d624:	aa0003e1 	mov	x1, x0
   8d628:	f94013a0 	ldr	x0, [x29, #32]
   8d62c:	97fffedd 	bl	8d1a0 <IsEqualUGUID_00000000000000000000000042757331>
   8d630:	12001c00 	and	w0, w0, #0xff
   8d634:	7100001f 	cmp	w0, #0x0
   8d638:	54000140 	b.eq	8d660 <CEcoInterfaceBus1_42757331_IEcoSystem1_QueryInterface+0x114>  // b.none
   8d63c:	f9401fa1 	ldr	x1, [x29, #56]
   8d640:	f9400fa0 	ldr	x0, [x29, #24]
   8d644:	f9000001 	str	x1, [x0]
   8d648:	f9401fa0 	ldr	x0, [x29, #56]
   8d64c:	f9400000 	ldr	x0, [x0]
   8d650:	f9400401 	ldr	x1, [x0, #8]
   8d654:	f9401fa0 	ldr	x0, [x29, #56]
   8d658:	d63f0020 	blr	x1
   8d65c:	14000005 	b	8d670 <CEcoInterfaceBus1_42757331_IEcoSystem1_QueryInterface+0x124>
   8d660:	f9400fa0 	ldr	x0, [x29, #24]
   8d664:	f900001f 	str	xzr, [x0]
   8d668:	12800000 	mov	w0, #0xffffffff            	// #-1
   8d66c:	14000002 	b	8d674 <CEcoInterfaceBus1_42757331_IEcoSystem1_QueryInterface+0x128>
   8d670:	52800000 	mov	w0, #0x0                   	// #0
   8d674:	a8c47bfd 	ldp	x29, x30, [sp], #64
   8d678:	d65f03c0 	ret

000000000008d67c <CEcoInterfaceBus1_42757331_IEcoSystem1_AddRef>:
   8d67c:	d10083ff 	sub	sp, sp, #0x20
   8d680:	f90007e0 	str	x0, [sp, #8]
   8d684:	f94007e0 	ldr	x0, [sp, #8]
   8d688:	f9000fe0 	str	x0, [sp, #24]
   8d68c:	f94007e0 	ldr	x0, [sp, #8]
   8d690:	f100001f 	cmp	x0, #0x0
   8d694:	54000061 	b.ne	8d6a0 <CEcoInterfaceBus1_42757331_IEcoSystem1_AddRef+0x24>  // b.any
   8d698:	12800000 	mov	w0, #0xffffffff            	// #-1
   8d69c:	14000008 	b	8d6bc <CEcoInterfaceBus1_42757331_IEcoSystem1_AddRef+0x40>
   8d6a0:	f9400fe0 	ldr	x0, [sp, #24]
   8d6a4:	b9400800 	ldr	w0, [x0, #8]
   8d6a8:	11000401 	add	w1, w0, #0x1
   8d6ac:	f9400fe0 	ldr	x0, [sp, #24]
   8d6b0:	b9000801 	str	w1, [x0, #8]
   8d6b4:	f9400fe0 	ldr	x0, [sp, #24]
   8d6b8:	b9400800 	ldr	w0, [x0, #8]
   8d6bc:	910083ff 	add	sp, sp, #0x20
   8d6c0:	d65f03c0 	ret

000000000008d6c4 <CEcoInterfaceBus1_42757331_IEcoSystem1_Release>:
   8d6c4:	d10083ff 	sub	sp, sp, #0x20
   8d6c8:	f90007e0 	str	x0, [sp, #8]
   8d6cc:	f94007e0 	ldr	x0, [sp, #8]
   8d6d0:	f9000fe0 	str	x0, [sp, #24]
   8d6d4:	f94007e0 	ldr	x0, [sp, #8]
   8d6d8:	f100001f 	cmp	x0, #0x0
   8d6dc:	54000061 	b.ne	8d6e8 <CEcoInterfaceBus1_42757331_IEcoSystem1_Release+0x24>  // b.any
   8d6e0:	12800000 	mov	w0, #0xffffffff            	// #-1
   8d6e4:	1400000e 	b	8d71c <CEcoInterfaceBus1_42757331_IEcoSystem1_Release+0x58>
   8d6e8:	f9400fe0 	ldr	x0, [sp, #24]
   8d6ec:	b9400800 	ldr	w0, [x0, #8]
   8d6f0:	51000401 	sub	w1, w0, #0x1
   8d6f4:	f9400fe0 	ldr	x0, [sp, #24]
   8d6f8:	b9000801 	str	w1, [x0, #8]
   8d6fc:	f9400fe0 	ldr	x0, [sp, #24]
   8d700:	b9400800 	ldr	w0, [x0, #8]
   8d704:	7100001f 	cmp	w0, #0x0
   8d708:	54000061 	b.ne	8d714 <CEcoInterfaceBus1_42757331_IEcoSystem1_Release+0x50>  // b.any
   8d70c:	52800000 	mov	w0, #0x0                   	// #0
   8d710:	14000003 	b	8d71c <CEcoInterfaceBus1_42757331_IEcoSystem1_Release+0x58>
   8d714:	f9400fe0 	ldr	x0, [sp, #24]
   8d718:	b9400800 	ldr	w0, [x0, #8]
   8d71c:	910083ff 	add	sp, sp, #0x20
   8d720:	d65f03c0 	ret

000000000008d724 <CEcoInterfaceBus1_42757331_IEcoSystem1_set_Data>:
   8d724:	d10083ff 	sub	sp, sp, #0x20
   8d728:	f90007e0 	str	x0, [sp, #8]
   8d72c:	f90003e1 	str	x1, [sp]
   8d730:	f94007e0 	ldr	x0, [sp, #8]
   8d734:	f9000fe0 	str	x0, [sp, #24]
   8d738:	f94007e0 	ldr	x0, [sp, #8]
   8d73c:	f100001f 	cmp	x0, #0x0
   8d740:	540000c0 	b.eq	8d758 <CEcoInterfaceBus1_42757331_IEcoSystem1_set_Data+0x34>  // b.none
   8d744:	f9400fe0 	ldr	x0, [sp, #24]
   8d748:	f94003e1 	ldr	x1, [sp]
   8d74c:	f9000801 	str	x1, [x0, #16]
   8d750:	d503201f 	nop
   8d754:	14000002 	b	8d75c <CEcoInterfaceBus1_42757331_IEcoSystem1_set_Data+0x38>
   8d758:	d503201f 	nop
   8d75c:	910083ff 	add	sp, sp, #0x20
   8d760:	d65f03c0 	ret

000000000008d764 <CEcoInterfaceBus1_42757331_IEcoSystem1_get_Data>:
   8d764:	d10083ff 	sub	sp, sp, #0x20
   8d768:	f90007e0 	str	x0, [sp, #8]
   8d76c:	f94007e0 	ldr	x0, [sp, #8]
   8d770:	f9000fe0 	str	x0, [sp, #24]
   8d774:	f94007e0 	ldr	x0, [sp, #8]
   8d778:	f100001f 	cmp	x0, #0x0
   8d77c:	54000061 	b.ne	8d788 <CEcoInterfaceBus1_42757331_IEcoSystem1_get_Data+0x24>  // b.any
   8d780:	d2800000 	mov	x0, #0x0                   	// #0
   8d784:	14000003 	b	8d790 <CEcoInterfaceBus1_42757331_IEcoSystem1_get_Data+0x2c>
   8d788:	f9400fe0 	ldr	x0, [sp, #24]
   8d78c:	f9400800 	ldr	x0, [x0, #16]
   8d790:	910083ff 	add	sp, sp, #0x20
   8d794:	d65f03c0 	ret

000000000008d798 <CEcoInterfaceBus1_42757331_QueryInterface>:
   8d798:	a9bc7bfd 	stp	x29, x30, [sp, #-64]!
   8d79c:	910003fd 	mov	x29, sp
   8d7a0:	f90017a0 	str	x0, [x29, #40]
   8d7a4:	f90013a1 	str	x1, [x29, #32]
   8d7a8:	f9000fa2 	str	x2, [x29, #24]
   8d7ac:	f94017a0 	ldr	x0, [x29, #40]
   8d7b0:	f9001fa0 	str	x0, [x29, #56]
   8d7b4:	f94017a0 	ldr	x0, [x29, #40]
   8d7b8:	f100001f 	cmp	x0, #0x0
   8d7bc:	54000080 	b.eq	8d7cc <CEcoInterfaceBus1_42757331_QueryInterface+0x34>  // b.none
   8d7c0:	f9400fa0 	ldr	x0, [x29, #24]
   8d7c4:	f100001f 	cmp	x0, #0x0
   8d7c8:	54000061 	b.ne	8d7d4 <CEcoInterfaceBus1_42757331_QueryInterface+0x3c>  // b.any
   8d7cc:	12800000 	mov	w0, #0xffffffff            	// #-1
   8d7d0:	1400004c 	b	8d900 <CEcoInterfaceBus1_42757331_QueryInterface+0x168>
   8d7d4:	d00001e0 	adrp	x0, cb000 <BitFont+0xe10>
   8d7d8:	9112c000 	add	x0, x0, #0x4b0
   8d7dc:	aa0003e1 	mov	x1, x0
   8d7e0:	f94013a0 	ldr	x0, [x29, #32]
   8d7e4:	97fffe6f 	bl	8d1a0 <IsEqualUGUID_00000000000000000000000042757331>
   8d7e8:	12001c00 	and	w0, w0, #0xff
   8d7ec:	7100001f 	cmp	w0, #0x0
   8d7f0:	54000140 	b.eq	8d818 <CEcoInterfaceBus1_42757331_QueryInterface+0x80>  // b.none
   8d7f4:	f9401fa1 	ldr	x1, [x29, #56]
   8d7f8:	f9400fa0 	ldr	x0, [x29, #24]
   8d7fc:	f9000001 	str	x1, [x0]
   8d800:	f9401fa0 	ldr	x0, [x29, #56]
   8d804:	f9400000 	ldr	x0, [x0]
   8d808:	f9400401 	ldr	x1, [x0, #8]
   8d80c:	f9401fa0 	ldr	x0, [x29, #56]
   8d810:	d63f0020 	blr	x1
   8d814:	1400003a 	b	8d8fc <CEcoInterfaceBus1_42757331_QueryInterface+0x164>
   8d818:	d00001e0 	adrp	x0, cb000 <BitFont+0xe10>
   8d81c:	91132000 	add	x0, x0, #0x4c8
   8d820:	aa0003e1 	mov	x1, x0
   8d824:	f94013a0 	ldr	x0, [x29, #32]
   8d828:	97fffe5e 	bl	8d1a0 <IsEqualUGUID_00000000000000000000000042757331>
   8d82c:	12001c00 	and	w0, w0, #0xff
   8d830:	7100001f 	cmp	w0, #0x0
   8d834:	54000160 	b.eq	8d860 <CEcoInterfaceBus1_42757331_QueryInterface+0xc8>  // b.none
   8d838:	f9401fa0 	ldr	x0, [x29, #56]
   8d83c:	91002001 	add	x1, x0, #0x8
   8d840:	f9400fa0 	ldr	x0, [x29, #24]
   8d844:	f9000001 	str	x1, [x0]
   8d848:	f9401fa0 	ldr	x0, [x29, #56]
   8d84c:	f9400000 	ldr	x0, [x0]
   8d850:	f9400401 	ldr	x1, [x0, #8]
   8d854:	f9401fa0 	ldr	x0, [x29, #56]
   8d858:	d63f0020 	blr	x1
   8d85c:	14000028 	b	8d8fc <CEcoInterfaceBus1_42757331_QueryInterface+0x164>
   8d860:	d00001e0 	adrp	x0, cb000 <BitFont+0xe10>
   8d864:	91144000 	add	x0, x0, #0x510
   8d868:	aa0003e1 	mov	x1, x0
   8d86c:	f94013a0 	ldr	x0, [x29, #32]
   8d870:	97fffe4c 	bl	8d1a0 <IsEqualUGUID_00000000000000000000000042757331>
   8d874:	12001c00 	and	w0, w0, #0xff
   8d878:	7100001f 	cmp	w0, #0x0
   8d87c:	54000160 	b.eq	8d8a8 <CEcoInterfaceBus1_42757331_QueryInterface+0x110>  // b.none
   8d880:	f9401fa0 	ldr	x0, [x29, #56]
   8d884:	91004001 	add	x1, x0, #0x10
   8d888:	f9400fa0 	ldr	x0, [x29, #24]
   8d88c:	f9000001 	str	x1, [x0]
   8d890:	f9401fa0 	ldr	x0, [x29, #56]
   8d894:	f9400000 	ldr	x0, [x0]
   8d898:	f9400401 	ldr	x1, [x0, #8]
   8d89c:	f9401fa0 	ldr	x0, [x29, #56]
   8d8a0:	d63f0020 	blr	x1
   8d8a4:	14000016 	b	8d8fc <CEcoInterfaceBus1_42757331_QueryInterface+0x164>
   8d8a8:	d00001e0 	adrp	x0, cb000 <BitFont+0xe10>
   8d8ac:	9111a000 	add	x0, x0, #0x468
   8d8b0:	aa0003e1 	mov	x1, x0
   8d8b4:	f94013a0 	ldr	x0, [x29, #32]
   8d8b8:	97fffe3a 	bl	8d1a0 <IsEqualUGUID_00000000000000000000000042757331>
   8d8bc:	12001c00 	and	w0, w0, #0xff
   8d8c0:	7100001f 	cmp	w0, #0x0
   8d8c4:	54000140 	b.eq	8d8ec <CEcoInterfaceBus1_42757331_QueryInterface+0x154>  // b.none
   8d8c8:	f9401fa1 	ldr	x1, [x29, #56]
   8d8cc:	f9400fa0 	ldr	x0, [x29, #24]
   8d8d0:	f9000001 	str	x1, [x0]
   8d8d4:	f9401fa0 	ldr	x0, [x29, #56]
   8d8d8:	f9400000 	ldr	x0, [x0]
   8d8dc:	f9400401 	ldr	x1, [x0, #8]
   8d8e0:	f9401fa0 	ldr	x0, [x29, #56]
   8d8e4:	d63f0020 	blr	x1
   8d8e8:	14000005 	b	8d8fc <CEcoInterfaceBus1_42757331_QueryInterface+0x164>
   8d8ec:	f9400fa0 	ldr	x0, [x29, #24]
   8d8f0:	f900001f 	str	xzr, [x0]
   8d8f4:	12800000 	mov	w0, #0xffffffff            	// #-1
   8d8f8:	14000002 	b	8d900 <CEcoInterfaceBus1_42757331_QueryInterface+0x168>
   8d8fc:	52800000 	mov	w0, #0x0                   	// #0
   8d900:	a8c47bfd 	ldp	x29, x30, [sp], #64
   8d904:	d65f03c0 	ret

000000000008d908 <CEcoInterfaceBus1_42757331_AddRef>:
   8d908:	d10083ff 	sub	sp, sp, #0x20
   8d90c:	f90007e0 	str	x0, [sp, #8]
   8d910:	f94007e0 	ldr	x0, [sp, #8]
   8d914:	f9000fe0 	str	x0, [sp, #24]
   8d918:	f94007e0 	ldr	x0, [sp, #8]
   8d91c:	f100001f 	cmp	x0, #0x0
   8d920:	54000061 	b.ne	8d92c <CEcoInterfaceBus1_42757331_AddRef+0x24>  // b.any
   8d924:	12800000 	mov	w0, #0xffffffff            	// #-1
   8d928:	14000008 	b	8d948 <CEcoInterfaceBus1_42757331_AddRef+0x40>
   8d92c:	f9400fe0 	ldr	x0, [sp, #24]
   8d930:	b9401800 	ldr	w0, [x0, #24]
   8d934:	11000401 	add	w1, w0, #0x1
   8d938:	f9400fe0 	ldr	x0, [sp, #24]
   8d93c:	b9001801 	str	w1, [x0, #24]
   8d940:	f9400fe0 	ldr	x0, [sp, #24]
   8d944:	b9401800 	ldr	w0, [x0, #24]
   8d948:	910083ff 	add	sp, sp, #0x20
   8d94c:	d65f03c0 	ret

000000000008d950 <CEcoInterfaceBus1_42757331_Release>:
   8d950:	a9bd7bfd 	stp	x29, x30, [sp, #-48]!
   8d954:	910003fd 	mov	x29, sp
   8d958:	f9000fa0 	str	x0, [x29, #24]
   8d95c:	f9400fa0 	ldr	x0, [x29, #24]
   8d960:	f90017a0 	str	x0, [x29, #40]
   8d964:	f9400fa0 	ldr	x0, [x29, #24]
   8d968:	f100001f 	cmp	x0, #0x0
   8d96c:	54000061 	b.ne	8d978 <CEcoInterfaceBus1_42757331_Release+0x28>  // b.any
   8d970:	12800000 	mov	w0, #0xffffffff            	// #-1
   8d974:	14000010 	b	8d9b4 <CEcoInterfaceBus1_42757331_Release+0x64>
   8d978:	f94017a0 	ldr	x0, [x29, #40]
   8d97c:	b9401800 	ldr	w0, [x0, #24]
   8d980:	51000401 	sub	w1, w0, #0x1
   8d984:	f94017a0 	ldr	x0, [x29, #40]
   8d988:	b9001801 	str	w1, [x0, #24]
   8d98c:	f94017a0 	ldr	x0, [x29, #40]
   8d990:	b9401800 	ldr	w0, [x0, #24]
   8d994:	7100001f 	cmp	w0, #0x0
   8d998:	540000a1 	b.ne	8d9ac <CEcoInterfaceBus1_42757331_Release+0x5c>  // b.any
   8d99c:	f9400fa0 	ldr	x0, [x29, #24]
   8d9a0:	94000351 	bl	8e6e4 <deleteCEcoInterfaceBus1_42757331>
   8d9a4:	52800000 	mov	w0, #0x0                   	// #0
   8d9a8:	14000003 	b	8d9b4 <CEcoInterfaceBus1_42757331_Release+0x64>
   8d9ac:	f94017a0 	ldr	x0, [x29, #40]
   8d9b0:	b9401800 	ldr	w0, [x0, #24]
   8d9b4:	a8c37bfd 	ldp	x29, x30, [sp], #48
   8d9b8:	d65f03c0 	ret

000000000008d9bc <CEcoInterfaceBus1_42757331_Init>:
   8d9bc:	d10043ff 	sub	sp, sp, #0x10
   8d9c0:	f90007e0 	str	x0, [sp, #8]
   8d9c4:	f94007e0 	ldr	x0, [sp, #8]
   8d9c8:	f100001f 	cmp	x0, #0x0
   8d9cc:	54000061 	b.ne	8d9d8 <CEcoInterfaceBus1_42757331_Init+0x1c>  // b.any
   8d9d0:	12800000 	mov	w0, #0xffffffff            	// #-1
   8d9d4:	14000002 	b	8d9dc <CEcoInterfaceBus1_42757331_Init+0x20>
   8d9d8:	52800000 	mov	w0, #0x0                   	// #0
   8d9dc:	910043ff 	add	sp, sp, #0x10
   8d9e0:	d65f03c0 	ret

000000000008d9e4 <CEcoInterfaceBus1_42757331_InitWith>:
   8d9e4:	d10083ff 	sub	sp, sp, #0x20
   8d9e8:	f9000fe0 	str	x0, [sp, #24]
   8d9ec:	f9000be1 	str	x1, [sp, #16]
   8d9f0:	b9000fe2 	str	w2, [sp, #12]
   8d9f4:	f9400fe0 	ldr	x0, [sp, #24]
   8d9f8:	f100001f 	cmp	x0, #0x0
   8d9fc:	54000061 	b.ne	8da08 <CEcoInterfaceBus1_42757331_InitWith+0x24>  // b.any
   8da00:	12800000 	mov	w0, #0xffffffff            	// #-1
   8da04:	14000002 	b	8da0c <CEcoInterfaceBus1_42757331_InitWith+0x28>
   8da08:	52800000 	mov	w0, #0x0                   	// #0
   8da0c:	910083ff 	add	sp, sp, #0x20
   8da10:	d65f03c0 	ret

000000000008da14 <CEcoInterfaceBus1_42757331_RegisterComponent>:
   8da14:	a9bb7bfd 	stp	x29, x30, [sp, #-80]!
   8da18:	910003fd 	mov	x29, sp
   8da1c:	f90017a0 	str	x0, [x29, #40]
   8da20:	f90013a1 	str	x1, [x29, #32]
   8da24:	f9000fa2 	str	x2, [x29, #24]
   8da28:	f94017a0 	ldr	x0, [x29, #40]
   8da2c:	f9001ba0 	str	x0, [x29, #48]
   8da30:	f90027bf 	str	xzr, [x29, #72]
   8da34:	f90023bf 	str	xzr, [x29, #64]
   8da38:	b9003fbf 	str	wzr, [x29, #60]
   8da3c:	12800000 	mov	w0, #0xffffffff            	// #-1
   8da40:	790077a0 	strh	w0, [x29, #58]
   8da44:	f94017a0 	ldr	x0, [x29, #40]
   8da48:	f100001f 	cmp	x0, #0x0
   8da4c:	54000061 	b.ne	8da58 <CEcoInterfaceBus1_42757331_RegisterComponent+0x44>  // b.any
   8da50:	12800000 	mov	w0, #0xffffffff            	// #-1
   8da54:	14000076 	b	8dc2c <CEcoInterfaceBus1_42757331_RegisterComponent+0x218>
   8da58:	f9401ba0 	ldr	x0, [x29, #48]
   8da5c:	f9401400 	ldr	x0, [x0, #40]
   8da60:	f90027a0 	str	x0, [x29, #72]
   8da64:	f9401ba0 	ldr	x0, [x29, #48]
   8da68:	f9401400 	ldr	x0, [x0, #40]
   8da6c:	f90023a0 	str	x0, [x29, #64]
   8da70:	f94027a0 	ldr	x0, [x29, #72]
   8da74:	f9401400 	ldr	x0, [x0, #40]
   8da78:	f100001f 	cmp	x0, #0x0
   8da7c:	54000341 	b.ne	8dae4 <CEcoInterfaceBus1_42757331_RegisterComponent+0xd0>  // b.any
   8da80:	f94027a0 	ldr	x0, [x29, #72]
   8da84:	f94013a1 	ldr	x1, [x29, #32]
   8da88:	f9001001 	str	x1, [x0, #32]
   8da8c:	f94027a0 	ldr	x0, [x29, #72]
   8da90:	f9400fa1 	ldr	x1, [x29, #24]
   8da94:	f9001401 	str	x1, [x0, #40]
   8da98:	f94027a0 	ldr	x0, [x29, #72]
   8da9c:	d0000001 	adrp	x1, 8f000 <_malloc_r+0x818>
   8daa0:	913f0021 	add	x1, x1, #0xfc0
   8daa4:	f9000001 	str	x1, [x0]
   8daa8:	f94027a0 	ldr	x0, [x29, #72]
   8daac:	52800021 	mov	w1, #0x1                   	// #1
   8dab0:	b9000801 	str	w1, [x0, #8]
   8dab4:	f9401ba1 	ldr	x1, [x29, #48]
   8dab8:	f94027a0 	ldr	x0, [x29, #72]
   8dabc:	f9000c01 	str	x1, [x0, #24]
   8dac0:	f94023a1 	ldr	x1, [x29, #64]
   8dac4:	f94027a0 	ldr	x0, [x29, #72]
   8dac8:	eb00003f 	cmp	x1, x0
   8dacc:	54000080 	b.eq	8dadc <CEcoInterfaceBus1_42757331_RegisterComponent+0xc8>  // b.none
   8dad0:	f94023a0 	ldr	x0, [x29, #64]
   8dad4:	f94027a1 	ldr	x1, [x29, #72]
   8dad8:	f9001801 	str	x1, [x0, #48]
   8dadc:	790077bf 	strh	wzr, [x29, #58]
   8dae0:	14000052 	b	8dc28 <CEcoInterfaceBus1_42757331_RegisterComponent+0x214>
   8dae4:	f94027a0 	ldr	x0, [x29, #72]
   8dae8:	f90023a0 	str	x0, [x29, #64]
   8daec:	b9403fa0 	ldr	w0, [x29, #60]
   8daf0:	11000400 	add	w0, w0, #0x1
   8daf4:	b9003fa0 	str	w0, [x29, #60]
   8daf8:	b9403fa0 	ldr	w0, [x29, #60]
   8dafc:	7100101f 	cmp	w0, #0x4
   8db00:	54000128 	b.hi	8db24 <CEcoInterfaceBus1_42757331_RegisterComponent+0x110>  // b.pmore
   8db04:	f9401ba0 	ldr	x0, [x29, #48]
   8db08:	f9401401 	ldr	x1, [x0, #40]
   8db0c:	b9403fa2 	ldr	w2, [x29, #60]
   8db10:	d2800700 	mov	x0, #0x38                  	// #56
   8db14:	9b007c40 	mul	x0, x2, x0
   8db18:	8b000020 	add	x0, x1, x0
   8db1c:	f90027a0 	str	x0, [x29, #72]
   8db20:	1400003f 	b	8dc1c <CEcoInterfaceBus1_42757331_RegisterComponent+0x208>
   8db24:	f94027a0 	ldr	x0, [x29, #72]
   8db28:	f9401800 	ldr	x0, [x0, #48]
   8db2c:	f100001f 	cmp	x0, #0x0
   8db30:	540000a0 	b.eq	8db44 <CEcoInterfaceBus1_42757331_RegisterComponent+0x130>  // b.none
   8db34:	f94027a0 	ldr	x0, [x29, #72]
   8db38:	f9401800 	ldr	x0, [x0, #48]
   8db3c:	f90027a0 	str	x0, [x29, #72]
   8db40:	14000037 	b	8dc1c <CEcoInterfaceBus1_42757331_RegisterComponent+0x208>
   8db44:	f9401ba0 	ldr	x0, [x29, #48]
   8db48:	39418000 	ldrb	w0, [x0, #96]
   8db4c:	7100001f 	cmp	w0, #0x0
   8db50:	54000660 	b.eq	8dc1c <CEcoInterfaceBus1_42757331_RegisterComponent+0x208>  // b.none
   8db54:	79c077a0 	ldrsh	w0, [x29, #58]
   8db58:	7100001f 	cmp	w0, #0x0
   8db5c:	54000600 	b.eq	8dc1c <CEcoInterfaceBus1_42757331_RegisterComponent+0x208>  // b.none
   8db60:	f9401ba0 	ldr	x0, [x29, #48]
   8db64:	f9402800 	ldr	x0, [x0, #80]
   8db68:	f100001f 	cmp	x0, #0x0
   8db6c:	54000321 	b.ne	8dbd0 <CEcoInterfaceBus1_42757331_RegisterComponent+0x1bc>  // b.any
   8db70:	f94017a0 	ldr	x0, [x29, #40]
   8db74:	f9400000 	ldr	x0, [x0]
   8db78:	f9401c05 	ldr	x5, [x0, #56]
   8db7c:	f9401ba0 	ldr	x0, [x29, #48]
   8db80:	f9402c01 	ldr	x1, [x0, #88]
   8db84:	f9401ba0 	ldr	x0, [x29, #48]
   8db88:	91014002 	add	x2, x0, #0x50
   8db8c:	d00001e0 	adrp	x0, cb000 <BitFont+0xe10>
   8db90:	91138000 	add	x0, x0, #0x4e0
   8db94:	aa0203e4 	mov	x4, x2
   8db98:	aa0003e3 	mov	x3, x0
   8db9c:	d2800002 	mov	x2, #0x0                   	// #0
   8dba0:	f94017a0 	ldr	x0, [x29, #40]
   8dba4:	d63f00a0 	blr	x5
   8dba8:	790077a0 	strh	w0, [x29, #58]
   8dbac:	79c077a0 	ldrsh	w0, [x29, #58]
   8dbb0:	7100001f 	cmp	w0, #0x0
   8dbb4:	540000a1 	b.ne	8dbc8 <CEcoInterfaceBus1_42757331_RegisterComponent+0x1b4>  // b.any
   8dbb8:	f9401ba0 	ldr	x0, [x29, #48]
   8dbbc:	f9402800 	ldr	x0, [x0, #80]
   8dbc0:	f100001f 	cmp	x0, #0x0
   8dbc4:	54000061 	b.ne	8dbd0 <CEcoInterfaceBus1_42757331_RegisterComponent+0x1bc>  // b.any
   8dbc8:	79c077a0 	ldrsh	w0, [x29, #58]
   8dbcc:	14000018 	b	8dc2c <CEcoInterfaceBus1_42757331_RegisterComponent+0x218>
   8dbd0:	f9401ba0 	ldr	x0, [x29, #48]
   8dbd4:	f9402800 	ldr	x0, [x0, #80]
   8dbd8:	f9400000 	ldr	x0, [x0]
   8dbdc:	f9400c02 	ldr	x2, [x0, #24]
   8dbe0:	f9401ba0 	ldr	x0, [x29, #48]
   8dbe4:	f9402800 	ldr	x0, [x0, #80]
   8dbe8:	52800701 	mov	w1, #0x38                  	// #56
   8dbec:	d63f0040 	blr	x2
   8dbf0:	f90027a0 	str	x0, [x29, #72]
   8dbf4:	f94027a0 	ldr	x0, [x29, #72]
   8dbf8:	f100001f 	cmp	x0, #0x0
   8dbfc:	54000061 	b.ne	8dc08 <CEcoInterfaceBus1_42757331_RegisterComponent+0x1f4>  // b.any
   8dc00:	79c077a0 	ldrsh	w0, [x29, #58]
   8dc04:	1400000a 	b	8dc2c <CEcoInterfaceBus1_42757331_RegisterComponent+0x218>
   8dc08:	f94027a0 	ldr	x0, [x29, #72]
   8dc0c:	f900141f 	str	xzr, [x0, #40]
   8dc10:	f94027a0 	ldr	x0, [x29, #72]
   8dc14:	f900181f 	str	xzr, [x0, #48]
   8dc18:	d503201f 	nop
   8dc1c:	f94027a0 	ldr	x0, [x29, #72]
   8dc20:	f100001f 	cmp	x0, #0x0
   8dc24:	54fff261 	b.ne	8da70 <CEcoInterfaceBus1_42757331_RegisterComponent+0x5c>  // b.any
   8dc28:	79c077a0 	ldrsh	w0, [x29, #58]
   8dc2c:	a8c57bfd 	ldp	x29, x30, [sp], #80
   8dc30:	d65f03c0 	ret

000000000008dc34 <CEcoInterfaceBus1_42757331_UnRegisterComponent>:
   8dc34:	a9bc7bfd 	stp	x29, x30, [sp, #-64]!
   8dc38:	910003fd 	mov	x29, sp
   8dc3c:	f9000fa0 	str	x0, [x29, #24]
   8dc40:	f9000ba1 	str	x1, [x29, #16]
   8dc44:	f9400fa0 	ldr	x0, [x29, #24]
   8dc48:	f90017a0 	str	x0, [x29, #40]
   8dc4c:	f9001fbf 	str	xzr, [x29, #56]
   8dc50:	12800000 	mov	w0, #0xffffffff            	// #-1
   8dc54:	79006fa0 	strh	w0, [x29, #54]
   8dc58:	f9400fa0 	ldr	x0, [x29, #24]
   8dc5c:	f100001f 	cmp	x0, #0x0
   8dc60:	54000061 	b.ne	8dc6c <CEcoInterfaceBus1_42757331_UnRegisterComponent+0x38>  // b.any
   8dc64:	12800000 	mov	w0, #0xffffffff            	// #-1
   8dc68:	1400001d 	b	8dcdc <CEcoInterfaceBus1_42757331_UnRegisterComponent+0xa8>
   8dc6c:	f94017a0 	ldr	x0, [x29, #40]
   8dc70:	f9401400 	ldr	x0, [x0, #40]
   8dc74:	f9001fa0 	str	x0, [x29, #56]
   8dc78:	f9401fa0 	ldr	x0, [x29, #56]
   8dc7c:	f9401000 	ldr	x0, [x0, #32]
   8dc80:	aa0003e1 	mov	x1, x0
   8dc84:	f9400ba0 	ldr	x0, [x29, #16]
   8dc88:	97fffd46 	bl	8d1a0 <IsEqualUGUID_00000000000000000000000042757331>
   8dc8c:	12001c00 	and	w0, w0, #0xff
   8dc90:	7100001f 	cmp	w0, #0x0
   8dc94:	54000160 	b.eq	8dcc0 <CEcoInterfaceBus1_42757331_UnRegisterComponent+0x8c>  // b.none
   8dc98:	f9401fa0 	ldr	x0, [x29, #56]
   8dc9c:	f900141f 	str	xzr, [x0, #40]
   8dca0:	f9401fa0 	ldr	x0, [x29, #56]
   8dca4:	b900081f 	str	wzr, [x0, #8]
   8dca8:	f9401fa0 	ldr	x0, [x29, #56]
   8dcac:	f9000c1f 	str	xzr, [x0, #24]
   8dcb0:	f9401fa0 	ldr	x0, [x29, #56]
   8dcb4:	f900101f 	str	xzr, [x0, #32]
   8dcb8:	79006fbf 	strh	wzr, [x29, #54]
   8dcbc:	14000007 	b	8dcd8 <CEcoInterfaceBus1_42757331_UnRegisterComponent+0xa4>
   8dcc0:	f9401fa0 	ldr	x0, [x29, #56]
   8dcc4:	f9401800 	ldr	x0, [x0, #48]
   8dcc8:	f9001fa0 	str	x0, [x29, #56]
   8dccc:	f9401fa0 	ldr	x0, [x29, #56]
   8dcd0:	f100001f 	cmp	x0, #0x0
   8dcd4:	54fffd21 	b.ne	8dc78 <CEcoInterfaceBus1_42757331_UnRegisterComponent+0x44>  // b.any
   8dcd8:	79c06fa0 	ldrsh	w0, [x29, #54]
   8dcdc:	a8c47bfd 	ldp	x29, x30, [sp], #64
   8dce0:	d65f03c0 	ret

000000000008dce4 <CEcoInterfaceBus1_42757331_to_hex>:
   8dce4:	d10103ff 	sub	sp, sp, #0x40
   8dce8:	f9000fe0 	str	x0, [sp, #24]
   8dcec:	b90017e1 	str	w1, [sp, #20]
   8dcf0:	f90007e2 	str	x2, [sp, #8]
   8dcf4:	b90013e3 	str	w3, [sp, #16]
   8dcf8:	f9400fe0 	ldr	x0, [sp, #24]
   8dcfc:	f9001fe0 	str	x0, [sp, #56]
   8dd00:	d00001e0 	adrp	x0, cb000 <BitFont+0xe10>
   8dd04:	9116c000 	add	x0, x0, #0x5b0
   8dd08:	f90017e0 	str	x0, [sp, #40]
   8dd0c:	f94007e0 	ldr	x0, [sp, #8]
   8dd10:	f9001be0 	str	x0, [sp, #48]
   8dd14:	14000024 	b	8dda4 <CEcoInterfaceBus1_42757331_to_hex+0xc0>
   8dd18:	f9401fe0 	ldr	x0, [sp, #56]
   8dd1c:	39400000 	ldrb	w0, [x0]
   8dd20:	53047c00 	lsr	w0, w0, #4
   8dd24:	12001c00 	and	w0, w0, #0xff
   8dd28:	92401c00 	and	x0, x0, #0xff
   8dd2c:	92400c00 	and	x0, x0, #0xf
   8dd30:	f94017e1 	ldr	x1, [sp, #40]
   8dd34:	8b000020 	add	x0, x1, x0
   8dd38:	39400001 	ldrb	w1, [x0]
   8dd3c:	f9401be0 	ldr	x0, [sp, #48]
   8dd40:	39000001 	strb	w1, [x0]
   8dd44:	f9401fe0 	ldr	x0, [sp, #56]
   8dd48:	39400000 	ldrb	w0, [x0]
   8dd4c:	92401c00 	and	x0, x0, #0xff
   8dd50:	92400c00 	and	x0, x0, #0xf
   8dd54:	f94017e1 	ldr	x1, [sp, #40]
   8dd58:	8b000021 	add	x1, x1, x0
   8dd5c:	f9401be0 	ldr	x0, [sp, #48]
   8dd60:	91000400 	add	x0, x0, #0x1
   8dd64:	39400021 	ldrb	w1, [x1]
   8dd68:	39000001 	strb	w1, [x0]
   8dd6c:	f9401be0 	ldr	x0, [sp, #48]
   8dd70:	91000800 	add	x0, x0, #0x2
   8dd74:	aa0003e1 	mov	x1, x0
   8dd78:	f94007e0 	ldr	x0, [sp, #8]
   8dd7c:	cb000021 	sub	x1, x1, x0
   8dd80:	b94013e0 	ldr	w0, [sp, #16]
   8dd84:	eb00003f 	cmp	x1, x0
   8dd88:	540001cc 	b.gt	8ddc0 <CEcoInterfaceBus1_42757331_to_hex+0xdc>
   8dd8c:	f9401be0 	ldr	x0, [sp, #48]
   8dd90:	91000800 	add	x0, x0, #0x2
   8dd94:	f9001be0 	str	x0, [sp, #48]
   8dd98:	f9401fe0 	ldr	x0, [sp, #56]
   8dd9c:	91000400 	add	x0, x0, #0x1
   8dda0:	f9001fe0 	str	x0, [sp, #56]
   8dda4:	b94017e0 	ldr	w0, [sp, #20]
   8dda8:	f9400fe1 	ldr	x1, [sp, #24]
   8ddac:	8b000020 	add	x0, x1, x0
   8ddb0:	f9401fe1 	ldr	x1, [sp, #56]
   8ddb4:	eb00003f 	cmp	x1, x0
   8ddb8:	54fffb03 	b.cc	8dd18 <CEcoInterfaceBus1_42757331_to_hex+0x34>  // b.lo, b.ul, b.last
   8ddbc:	14000002 	b	8ddc4 <CEcoInterfaceBus1_42757331_to_hex+0xe0>
   8ddc0:	d503201f 	nop
   8ddc4:	f9401be0 	ldr	x0, [sp, #48]
   8ddc8:	3900001f 	strb	wzr, [x0]
   8ddcc:	d503201f 	nop
   8ddd0:	910103ff 	add	sp, sp, #0x40
   8ddd4:	d65f03c0 	ret

000000000008ddd8 <CEcoInterfaceBus1_42757331_QueryComponent>:
   8ddd8:	a9b97bfd 	stp	x29, x30, [sp, #-112]!
   8dddc:	910003fd 	mov	x29, sp
   8dde0:	f9001fa0 	str	x0, [x29, #56]
   8dde4:	f9001ba1 	str	x1, [x29, #48]
   8dde8:	f90017a2 	str	x2, [x29, #40]
   8ddec:	f90013a3 	str	x3, [x29, #32]
   8ddf0:	f9000fa4 	str	x4, [x29, #24]
   8ddf4:	f9401fa0 	ldr	x0, [x29, #56]
   8ddf8:	f9002fa0 	str	x0, [x29, #88]
   8ddfc:	f90037bf 	str	xzr, [x29, #104]
   8de00:	f9002bbf 	str	xzr, [x29, #80]
   8de04:	f90027bf 	str	xzr, [x29, #72]
   8de08:	12800000 	mov	w0, #0xffffffff            	// #-1
   8de0c:	7900cfa0 	strh	w0, [x29, #102]
   8de10:	f9401fa0 	ldr	x0, [x29, #56]
   8de14:	f100001f 	cmp	x0, #0x0
   8de18:	54000061 	b.ne	8de24 <CEcoInterfaceBus1_42757331_QueryComponent+0x4c>  // b.any
   8de1c:	12800000 	mov	w0, #0xffffffff            	// #-1
   8de20:	1400002a 	b	8dec8 <CEcoInterfaceBus1_42757331_QueryComponent+0xf0>
   8de24:	f9402fa0 	ldr	x0, [x29, #88]
   8de28:	f9401400 	ldr	x0, [x0, #40]
   8de2c:	f90037a0 	str	x0, [x29, #104]
   8de30:	f94037a0 	ldr	x0, [x29, #104]
   8de34:	f9401000 	ldr	x0, [x0, #32]
   8de38:	aa0003e1 	mov	x1, x0
   8de3c:	f9401ba0 	ldr	x0, [x29, #48]
   8de40:	97fffcd8 	bl	8d1a0 <IsEqualUGUID_00000000000000000000000042757331>
   8de44:	12001c00 	and	w0, w0, #0xff
   8de48:	7100001f 	cmp	w0, #0x0
   8de4c:	54000300 	b.eq	8deac <CEcoInterfaceBus1_42757331_QueryComponent+0xd4>  // b.none
   8de50:	f94037a0 	ldr	x0, [x29, #104]
   8de54:	f9401400 	ldr	x0, [x0, #40]
   8de58:	f9002ba0 	str	x0, [x29, #80]
   8de5c:	f94037a0 	ldr	x0, [x29, #104]
   8de60:	f9401400 	ldr	x0, [x0, #40]
   8de64:	f9400000 	ldr	x0, [x0]
   8de68:	f90027a0 	str	x0, [x29, #72]
   8de6c:	f9402ba0 	ldr	x0, [x29, #80]
   8de70:	f9400000 	ldr	x0, [x0]
   8de74:	f9400c05 	ldr	x5, [x0, #24]
   8de78:	f94037a0 	ldr	x0, [x29, #104]
   8de7c:	f9400fa4 	ldr	x4, [x29, #24]
   8de80:	f94013a3 	ldr	x3, [x29, #32]
   8de84:	f94017a2 	ldr	x2, [x29, #40]
   8de88:	aa0003e1 	mov	x1, x0
   8de8c:	f9402ba0 	ldr	x0, [x29, #80]
   8de90:	d63f00a0 	blr	x5
   8de94:	7900cfa0 	strh	w0, [x29, #102]
   8de98:	f94037a0 	ldr	x0, [x29, #104]
   8de9c:	f9401400 	ldr	x0, [x0, #40]
   8dea0:	f94027a1 	ldr	x1, [x29, #72]
   8dea4:	f9000001 	str	x1, [x0]
   8dea8:	14000007 	b	8dec4 <CEcoInterfaceBus1_42757331_QueryComponent+0xec>
   8deac:	f94037a0 	ldr	x0, [x29, #104]
   8deb0:	f9401800 	ldr	x0, [x0, #48]
   8deb4:	f90037a0 	str	x0, [x29, #104]
   8deb8:	f94037a0 	ldr	x0, [x29, #104]
   8debc:	f100001f 	cmp	x0, #0x0
   8dec0:	54fffb81 	b.ne	8de30 <CEcoInterfaceBus1_42757331_QueryComponent+0x58>  // b.any
   8dec4:	79c0cfa0 	ldrsh	w0, [x29, #102]
   8dec8:	a8c77bfd 	ldp	x29, x30, [sp], #112
   8decc:	d65f03c0 	ret

000000000008ded0 <CEcoInterfaceBus1_42757331_IEcoError1_QueryInterface>:
   8ded0:	a9bc7bfd 	stp	x29, x30, [sp, #-64]!
   8ded4:	910003fd 	mov	x29, sp
   8ded8:	f90017a0 	str	x0, [x29, #40]
   8dedc:	f90013a1 	str	x1, [x29, #32]
   8dee0:	f9000fa2 	str	x2, [x29, #24]
   8dee4:	f94017a0 	ldr	x0, [x29, #40]
   8dee8:	d1002000 	sub	x0, x0, #0x8
   8deec:	f9001fa0 	str	x0, [x29, #56]
   8def0:	12800000 	mov	w0, #0xffffffff            	// #-1
   8def4:	79006fa0 	strh	w0, [x29, #54]
   8def8:	f94017a0 	ldr	x0, [x29, #40]
   8defc:	f100001f 	cmp	x0, #0x0
   8df00:	54000080 	b.eq	8df10 <CEcoInterfaceBus1_42757331_IEcoError1_QueryInterface+0x40>  // b.none
   8df04:	f9400fa0 	ldr	x0, [x29, #24]
   8df08:	f100001f 	cmp	x0, #0x0
   8df0c:	54000061 	b.ne	8df18 <CEcoInterfaceBus1_42757331_IEcoError1_QueryInterface+0x48>  // b.any
   8df10:	79c06fa0 	ldrsh	w0, [x29, #54]
   8df14:	1400004c 	b	8e044 <CEcoInterfaceBus1_42757331_IEcoError1_QueryInterface+0x174>
   8df18:	d00001e0 	adrp	x0, cb000 <BitFont+0xe10>
   8df1c:	9112c000 	add	x0, x0, #0x4b0
   8df20:	aa0003e1 	mov	x1, x0
   8df24:	f94013a0 	ldr	x0, [x29, #32]
   8df28:	97fffc9e 	bl	8d1a0 <IsEqualUGUID_00000000000000000000000042757331>
   8df2c:	12001c00 	and	w0, w0, #0xff
   8df30:	7100001f 	cmp	w0, #0x0
   8df34:	54000140 	b.eq	8df5c <CEcoInterfaceBus1_42757331_IEcoError1_QueryInterface+0x8c>  // b.none
   8df38:	f9401fa1 	ldr	x1, [x29, #56]
   8df3c:	f9400fa0 	ldr	x0, [x29, #24]
   8df40:	f9000001 	str	x1, [x0]
   8df44:	f9401fa0 	ldr	x0, [x29, #56]
   8df48:	f9400000 	ldr	x0, [x0]
   8df4c:	f9400401 	ldr	x1, [x0, #8]
   8df50:	f9401fa0 	ldr	x0, [x29, #56]
   8df54:	d63f0020 	blr	x1
   8df58:	1400003a 	b	8e040 <CEcoInterfaceBus1_42757331_IEcoError1_QueryInterface+0x170>
   8df5c:	d00001e0 	adrp	x0, cb000 <BitFont+0xe10>
   8df60:	91132000 	add	x0, x0, #0x4c8
   8df64:	aa0003e1 	mov	x1, x0
   8df68:	f94013a0 	ldr	x0, [x29, #32]
   8df6c:	97fffc8d 	bl	8d1a0 <IsEqualUGUID_00000000000000000000000042757331>
   8df70:	12001c00 	and	w0, w0, #0xff
   8df74:	7100001f 	cmp	w0, #0x0
   8df78:	54000160 	b.eq	8dfa4 <CEcoInterfaceBus1_42757331_IEcoError1_QueryInterface+0xd4>  // b.none
   8df7c:	f9401fa0 	ldr	x0, [x29, #56]
   8df80:	91002001 	add	x1, x0, #0x8
   8df84:	f9400fa0 	ldr	x0, [x29, #24]
   8df88:	f9000001 	str	x1, [x0]
   8df8c:	f9401fa0 	ldr	x0, [x29, #56]
   8df90:	f9400000 	ldr	x0, [x0]
   8df94:	f9400401 	ldr	x1, [x0, #8]
   8df98:	f9401fa0 	ldr	x0, [x29, #56]
   8df9c:	d63f0020 	blr	x1
   8dfa0:	14000028 	b	8e040 <CEcoInterfaceBus1_42757331_IEcoError1_QueryInterface+0x170>
   8dfa4:	d00001e0 	adrp	x0, cb000 <BitFont+0xe10>
   8dfa8:	91144000 	add	x0, x0, #0x510
   8dfac:	aa0003e1 	mov	x1, x0
   8dfb0:	f94013a0 	ldr	x0, [x29, #32]
   8dfb4:	97fffc7b 	bl	8d1a0 <IsEqualUGUID_00000000000000000000000042757331>
   8dfb8:	12001c00 	and	w0, w0, #0xff
   8dfbc:	7100001f 	cmp	w0, #0x0
   8dfc0:	54000160 	b.eq	8dfec <CEcoInterfaceBus1_42757331_IEcoError1_QueryInterface+0x11c>  // b.none
   8dfc4:	f9401fa0 	ldr	x0, [x29, #56]
   8dfc8:	91004001 	add	x1, x0, #0x10
   8dfcc:	f9400fa0 	ldr	x0, [x29, #24]
   8dfd0:	f9000001 	str	x1, [x0]
   8dfd4:	f9401fa0 	ldr	x0, [x29, #56]
   8dfd8:	f9400000 	ldr	x0, [x0]
   8dfdc:	f9400401 	ldr	x1, [x0, #8]
   8dfe0:	f9401fa0 	ldr	x0, [x29, #56]
   8dfe4:	d63f0020 	blr	x1
   8dfe8:	14000016 	b	8e040 <CEcoInterfaceBus1_42757331_IEcoError1_QueryInterface+0x170>
   8dfec:	d00001e0 	adrp	x0, cb000 <BitFont+0xe10>
   8dff0:	9111a000 	add	x0, x0, #0x468
   8dff4:	aa0003e1 	mov	x1, x0
   8dff8:	f94013a0 	ldr	x0, [x29, #32]
   8dffc:	97fffc69 	bl	8d1a0 <IsEqualUGUID_00000000000000000000000042757331>
   8e000:	12001c00 	and	w0, w0, #0xff
   8e004:	7100001f 	cmp	w0, #0x0
   8e008:	54000140 	b.eq	8e030 <CEcoInterfaceBus1_42757331_IEcoError1_QueryInterface+0x160>  // b.none
   8e00c:	f9401fa1 	ldr	x1, [x29, #56]
   8e010:	f9400fa0 	ldr	x0, [x29, #24]
   8e014:	f9000001 	str	x1, [x0]
   8e018:	f9401fa0 	ldr	x0, [x29, #56]
   8e01c:	f9400000 	ldr	x0, [x0]
   8e020:	f9400401 	ldr	x1, [x0, #8]
   8e024:	f9401fa0 	ldr	x0, [x29, #56]
   8e028:	d63f0020 	blr	x1
   8e02c:	14000005 	b	8e040 <CEcoInterfaceBus1_42757331_IEcoError1_QueryInterface+0x170>
   8e030:	f9400fa0 	ldr	x0, [x29, #24]
   8e034:	f900001f 	str	xzr, [x0]
   8e038:	12800000 	mov	w0, #0xffffffff            	// #-1
   8e03c:	14000002 	b	8e044 <CEcoInterfaceBus1_42757331_IEcoError1_QueryInterface+0x174>
   8e040:	52800000 	mov	w0, #0x0                   	// #0
   8e044:	a8c47bfd 	ldp	x29, x30, [sp], #64
   8e048:	d65f03c0 	ret

000000000008e04c <CEcoInterfaceBus1_42757331_IEcoError1_AddRef>:
   8e04c:	d10083ff 	sub	sp, sp, #0x20
   8e050:	f90007e0 	str	x0, [sp, #8]
   8e054:	f94007e0 	ldr	x0, [sp, #8]
   8e058:	d1002000 	sub	x0, x0, #0x8
   8e05c:	f9000fe0 	str	x0, [sp, #24]
   8e060:	f94007e0 	ldr	x0, [sp, #8]
   8e064:	f100001f 	cmp	x0, #0x0
   8e068:	54000061 	b.ne	8e074 <CEcoInterfaceBus1_42757331_IEcoError1_AddRef+0x28>  // b.any
   8e06c:	12800000 	mov	w0, #0xffffffff            	// #-1
   8e070:	14000008 	b	8e090 <CEcoInterfaceBus1_42757331_IEcoError1_AddRef+0x44>
   8e074:	f9400fe0 	ldr	x0, [sp, #24]
   8e078:	b9401800 	ldr	w0, [x0, #24]
   8e07c:	11000401 	add	w1, w0, #0x1
   8e080:	f9400fe0 	ldr	x0, [sp, #24]
   8e084:	b9001801 	str	w1, [x0, #24]
   8e088:	f9400fe0 	ldr	x0, [sp, #24]
   8e08c:	b9401800 	ldr	w0, [x0, #24]
   8e090:	910083ff 	add	sp, sp, #0x20
   8e094:	d65f03c0 	ret

000000000008e098 <CEcoInterfaceBus1_42757331_IEcoError1_Release>:
   8e098:	a9bd7bfd 	stp	x29, x30, [sp, #-48]!
   8e09c:	910003fd 	mov	x29, sp
   8e0a0:	f9000fa0 	str	x0, [x29, #24]
   8e0a4:	f9400fa0 	ldr	x0, [x29, #24]
   8e0a8:	d1002000 	sub	x0, x0, #0x8
   8e0ac:	f90017a0 	str	x0, [x29, #40]
   8e0b0:	f9400fa0 	ldr	x0, [x29, #24]
   8e0b4:	f100001f 	cmp	x0, #0x0
   8e0b8:	54000061 	b.ne	8e0c4 <CEcoInterfaceBus1_42757331_IEcoError1_Release+0x2c>  // b.any
   8e0bc:	12800000 	mov	w0, #0xffffffff            	// #-1
   8e0c0:	14000010 	b	8e100 <CEcoInterfaceBus1_42757331_IEcoError1_Release+0x68>
   8e0c4:	f94017a0 	ldr	x0, [x29, #40]
   8e0c8:	b9401800 	ldr	w0, [x0, #24]
   8e0cc:	51000401 	sub	w1, w0, #0x1
   8e0d0:	f94017a0 	ldr	x0, [x29, #40]
   8e0d4:	b9001801 	str	w1, [x0, #24]
   8e0d8:	f94017a0 	ldr	x0, [x29, #40]
   8e0dc:	b9401800 	ldr	w0, [x0, #24]
   8e0e0:	7100001f 	cmp	w0, #0x0
   8e0e4:	540000a1 	b.ne	8e0f8 <CEcoInterfaceBus1_42757331_IEcoError1_Release+0x60>  // b.any
   8e0e8:	f94017a0 	ldr	x0, [x29, #40]
   8e0ec:	9400017e 	bl	8e6e4 <deleteCEcoInterfaceBus1_42757331>
   8e0f0:	52800000 	mov	w0, #0x0                   	// #0
   8e0f4:	14000003 	b	8e100 <CEcoInterfaceBus1_42757331_IEcoError1_Release+0x68>
   8e0f8:	f94017a0 	ldr	x0, [x29, #40]
   8e0fc:	b9401800 	ldr	w0, [x0, #24]
   8e100:	a8c37bfd 	ldp	x29, x30, [sp], #48
   8e104:	d65f03c0 	ret

000000000008e108 <CEcoInterfaceBus1_42757331_IEcoError1_get_Description>:
   8e108:	a9bb7bfd 	stp	x29, x30, [sp, #-80]!
   8e10c:	910003fd 	mov	x29, sp
   8e110:	f90017a0 	str	x0, [x29, #40]
   8e114:	f90013a1 	str	x1, [x29, #32]
   8e118:	f9000fa2 	str	x2, [x29, #24]
   8e11c:	f94017a0 	ldr	x0, [x29, #40]
   8e120:	d1002000 	sub	x0, x0, #0x8
   8e124:	f90023a0 	str	x0, [x29, #64]
   8e128:	79009fbf 	strh	wzr, [x29, #78]
   8e12c:	f9001fbf 	str	xzr, [x29, #56]
   8e130:	f94017a0 	ldr	x0, [x29, #40]
   8e134:	f100001f 	cmp	x0, #0x0
   8e138:	54000061 	b.ne	8e144 <CEcoInterfaceBus1_42757331_IEcoError1_get_Description+0x3c>  // b.any
   8e13c:	12800000 	mov	w0, #0xffffffff            	// #-1
   8e140:	14000065 	b	8e2d4 <CEcoInterfaceBus1_42757331_IEcoError1_get_Description+0x1cc>
   8e144:	f94023a0 	ldr	x0, [x29, #64]
   8e148:	b9403801 	ldr	w1, [x0, #56]
   8e14c:	b0000000 	adrp	x0, 8f000 <_malloc_r+0x818>
   8e150:	913ea000 	add	x0, x0, #0xfa8
   8e154:	2a0103e1 	mov	w1, w1
   8e158:	f8617800 	ldr	x0, [x0, x1, lsl #3]
   8e15c:	f9001fa0 	str	x0, [x29, #56]
   8e160:	14000004 	b	8e170 <CEcoInterfaceBus1_42757331_IEcoError1_get_Description+0x68>
   8e164:	79409fa0 	ldrh	w0, [x29, #78]
   8e168:	11000400 	add	w0, w0, #0x1
   8e16c:	79009fa0 	strh	w0, [x29, #78]
   8e170:	79409fa0 	ldrh	w0, [x29, #78]
   8e174:	f9401fa1 	ldr	x1, [x29, #56]
   8e178:	8b000020 	add	x0, x1, x0
   8e17c:	39400000 	ldrb	w0, [x0]
   8e180:	7100001f 	cmp	w0, #0x0
   8e184:	54ffff01 	b.ne	8e164 <CEcoInterfaceBus1_42757331_IEcoError1_get_Description+0x5c>  // b.any
   8e188:	f94013a0 	ldr	x0, [x29, #32]
   8e18c:	f100001f 	cmp	x0, #0x0
   8e190:	54000141 	b.ne	8e1b8 <CEcoInterfaceBus1_42757331_IEcoError1_get_Description+0xb0>  // b.any
   8e194:	f9400fa0 	ldr	x0, [x29, #24]
   8e198:	f100001f 	cmp	x0, #0x0
   8e19c:	540000e0 	b.eq	8e1b8 <CEcoInterfaceBus1_42757331_IEcoError1_get_Description+0xb0>  // b.none
   8e1a0:	79409fa0 	ldrh	w0, [x29, #78]
   8e1a4:	11000400 	add	w0, w0, #0x1
   8e1a8:	12003c01 	and	w1, w0, #0xffff
   8e1ac:	f9400fa0 	ldr	x0, [x29, #24]
   8e1b0:	79000001 	strh	w1, [x0]
   8e1b4:	14000047 	b	8e2d0 <CEcoInterfaceBus1_42757331_IEcoError1_get_Description+0x1c8>
   8e1b8:	f94013a0 	ldr	x0, [x29, #32]
   8e1bc:	f100001f 	cmp	x0, #0x0
   8e1c0:	54000880 	b.eq	8e2d0 <CEcoInterfaceBus1_42757331_IEcoError1_get_Description+0x1c8>  // b.none
   8e1c4:	f9400fa0 	ldr	x0, [x29, #24]
   8e1c8:	f100001f 	cmp	x0, #0x0
   8e1cc:	54000820 	b.eq	8e2d0 <CEcoInterfaceBus1_42757331_IEcoError1_get_Description+0x1c8>  // b.none
   8e1d0:	f94023a0 	ldr	x0, [x29, #64]
   8e1d4:	b9403801 	ldr	w1, [x0, #56]
   8e1d8:	b0000000 	adrp	x0, 8f000 <_malloc_r+0x818>
   8e1dc:	913ea000 	add	x0, x0, #0xfa8
   8e1e0:	2a0103e1 	mov	w1, w1
   8e1e4:	f8617800 	ldr	x0, [x0, x1, lsl #3]
   8e1e8:	f9001fa0 	str	x0, [x29, #56]
   8e1ec:	f9400fa0 	ldr	x0, [x29, #24]
   8e1f0:	79400000 	ldrh	w0, [x0]
   8e1f4:	2a0003e1 	mov	w1, w0
   8e1f8:	79409fa0 	ldrh	w0, [x29, #78]
   8e1fc:	11000400 	add	w0, w0, #0x1
   8e200:	6b00003f 	cmp	w1, w0
   8e204:	540000aa 	b.ge	8e218 <CEcoInterfaceBus1_42757331_IEcoError1_get_Description+0x110>  // b.tcont
   8e208:	f9400fa0 	ldr	x0, [x29, #24]
   8e20c:	79400000 	ldrh	w0, [x0]
   8e210:	79009fa0 	strh	w0, [x29, #78]
   8e214:	14000006 	b	8e22c <CEcoInterfaceBus1_42757331_IEcoError1_get_Description+0x124>
   8e218:	79409fa0 	ldrh	w0, [x29, #78]
   8e21c:	11000400 	add	w0, w0, #0x1
   8e220:	12003c01 	and	w1, w0, #0xffff
   8e224:	f9400fa0 	ldr	x0, [x29, #24]
   8e228:	79000001 	strh	w1, [x0]
   8e22c:	79009fbf 	strh	wzr, [x29, #78]
   8e230:	1400000c 	b	8e260 <CEcoInterfaceBus1_42757331_IEcoError1_get_Description+0x158>
   8e234:	79409fa0 	ldrh	w0, [x29, #78]
   8e238:	f9401fa1 	ldr	x1, [x29, #56]
   8e23c:	8b000021 	add	x1, x1, x0
   8e240:	79409fa0 	ldrh	w0, [x29, #78]
   8e244:	f94013a2 	ldr	x2, [x29, #32]
   8e248:	8b000040 	add	x0, x2, x0
   8e24c:	39400021 	ldrb	w1, [x1]
   8e250:	39000001 	strb	w1, [x0]
   8e254:	79409fa0 	ldrh	w0, [x29, #78]
   8e258:	11000400 	add	w0, w0, #0x1
   8e25c:	79009fa0 	strh	w0, [x29, #78]
   8e260:	79409fa0 	ldrh	w0, [x29, #78]
   8e264:	f9401fa1 	ldr	x1, [x29, #56]
   8e268:	8b000020 	add	x0, x1, x0
   8e26c:	39400000 	ldrb	w0, [x0]
   8e270:	7100001f 	cmp	w0, #0x0
   8e274:	540000c0 	b.eq	8e28c <CEcoInterfaceBus1_42757331_IEcoError1_get_Description+0x184>  // b.none
   8e278:	f9400fa0 	ldr	x0, [x29, #24]
   8e27c:	79400000 	ldrh	w0, [x0]
   8e280:	79409fa1 	ldrh	w1, [x29, #78]
   8e284:	6b00003f 	cmp	w1, w0
   8e288:	54fffd63 	b.cc	8e234 <CEcoInterfaceBus1_42757331_IEcoError1_get_Description+0x12c>  // b.lo, b.ul, b.last
   8e28c:	f94023a0 	ldr	x0, [x29, #64]
   8e290:	b9403800 	ldr	w0, [x0, #56]
   8e294:	7100041f 	cmp	w0, #0x1
   8e298:	540001c1 	b.ne	8e2d0 <CEcoInterfaceBus1_42757331_IEcoError1_get_Description+0x1c8>  // b.any
   8e29c:	f9400fa0 	ldr	x0, [x29, #24]
   8e2a0:	79400000 	ldrh	w0, [x0]
   8e2a4:	7100e41f 	cmp	w0, #0x39
   8e2a8:	54000149 	b.ls	8e2d0 <CEcoInterfaceBus1_42757331_IEcoError1_get_Description+0x1c8>  // b.plast
   8e2ac:	f94023a0 	ldr	x0, [x29, #64]
   8e2b0:	9100f804 	add	x4, x0, #0x3e
   8e2b4:	f94013a0 	ldr	x0, [x29, #32]
   8e2b8:	91005c00 	add	x0, x0, #0x17
   8e2bc:	52800403 	mov	w3, #0x20                  	// #32
   8e2c0:	aa0003e2 	mov	x2, x0
   8e2c4:	52800201 	mov	w1, #0x10                  	// #16
   8e2c8:	aa0403e0 	mov	x0, x4
   8e2cc:	97fffe86 	bl	8dce4 <CEcoInterfaceBus1_42757331_to_hex>
   8e2d0:	52800000 	mov	w0, #0x0                   	// #0
   8e2d4:	a8c57bfd 	ldp	x29, x30, [sp], #80
   8e2d8:	d65f03c0 	ret

000000000008e2dc <CEcoInterfaceBus1_42757331_IEcoInterfaceBus1MemExt_QueryInterface>:
   8e2dc:	a9bc7bfd 	stp	x29, x30, [sp, #-64]!
   8e2e0:	910003fd 	mov	x29, sp
   8e2e4:	f90017a0 	str	x0, [x29, #40]
   8e2e8:	f90013a1 	str	x1, [x29, #32]
   8e2ec:	f9000fa2 	str	x2, [x29, #24]
   8e2f0:	f94017a0 	ldr	x0, [x29, #40]
   8e2f4:	d1004000 	sub	x0, x0, #0x10
   8e2f8:	f9001fa0 	str	x0, [x29, #56]
   8e2fc:	12800000 	mov	w0, #0xffffffff            	// #-1
   8e300:	79006fa0 	strh	w0, [x29, #54]
   8e304:	f94017a0 	ldr	x0, [x29, #40]
   8e308:	f100001f 	cmp	x0, #0x0
   8e30c:	54000080 	b.eq	8e31c <CEcoInterfaceBus1_42757331_IEcoInterfaceBus1MemExt_QueryInterface+0x40>  // b.none
   8e310:	f9400fa0 	ldr	x0, [x29, #24]
   8e314:	f100001f 	cmp	x0, #0x0
   8e318:	54000061 	b.ne	8e324 <CEcoInterfaceBus1_42757331_IEcoInterfaceBus1MemExt_QueryInterface+0x48>  // b.any
   8e31c:	79c06fa0 	ldrsh	w0, [x29, #54]
   8e320:	1400004c 	b	8e450 <CEcoInterfaceBus1_42757331_IEcoInterfaceBus1MemExt_QueryInterface+0x174>
   8e324:	b00001e0 	adrp	x0, cb000 <BitFont+0xe10>
   8e328:	9112c000 	add	x0, x0, #0x4b0
   8e32c:	aa0003e1 	mov	x1, x0
   8e330:	f94013a0 	ldr	x0, [x29, #32]
   8e334:	97fffb9b 	bl	8d1a0 <IsEqualUGUID_00000000000000000000000042757331>
   8e338:	12001c00 	and	w0, w0, #0xff
   8e33c:	7100001f 	cmp	w0, #0x0
   8e340:	54000140 	b.eq	8e368 <CEcoInterfaceBus1_42757331_IEcoInterfaceBus1MemExt_QueryInterface+0x8c>  // b.none
   8e344:	f9401fa1 	ldr	x1, [x29, #56]
   8e348:	f9400fa0 	ldr	x0, [x29, #24]
   8e34c:	f9000001 	str	x1, [x0]
   8e350:	f9401fa0 	ldr	x0, [x29, #56]
   8e354:	f9400000 	ldr	x0, [x0]
   8e358:	f9400401 	ldr	x1, [x0, #8]
   8e35c:	f9401fa0 	ldr	x0, [x29, #56]
   8e360:	d63f0020 	blr	x1
   8e364:	1400003a 	b	8e44c <CEcoInterfaceBus1_42757331_IEcoInterfaceBus1MemExt_QueryInterface+0x170>
   8e368:	b00001e0 	adrp	x0, cb000 <BitFont+0xe10>
   8e36c:	91132000 	add	x0, x0, #0x4c8
   8e370:	aa0003e1 	mov	x1, x0
   8e374:	f94013a0 	ldr	x0, [x29, #32]
   8e378:	97fffb8a 	bl	8d1a0 <IsEqualUGUID_00000000000000000000000042757331>
   8e37c:	12001c00 	and	w0, w0, #0xff
   8e380:	7100001f 	cmp	w0, #0x0
   8e384:	54000160 	b.eq	8e3b0 <CEcoInterfaceBus1_42757331_IEcoInterfaceBus1MemExt_QueryInterface+0xd4>  // b.none
   8e388:	f9401fa0 	ldr	x0, [x29, #56]
   8e38c:	91002001 	add	x1, x0, #0x8
   8e390:	f9400fa0 	ldr	x0, [x29, #24]
   8e394:	f9000001 	str	x1, [x0]
   8e398:	f9401fa0 	ldr	x0, [x29, #56]
   8e39c:	f9400000 	ldr	x0, [x0]
   8e3a0:	f9400401 	ldr	x1, [x0, #8]
   8e3a4:	f9401fa0 	ldr	x0, [x29, #56]
   8e3a8:	d63f0020 	blr	x1
   8e3ac:	14000028 	b	8e44c <CEcoInterfaceBus1_42757331_IEcoInterfaceBus1MemExt_QueryInterface+0x170>
   8e3b0:	b00001e0 	adrp	x0, cb000 <BitFont+0xe10>
   8e3b4:	91144000 	add	x0, x0, #0x510
   8e3b8:	aa0003e1 	mov	x1, x0
   8e3bc:	f94013a0 	ldr	x0, [x29, #32]
   8e3c0:	97fffb78 	bl	8d1a0 <IsEqualUGUID_00000000000000000000000042757331>
   8e3c4:	12001c00 	and	w0, w0, #0xff
   8e3c8:	7100001f 	cmp	w0, #0x0
   8e3cc:	54000160 	b.eq	8e3f8 <CEcoInterfaceBus1_42757331_IEcoInterfaceBus1MemExt_QueryInterface+0x11c>  // b.none
   8e3d0:	f9401fa0 	ldr	x0, [x29, #56]
   8e3d4:	91004001 	add	x1, x0, #0x10
   8e3d8:	f9400fa0 	ldr	x0, [x29, #24]
   8e3dc:	f9000001 	str	x1, [x0]
   8e3e0:	f9401fa0 	ldr	x0, [x29, #56]
   8e3e4:	f9400000 	ldr	x0, [x0]
   8e3e8:	f9400401 	ldr	x1, [x0, #8]
   8e3ec:	f9401fa0 	ldr	x0, [x29, #56]
   8e3f0:	d63f0020 	blr	x1
   8e3f4:	14000016 	b	8e44c <CEcoInterfaceBus1_42757331_IEcoInterfaceBus1MemExt_QueryInterface+0x170>
   8e3f8:	b00001e0 	adrp	x0, cb000 <BitFont+0xe10>
   8e3fc:	9111a000 	add	x0, x0, #0x468
   8e400:	aa0003e1 	mov	x1, x0
   8e404:	f94013a0 	ldr	x0, [x29, #32]
   8e408:	97fffb66 	bl	8d1a0 <IsEqualUGUID_00000000000000000000000042757331>
   8e40c:	12001c00 	and	w0, w0, #0xff
   8e410:	7100001f 	cmp	w0, #0x0
   8e414:	54000140 	b.eq	8e43c <CEcoInterfaceBus1_42757331_IEcoInterfaceBus1MemExt_QueryInterface+0x160>  // b.none
   8e418:	f9401fa1 	ldr	x1, [x29, #56]
   8e41c:	f9400fa0 	ldr	x0, [x29, #24]
   8e420:	f9000001 	str	x1, [x0]
   8e424:	f9401fa0 	ldr	x0, [x29, #56]
   8e428:	f9400000 	ldr	x0, [x0]
   8e42c:	f9400401 	ldr	x1, [x0, #8]
   8e430:	f9401fa0 	ldr	x0, [x29, #56]
   8e434:	d63f0020 	blr	x1
   8e438:	14000005 	b	8e44c <CEcoInterfaceBus1_42757331_IEcoInterfaceBus1MemExt_QueryInterface+0x170>
   8e43c:	f9400fa0 	ldr	x0, [x29, #24]
   8e440:	f900001f 	str	xzr, [x0]
   8e444:	12800000 	mov	w0, #0xffffffff            	// #-1
   8e448:	14000002 	b	8e450 <CEcoInterfaceBus1_42757331_IEcoInterfaceBus1MemExt_QueryInterface+0x174>
   8e44c:	52800000 	mov	w0, #0x0                   	// #0
   8e450:	a8c47bfd 	ldp	x29, x30, [sp], #64
   8e454:	d65f03c0 	ret

000000000008e458 <CEcoInterfaceBus1_42757331_IEcoInterfaceBus1MemExt_AddRef>:
   8e458:	d10083ff 	sub	sp, sp, #0x20
   8e45c:	f90007e0 	str	x0, [sp, #8]
   8e460:	f94007e0 	ldr	x0, [sp, #8]
   8e464:	d1004000 	sub	x0, x0, #0x10
   8e468:	f9000fe0 	str	x0, [sp, #24]
   8e46c:	f94007e0 	ldr	x0, [sp, #8]
   8e470:	f100001f 	cmp	x0, #0x0
   8e474:	54000061 	b.ne	8e480 <CEcoInterfaceBus1_42757331_IEcoInterfaceBus1MemExt_AddRef+0x28>  // b.any
   8e478:	12800000 	mov	w0, #0xffffffff            	// #-1
   8e47c:	14000008 	b	8e49c <CEcoInterfaceBus1_42757331_IEcoInterfaceBus1MemExt_AddRef+0x44>
   8e480:	f9400fe0 	ldr	x0, [sp, #24]
   8e484:	b9401800 	ldr	w0, [x0, #24]
   8e488:	11000401 	add	w1, w0, #0x1
   8e48c:	f9400fe0 	ldr	x0, [sp, #24]
   8e490:	b9001801 	str	w1, [x0, #24]
   8e494:	f9400fe0 	ldr	x0, [sp, #24]
   8e498:	b9401800 	ldr	w0, [x0, #24]
   8e49c:	910083ff 	add	sp, sp, #0x20
   8e4a0:	d65f03c0 	ret

000000000008e4a4 <CEcoInterfaceBus1_42757331_IEcoInterfaceBus1MemExt_Release>:
   8e4a4:	a9bd7bfd 	stp	x29, x30, [sp, #-48]!
   8e4a8:	910003fd 	mov	x29, sp
   8e4ac:	f9000fa0 	str	x0, [x29, #24]
   8e4b0:	f9400fa0 	ldr	x0, [x29, #24]
   8e4b4:	d1004000 	sub	x0, x0, #0x10
   8e4b8:	f90017a0 	str	x0, [x29, #40]
   8e4bc:	f9400fa0 	ldr	x0, [x29, #24]
   8e4c0:	f100001f 	cmp	x0, #0x0
   8e4c4:	54000061 	b.ne	8e4d0 <CEcoInterfaceBus1_42757331_IEcoInterfaceBus1MemExt_Release+0x2c>  // b.any
   8e4c8:	12800000 	mov	w0, #0xffffffff            	// #-1
   8e4cc:	14000010 	b	8e50c <CEcoInterfaceBus1_42757331_IEcoInterfaceBus1MemExt_Release+0x68>
   8e4d0:	f94017a0 	ldr	x0, [x29, #40]
   8e4d4:	b9401800 	ldr	w0, [x0, #24]
   8e4d8:	51000401 	sub	w1, w0, #0x1
   8e4dc:	f94017a0 	ldr	x0, [x29, #40]
   8e4e0:	b9001801 	str	w1, [x0, #24]
   8e4e4:	f94017a0 	ldr	x0, [x29, #40]
   8e4e8:	b9401800 	ldr	w0, [x0, #24]
   8e4ec:	7100001f 	cmp	w0, #0x0
   8e4f0:	540000a1 	b.ne	8e504 <CEcoInterfaceBus1_42757331_IEcoInterfaceBus1MemExt_Release+0x60>  // b.any
   8e4f4:	f94017a0 	ldr	x0, [x29, #40]
   8e4f8:	9400007b 	bl	8e6e4 <deleteCEcoInterfaceBus1_42757331>
   8e4fc:	52800000 	mov	w0, #0x0                   	// #0
   8e500:	14000003 	b	8e50c <CEcoInterfaceBus1_42757331_IEcoInterfaceBus1MemExt_Release+0x68>
   8e504:	f94017a0 	ldr	x0, [x29, #40]
   8e508:	b9401800 	ldr	w0, [x0, #24]
   8e50c:	a8c37bfd 	ldp	x29, x30, [sp], #48
   8e510:	d65f03c0 	ret

000000000008e514 <CEcoInterfaceBus1_42757331_IEcoInterfaceBus1MemExt_set_Manager>:
   8e514:	d10083ff 	sub	sp, sp, #0x20
   8e518:	f90007e0 	str	x0, [sp, #8]
   8e51c:	f90003e1 	str	x1, [sp]
   8e520:	f94007e0 	ldr	x0, [sp, #8]
   8e524:	d1004000 	sub	x0, x0, #0x10
   8e528:	f9000fe0 	str	x0, [sp, #24]
   8e52c:	f94007e0 	ldr	x0, [sp, #8]
   8e530:	f100001f 	cmp	x0, #0x0
   8e534:	54000080 	b.eq	8e544 <CEcoInterfaceBus1_42757331_IEcoInterfaceBus1MemExt_set_Manager+0x30>  // b.none
   8e538:	f94003e0 	ldr	x0, [sp]
   8e53c:	f100001f 	cmp	x0, #0x0
   8e540:	54000061 	b.ne	8e54c <CEcoInterfaceBus1_42757331_IEcoInterfaceBus1MemExt_set_Manager+0x38>  // b.any
   8e544:	12800000 	mov	w0, #0xffffffff            	// #-1
   8e548:	14000005 	b	8e55c <CEcoInterfaceBus1_42757331_IEcoInterfaceBus1MemExt_set_Manager+0x48>
   8e54c:	f9400fe0 	ldr	x0, [sp, #24]
   8e550:	f94003e1 	ldr	x1, [sp]
   8e554:	f9002c01 	str	x1, [x0, #88]
   8e558:	52800000 	mov	w0, #0x0                   	// #0
   8e55c:	910083ff 	add	sp, sp, #0x20
   8e560:	d65f03c0 	ret

000000000008e564 <CEcoInterfaceBus1_42757331_IEcoInterfaceBus1MemExt_get_Manager>:
   8e564:	d10083ff 	sub	sp, sp, #0x20
   8e568:	f90007e0 	str	x0, [sp, #8]
   8e56c:	f94007e0 	ldr	x0, [sp, #8]
   8e570:	d1004000 	sub	x0, x0, #0x10
   8e574:	f9000fe0 	str	x0, [sp, #24]
   8e578:	f94007e0 	ldr	x0, [sp, #8]
   8e57c:	f100001f 	cmp	x0, #0x0
   8e580:	54000061 	b.ne	8e58c <CEcoInterfaceBus1_42757331_IEcoInterfaceBus1MemExt_get_Manager+0x28>  // b.any
   8e584:	d2800000 	mov	x0, #0x0                   	// #0
   8e588:	14000003 	b	8e594 <CEcoInterfaceBus1_42757331_IEcoInterfaceBus1MemExt_get_Manager+0x30>
   8e58c:	f9400fe0 	ldr	x0, [sp, #24]
   8e590:	f9402c00 	ldr	x0, [x0, #88]
   8e594:	910083ff 	add	sp, sp, #0x20
   8e598:	d65f03c0 	ret

000000000008e59c <CEcoInterfaceBus1_42757331_IEcoInterfaceBus1MemExt_set_ExpandPool>:
   8e59c:	d10083ff 	sub	sp, sp, #0x20
   8e5a0:	f90007e0 	str	x0, [sp, #8]
   8e5a4:	39001fe1 	strb	w1, [sp, #7]
   8e5a8:	f94007e0 	ldr	x0, [sp, #8]
   8e5ac:	d1004000 	sub	x0, x0, #0x10
   8e5b0:	f9000fe0 	str	x0, [sp, #24]
   8e5b4:	f94007e0 	ldr	x0, [sp, #8]
   8e5b8:	f100001f 	cmp	x0, #0x0
   8e5bc:	54000061 	b.ne	8e5c8 <CEcoInterfaceBus1_42757331_IEcoInterfaceBus1MemExt_set_ExpandPool+0x2c>  // b.any
   8e5c0:	12800000 	mov	w0, #0xffffffff            	// #-1
   8e5c4:	14000005 	b	8e5d8 <CEcoInterfaceBus1_42757331_IEcoInterfaceBus1MemExt_set_ExpandPool+0x3c>
   8e5c8:	f9400fe0 	ldr	x0, [sp, #24]
   8e5cc:	39401fe1 	ldrb	w1, [sp, #7]
   8e5d0:	39018001 	strb	w1, [x0, #96]
   8e5d4:	52800000 	mov	w0, #0x0                   	// #0
   8e5d8:	910083ff 	add	sp, sp, #0x20
   8e5dc:	d65f03c0 	ret

000000000008e5e0 <initCEcoInterfaceBus1_42757331>:
   8e5e0:	d10083ff 	sub	sp, sp, #0x20
   8e5e4:	f90007e0 	str	x0, [sp, #8]
   8e5e8:	f90003e1 	str	x1, [sp]
   8e5ec:	f94007e0 	ldr	x0, [sp, #8]
   8e5f0:	f9000fe0 	str	x0, [sp, #24]
   8e5f4:	12800000 	mov	w0, #0xffffffff            	// #-1
   8e5f8:	79002fe0 	strh	w0, [sp, #22]
   8e5fc:	f94007e0 	ldr	x0, [sp, #8]
   8e600:	f100001f 	cmp	x0, #0x0
   8e604:	54000061 	b.ne	8e610 <initCEcoInterfaceBus1_42757331+0x30>  // b.any
   8e608:	79c02fe0 	ldrsh	w0, [sp, #22]
   8e60c:	14000005 	b	8e620 <initCEcoInterfaceBus1_42757331+0x40>
   8e610:	f9400fe0 	ldr	x0, [sp, #24]
   8e614:	f94003e1 	ldr	x1, [sp]
   8e618:	f9001001 	str	x1, [x0, #32]
   8e61c:	52800000 	mov	w0, #0x0                   	// #0
   8e620:	910083ff 	add	sp, sp, #0x20
   8e624:	d65f03c0 	ret

000000000008e628 <createCEcoInterfaceBus1_42757331>:
   8e628:	d100c3ff 	sub	sp, sp, #0x30
   8e62c:	f9000fe0 	str	x0, [sp, #24]
   8e630:	f9000be1 	str	x1, [sp, #16]
   8e634:	f90007e2 	str	x2, [sp, #8]
   8e638:	f90017ff 	str	xzr, [sp, #40]
   8e63c:	f00001c0 	adrp	x0, c9000 <g_xCEcoStackTask1List_C761620F+0x37e20>
   8e640:	9108e000 	add	x0, x0, #0x238
   8e644:	f90017e0 	str	x0, [sp, #40]
   8e648:	f94017e0 	ldr	x0, [sp, #40]
   8e64c:	b9401800 	ldr	w0, [x0, #24]
   8e650:	7100001f 	cmp	w0, #0x0
   8e654:	540003c1 	b.ne	8e6cc <createCEcoInterfaceBus1_42757331+0xa4>  // b.any
   8e658:	f94017e0 	ldr	x0, [sp, #40]
   8e65c:	52800021 	mov	w1, #0x1                   	// #1
   8e660:	b9001801 	str	w1, [x0, #24]
   8e664:	f94017e0 	ldr	x0, [sp, #40]
   8e668:	f900101f 	str	xzr, [x0, #32]
   8e66c:	f94017e0 	ldr	x0, [sp, #40]
   8e670:	f900281f 	str	xzr, [x0, #80]
   8e674:	f94017e0 	ldr	x0, [sp, #40]
   8e678:	f900181f 	str	xzr, [x0, #48]
   8e67c:	f94017e0 	ldr	x0, [sp, #40]
   8e680:	b900381f 	str	wzr, [x0, #56]
   8e684:	f94017e0 	ldr	x0, [sp, #40]
   8e688:	b0000001 	adrp	x1, 8f000 <_malloc_r+0x818>
   8e68c:	913fa021 	add	x1, x1, #0xfe8
   8e690:	f9000001 	str	x1, [x0]
   8e694:	f94017e0 	ldr	x0, [sp, #40]
   8e698:	d0000001 	adrp	x1, 90000 <g_x00000000000000000000A00000000101VTbl_42757331+0x18>
   8e69c:	9100a021 	add	x1, x1, #0x28
   8e6a0:	f9000401 	str	x1, [x0, #8]
   8e6a4:	f94017e0 	ldr	x0, [sp, #40]
   8e6a8:	d0000001 	adrp	x1, 90000 <g_x00000000000000000000A00000000101VTbl_42757331+0x18>
   8e6ac:	91012021 	add	x1, x1, #0x48
   8e6b0:	f9000801 	str	x1, [x0, #16]
   8e6b4:	f94017e0 	ldr	x0, [sp, #40]
   8e6b8:	f9002c1f 	str	xzr, [x0, #88]
   8e6bc:	f94017e0 	ldr	x0, [sp, #40]
   8e6c0:	f00001c1 	adrp	x1, c9000 <g_xCEcoStackTask1List_C761620F+0x37e20>
   8e6c4:	910a8021 	add	x1, x1, #0x2a0
   8e6c8:	f9001401 	str	x1, [x0, #40]
   8e6cc:	f94007e0 	ldr	x0, [sp, #8]
   8e6d0:	f94017e1 	ldr	x1, [sp, #40]
   8e6d4:	f9000001 	str	x1, [x0]
   8e6d8:	52800000 	mov	w0, #0x0                   	// #0
   8e6dc:	9100c3ff 	add	sp, sp, #0x30
   8e6e0:	d65f03c0 	ret

000000000008e6e4 <deleteCEcoInterfaceBus1_42757331>:
   8e6e4:	a9bc7bfd 	stp	x29, x30, [sp, #-64]!
   8e6e8:	910003fd 	mov	x29, sp
   8e6ec:	f9000fa0 	str	x0, [x29, #24]
   8e6f0:	f9400fa0 	ldr	x0, [x29, #24]
   8e6f4:	f9001ba0 	str	x0, [x29, #48]
   8e6f8:	f9001fbf 	str	xzr, [x29, #56]
   8e6fc:	f90017bf 	str	xzr, [x29, #40]
   8e700:	f9400fa0 	ldr	x0, [x29, #24]
   8e704:	f100001f 	cmp	x0, #0x0
   8e708:	54000580 	b.eq	8e7b8 <deleteCEcoInterfaceBus1_42757331+0xd4>  // b.none
   8e70c:	f9401ba0 	ldr	x0, [x29, #48]
   8e710:	f9402800 	ldr	x0, [x0, #80]
   8e714:	f100001f 	cmp	x0, #0x0
   8e718:	54000500 	b.eq	8e7b8 <deleteCEcoInterfaceBus1_42757331+0xd4>  // b.none
   8e71c:	f9401ba0 	ldr	x0, [x29, #48]
   8e720:	f9401400 	ldr	x0, [x0, #40]
   8e724:	91038000 	add	x0, x0, #0xe0
   8e728:	f9001fa0 	str	x0, [x29, #56]
   8e72c:	f9401fa0 	ldr	x0, [x29, #56]
   8e730:	f100001f 	cmp	x0, #0x0
   8e734:	54000340 	b.eq	8e79c <deleteCEcoInterfaceBus1_42757331+0xb8>  // b.none
   8e738:	f9401fa0 	ldr	x0, [x29, #56]
   8e73c:	f9401800 	ldr	x0, [x0, #48]
   8e740:	f9001fa0 	str	x0, [x29, #56]
   8e744:	14000011 	b	8e788 <deleteCEcoInterfaceBus1_42757331+0xa4>
   8e748:	f9401fa0 	ldr	x0, [x29, #56]
   8e74c:	f90017a0 	str	x0, [x29, #40]
   8e750:	f94017a0 	ldr	x0, [x29, #40]
   8e754:	f100001f 	cmp	x0, #0x0
   8e758:	54000200 	b.eq	8e798 <deleteCEcoInterfaceBus1_42757331+0xb4>  // b.none
   8e75c:	f94017a0 	ldr	x0, [x29, #40]
   8e760:	f9401800 	ldr	x0, [x0, #48]
   8e764:	f9001fa0 	str	x0, [x29, #56]
   8e768:	f9401ba0 	ldr	x0, [x29, #48]
   8e76c:	f9402800 	ldr	x0, [x0, #80]
   8e770:	f9400000 	ldr	x0, [x0]
   8e774:	f9401002 	ldr	x2, [x0, #32]
   8e778:	f9401ba0 	ldr	x0, [x29, #48]
   8e77c:	f9402800 	ldr	x0, [x0, #80]
   8e780:	f94017a1 	ldr	x1, [x29, #40]
   8e784:	d63f0040 	blr	x2
   8e788:	f9401fa0 	ldr	x0, [x29, #56]
   8e78c:	f100001f 	cmp	x0, #0x0
   8e790:	54fffdc1 	b.ne	8e748 <deleteCEcoInterfaceBus1_42757331+0x64>  // b.any
   8e794:	14000002 	b	8e79c <deleteCEcoInterfaceBus1_42757331+0xb8>
   8e798:	d503201f 	nop
   8e79c:	f9401ba0 	ldr	x0, [x29, #48]
   8e7a0:	f9402800 	ldr	x0, [x0, #80]
   8e7a4:	f9400000 	ldr	x0, [x0]
   8e7a8:	f9400801 	ldr	x1, [x0, #16]
   8e7ac:	f9401ba0 	ldr	x0, [x29, #48]
   8e7b0:	f9402800 	ldr	x0, [x0, #80]
   8e7b4:	d63f0020 	blr	x1
   8e7b8:	d503201f 	nop
   8e7bc:	a8c47bfd 	ldp	x29, x30, [sp], #64
   8e7c0:	d65f03c0 	ret
   8e7c4:	00000000 	.inst	0x00000000 ; undefined

000000000008e7c8 <malloc>:
   8e7c8:	d0000002 	adrp	x2, 90000 <g_x00000000000000000000A00000000101VTbl_42757331+0x18>
   8e7cc:	aa0003e1 	mov	x1, x0
   8e7d0:	f9444c40 	ldr	x0, [x2, #2200]
   8e7d4:	14000005 	b	8e7e8 <_malloc_r>

000000000008e7d8 <free>:
   8e7d8:	d0000002 	adrp	x2, 90000 <g_x00000000000000000000A00000000101VTbl_42757331+0x18>
   8e7dc:	aa0003e1 	mov	x1, x0
   8e7e0:	f9444c40 	ldr	x0, [x2, #2200]
   8e7e4:	1400026d 	b	8f198 <_free_r>

000000000008e7e8 <_malloc_r>:
   8e7e8:	a9ba7bfd 	stp	x29, x30, [sp, #-96]!
   8e7ec:	910003fd 	mov	x29, sp
   8e7f0:	a90153f3 	stp	x19, x20, [sp, #16]
   8e7f4:	91005c34 	add	x20, x1, #0x17
   8e7f8:	a9025bf5 	stp	x21, x22, [sp, #32]
   8e7fc:	f100ba9f 	cmp	x20, #0x2e
   8e800:	aa0003f6 	mov	x22, x0
   8e804:	54000408 	b.hi	8e884 <_malloc_r+0x9c>  // b.pmore
   8e808:	f100803f 	cmp	x1, #0x20
   8e80c:	540014c8 	b.hi	8eaa4 <_malloc_r+0x2bc>  // b.pmore
   8e810:	94000206 	bl	8f028 <__malloc_lock>
   8e814:	d2800414 	mov	x20, #0x20                  	// #32
   8e818:	d2800a01 	mov	x1, #0x50                  	// #80
   8e81c:	52800084 	mov	w4, #0x4                   	// #4
   8e820:	d0000015 	adrp	x21, 90000 <g_x00000000000000000000A00000000101VTbl_42757331+0x18>
   8e824:	9101e2a0 	add	x0, x21, #0x78
   8e828:	8b010000 	add	x0, x0, x1
   8e82c:	11000884 	add	w4, w4, #0x2
   8e830:	d1004000 	sub	x0, x0, #0x10
   8e834:	f9400c01 	ldr	x1, [x0, #24]
   8e838:	eb00003f 	cmp	x1, x0
   8e83c:	54000740 	b.eq	8e924 <_malloc_r+0x13c>  // b.none
   8e840:	a9409022 	ldp	x2, x4, [x1, #8]
   8e844:	91004033 	add	x19, x1, #0x10
   8e848:	f9400c23 	ldr	x3, [x1, #24]
   8e84c:	aa1603e0 	mov	x0, x22
   8e850:	927ef442 	and	x2, x2, #0xfffffffffffffffc
   8e854:	8b020021 	add	x1, x1, x2
   8e858:	f9400422 	ldr	x2, [x1, #8]
   8e85c:	f9000c83 	str	x3, [x4, #24]
   8e860:	b2400042 	orr	x2, x2, #0x1
   8e864:	f9000864 	str	x4, [x3, #16]
   8e868:	f9000422 	str	x2, [x1, #8]
   8e86c:	940001f1 	bl	8f030 <__malloc_unlock>
   8e870:	aa1303e0 	mov	x0, x19
   8e874:	a94153f3 	ldp	x19, x20, [sp, #16]
   8e878:	a9425bf5 	ldp	x21, x22, [sp, #32]
   8e87c:	a8c67bfd 	ldp	x29, x30, [sp], #96
   8e880:	d65f03c0 	ret
   8e884:	927cee94 	and	x20, x20, #0xfffffffffffffff0
   8e888:	b2407be2 	mov	x2, #0x7fffffff            	// #2147483647
   8e88c:	eb02029f 	cmp	x20, x2
   8e890:	fa549022 	ccmp	x1, x20, #0x2, ls  // ls = plast
   8e894:	54001088 	b.hi	8eaa4 <_malloc_r+0x2bc>  // b.pmore
   8e898:	940001e4 	bl	8f028 <__malloc_lock>
   8e89c:	f107de9f 	cmp	x20, #0x1f7
   8e8a0:	54002549 	b.ls	8ed48 <_malloc_r+0x560>  // b.plast
   8e8a4:	d349fe80 	lsr	x0, x20, #9
   8e8a8:	b4000140 	cbz	x0, 8e8d0 <_malloc_r+0xe8>
   8e8ac:	f100101f 	cmp	x0, #0x4
   8e8b0:	54000ee9 	b.ls	8ea8c <_malloc_r+0x2a4>  // b.plast
   8e8b4:	f100501f 	cmp	x0, #0x14
   8e8b8:	54002dc8 	b.hi	8ee70 <_malloc_r+0x688>  // b.pmore
   8e8bc:	11017004 	add	w4, w0, #0x5c
   8e8c0:	11016c05 	add	w5, w0, #0x5b
   8e8c4:	531f7880 	lsl	w0, w4, #1
   8e8c8:	937d7c00 	sbfiz	x0, x0, #3, #32
   8e8cc:	14000004 	b	8e8dc <_malloc_r+0xf4>
   8e8d0:	d2808000 	mov	x0, #0x400                 	// #1024
   8e8d4:	52800804 	mov	w4, #0x40                  	// #64
   8e8d8:	528007e5 	mov	w5, #0x3f                  	// #63
   8e8dc:	d0000015 	adrp	x21, 90000 <g_x00000000000000000000A00000000101VTbl_42757331+0x18>
   8e8e0:	9101e2a3 	add	x3, x21, #0x78
   8e8e4:	8b000063 	add	x3, x3, x0
   8e8e8:	d1004063 	sub	x3, x3, #0x10
   8e8ec:	f9400c61 	ldr	x1, [x3, #24]
   8e8f0:	eb01007f 	cmp	x3, x1
   8e8f4:	540000c1 	b.ne	8e90c <_malloc_r+0x124>  // b.any
   8e8f8:	1400000b 	b	8e924 <_malloc_r+0x13c>
   8e8fc:	b6f81e82 	tbz	x2, #63, 8eccc <_malloc_r+0x4e4>
   8e900:	f9400c21 	ldr	x1, [x1, #24]
   8e904:	eb01007f 	cmp	x3, x1
   8e908:	540000e0 	b.eq	8e924 <_malloc_r+0x13c>  // b.none
   8e90c:	f9400420 	ldr	x0, [x1, #8]
   8e910:	927ef400 	and	x0, x0, #0xfffffffffffffffc
   8e914:	cb140002 	sub	x2, x0, x20
   8e918:	f1007c5f 	cmp	x2, #0x1f
   8e91c:	54ffff0d 	b.le	8e8fc <_malloc_r+0x114>
   8e920:	2a0503e4 	mov	w4, w5
   8e924:	9101e2a0 	add	x0, x21, #0x78
   8e928:	91004003 	add	x3, x0, #0x10
   8e92c:	f9401001 	ldr	x1, [x0, #32]
   8e930:	eb03003f 	cmp	x1, x3
   8e934:	54000c80 	b.eq	8eac4 <_malloc_r+0x2dc>  // b.none
   8e938:	f9400422 	ldr	x2, [x1, #8]
   8e93c:	927ef442 	and	x2, x2, #0xfffffffffffffffc
   8e940:	cb140045 	sub	x5, x2, x20
   8e944:	f1007cbf 	cmp	x5, #0x1f
   8e948:	54001e0c 	b.gt	8ed08 <_malloc_r+0x520>
   8e94c:	a9020c03 	stp	x3, x3, [x0, #32]
   8e950:	b6f80865 	tbz	x5, #63, 8ea5c <_malloc_r+0x274>
   8e954:	f107fc5f 	cmp	x2, #0x1ff
   8e958:	54002548 	b.hi	8ee00 <_malloc_r+0x618>  // b.pmore
   8e95c:	d343fc45 	lsr	x5, x2, #3
   8e960:	f9400406 	ldr	x6, [x0, #8]
   8e964:	110004a3 	add	w3, w5, #0x1
   8e968:	d2800022 	mov	x2, #0x1                   	// #1
   8e96c:	13027ca5 	asr	w5, w5, #2
   8e970:	531f7863 	lsl	w3, w3, #1
   8e974:	9ac52042 	lsl	x2, x2, x5
   8e978:	aa060042 	orr	x2, x2, x6
   8e97c:	8b23cc03 	add	x3, x0, w3, sxtw #3
   8e980:	f9000402 	str	x2, [x0, #8]
   8e984:	f85f0460 	ldr	x0, [x3], #-16
   8e988:	a9010c20 	stp	x0, x3, [x1, #16]
   8e98c:	f9000861 	str	x1, [x3, #16]
   8e990:	f9000c01 	str	x1, [x0, #24]
   8e994:	13027c81 	asr	w1, w4, #2
   8e998:	d2800020 	mov	x0, #0x1                   	// #1
   8e99c:	9ac12000 	lsl	x0, x0, x1
   8e9a0:	eb02001f 	cmp	x0, x2
   8e9a4:	540009c8 	b.hi	8eadc <_malloc_r+0x2f4>  // b.pmore
   8e9a8:	ea02001f 	tst	x0, x2
   8e9ac:	540000e1 	b.ne	8e9c8 <_malloc_r+0x1e0>  // b.any
   8e9b0:	121e7484 	and	w4, w4, #0xfffffffc
   8e9b4:	d503201f 	nop
   8e9b8:	d37ff800 	lsl	x0, x0, #1
   8e9bc:	11001084 	add	w4, w4, #0x4
   8e9c0:	ea02001f 	tst	x0, x2
   8e9c4:	54ffffa0 	b.eq	8e9b8 <_malloc_r+0x1d0>  // b.none
   8e9c8:	9101e2a8 	add	x8, x21, #0x78
   8e9cc:	11000486 	add	w6, w4, #0x1
   8e9d0:	2a0403e7 	mov	w7, w4
   8e9d4:	531f78c6 	lsl	w6, w6, #1
   8e9d8:	8b26cd06 	add	x6, x8, w6, sxtw #3
   8e9dc:	d10040c6 	sub	x6, x6, #0x10
   8e9e0:	aa0603e5 	mov	x5, x6
   8e9e4:	f9400ca1 	ldr	x1, [x5, #24]
   8e9e8:	eb0100bf 	cmp	x5, x1
   8e9ec:	540000c1 	b.ne	8ea04 <_malloc_r+0x21c>  // b.any
   8e9f0:	140000db 	b	8ed5c <_malloc_r+0x574>
   8e9f4:	b6f81ee3 	tbz	x3, #63, 8edd0 <_malloc_r+0x5e8>
   8e9f8:	f9400c21 	ldr	x1, [x1, #24]
   8e9fc:	eb0100bf 	cmp	x5, x1
   8ea00:	54001ae0 	b.eq	8ed5c <_malloc_r+0x574>  // b.none
   8ea04:	f9400422 	ldr	x2, [x1, #8]
   8ea08:	927ef442 	and	x2, x2, #0xfffffffffffffffc
   8ea0c:	cb140043 	sub	x3, x2, x20
   8ea10:	f1007c7f 	cmp	x3, #0x1f
   8ea14:	54ffff0d 	b.le	8e9f4 <_malloc_r+0x20c>
   8ea18:	a9411025 	ldp	x5, x4, [x1, #16]
   8ea1c:	9101e2b5 	add	x21, x21, #0x78
   8ea20:	b2400280 	orr	x0, x20, #0x1
   8ea24:	f9000420 	str	x0, [x1, #8]
   8ea28:	f9000ca4 	str	x4, [x5, #24]
   8ea2c:	8b140034 	add	x20, x1, x20
   8ea30:	f9000885 	str	x5, [x4, #16]
   8ea34:	910042a0 	add	x0, x21, #0x10
   8ea38:	a90252b4 	stp	x20, x20, [x21, #32]
   8ea3c:	b2400064 	orr	x4, x3, #0x1
   8ea40:	a9008284 	stp	x4, x0, [x20, #8]
   8ea44:	91004033 	add	x19, x1, #0x10
   8ea48:	f9000e80 	str	x0, [x20, #24]
   8ea4c:	aa1603e0 	mov	x0, x22
   8ea50:	f8226823 	str	x3, [x1, x2]
   8ea54:	94000177 	bl	8f030 <__malloc_unlock>
   8ea58:	17ffff86 	b	8e870 <_malloc_r+0x88>
   8ea5c:	8b020022 	add	x2, x1, x2
   8ea60:	91004033 	add	x19, x1, #0x10
   8ea64:	aa1603e0 	mov	x0, x22
   8ea68:	f9400441 	ldr	x1, [x2, #8]
   8ea6c:	b2400021 	orr	x1, x1, #0x1
   8ea70:	f9000441 	str	x1, [x2, #8]
   8ea74:	9400016f 	bl	8f030 <__malloc_unlock>
   8ea78:	aa1303e0 	mov	x0, x19
   8ea7c:	a94153f3 	ldp	x19, x20, [sp, #16]
   8ea80:	a9425bf5 	ldp	x21, x22, [sp, #32]
   8ea84:	a8c67bfd 	ldp	x29, x30, [sp], #96
   8ea88:	d65f03c0 	ret
   8ea8c:	d346fe80 	lsr	x0, x20, #6
   8ea90:	1100e404 	add	w4, w0, #0x39
   8ea94:	1100e005 	add	w5, w0, #0x38
   8ea98:	531f7883 	lsl	w3, w4, #1
   8ea9c:	937d7c60 	sbfiz	x0, x3, #3, #32
   8eaa0:	17ffff8f 	b	8e8dc <_malloc_r+0xf4>
   8eaa4:	52800180 	mov	w0, #0xc                   	// #12
   8eaa8:	b90002c0 	str	w0, [x22]
   8eaac:	d2800013 	mov	x19, #0x0                   	// #0
   8eab0:	aa1303e0 	mov	x0, x19
   8eab4:	a94153f3 	ldp	x19, x20, [sp, #16]
   8eab8:	a9425bf5 	ldp	x21, x22, [sp, #32]
   8eabc:	a8c67bfd 	ldp	x29, x30, [sp], #96
   8eac0:	d65f03c0 	ret
   8eac4:	f9400402 	ldr	x2, [x0, #8]
   8eac8:	13027c81 	asr	w1, w4, #2
   8eacc:	d2800020 	mov	x0, #0x1                   	// #1
   8ead0:	9ac12000 	lsl	x0, x0, x1
   8ead4:	eb02001f 	cmp	x0, x2
   8ead8:	54fff689 	b.ls	8e9a8 <_malloc_r+0x1c0>  // b.plast
   8eadc:	f90023b9 	str	x25, [x29, #64]
   8eae0:	9101e2b9 	add	x25, x21, #0x78
   8eae4:	f9001bb7 	str	x23, [x29, #48]
   8eae8:	f9400b33 	ldr	x19, [x25, #16]
   8eaec:	f9400677 	ldr	x23, [x19, #8]
   8eaf0:	927ef6f7 	and	x23, x23, #0xfffffffffffffffc
   8eaf4:	eb1402e0 	subs	x0, x23, x20
   8eaf8:	fa5f2804 	ccmp	x0, #0x1f, #0x4, cs  // cs = hs, nlast
   8eafc:	54000c6c 	b.gt	8ec88 <_malloc_r+0x4a0>
   8eb00:	a904efba 	stp	x26, x27, [x29, #72]
   8eb04:	f00001da 	adrp	x26, c9000 <g_xCEcoStackTask1List_C761620F+0x37e20>
   8eb08:	f9440b22 	ldr	x2, [x25, #2064]
   8eb0c:	aa1603e0 	mov	x0, x22
   8eb10:	f941df41 	ldr	x1, [x26, #952]
   8eb14:	b100045f 	cmn	x2, #0x1
   8eb18:	f9001fb8 	str	x24, [x29, #56]
   8eb1c:	8b010281 	add	x1, x20, x1
   8eb20:	d28203e2 	mov	x2, #0x101f                	// #4127
   8eb24:	8b020038 	add	x24, x1, x2
   8eb28:	91008021 	add	x1, x1, #0x20
   8eb2c:	9274cf18 	and	x24, x24, #0xfffffffffffff000
   8eb30:	9a811318 	csel	x24, x24, x1, ne  // ne = any
   8eb34:	aa1803e1 	mov	x1, x24
   8eb38:	94000140 	bl	8f038 <_sbrk_r>
   8eb3c:	aa0003fb 	mov	x27, x0
   8eb40:	b100041f 	cmn	x0, #0x1
   8eb44:	54001b40 	b.eq	8eeac <_malloc_r+0x6c4>  // b.none
   8eb48:	8b170261 	add	x1, x19, x23
   8eb4c:	eb00003f 	cmp	x1, x0
   8eb50:	54001aa8 	b.hi	8eea4 <_malloc_r+0x6bc>  // b.pmore
   8eb54:	910ee342 	add	x2, x26, #0x3b8
   8eb58:	b9400840 	ldr	w0, [x2, #8]
   8eb5c:	0b180000 	add	w0, w0, w24
   8eb60:	b9000840 	str	w0, [x2, #8]
   8eb64:	2a0003e2 	mov	w2, w0
   8eb68:	54001e00 	b.eq	8ef28 <_malloc_r+0x740>  // b.none
   8eb6c:	9101e2a0 	add	x0, x21, #0x78
   8eb70:	f9440803 	ldr	x3, [x0, #2064]
   8eb74:	b100047f 	cmn	x3, #0x1
   8eb78:	54002080 	b.eq	8ef88 <_malloc_r+0x7a0>  // b.none
   8eb7c:	910ee340 	add	x0, x26, #0x3b8
   8eb80:	cb010361 	sub	x1, x27, x1
   8eb84:	0b010041 	add	w1, w2, w1
   8eb88:	b9000801 	str	w1, [x0, #8]
   8eb8c:	d2820001 	mov	x1, #0x1000                	// #4096
   8eb90:	f2400f60 	ands	x0, x27, #0xf
   8eb94:	540000a0 	b.eq	8eba8 <_malloc_r+0x3c0>  // b.none
   8eb98:	cb00037b 	sub	x27, x27, x0
   8eb9c:	d2820201 	mov	x1, #0x1010                	// #4112
   8eba0:	9100437b 	add	x27, x27, #0x10
   8eba4:	cb000021 	sub	x1, x1, x0
   8eba8:	8b180378 	add	x24, x27, x24
   8ebac:	aa1603e0 	mov	x0, x22
   8ebb0:	92402f18 	and	x24, x24, #0xfff
   8ebb4:	cb180038 	sub	x24, x1, x24
   8ebb8:	aa1803e1 	mov	x1, x24
   8ebbc:	9400011f 	bl	8f038 <_sbrk_r>
   8ebc0:	b100041f 	cmn	x0, #0x1
   8ebc4:	54001e60 	b.eq	8ef90 <_malloc_r+0x7a8>  // b.none
   8ebc8:	cb1b0001 	sub	x1, x0, x27
   8ebcc:	2a1803e0 	mov	w0, w24
   8ebd0:	8b180021 	add	x1, x1, x24
   8ebd4:	b2400021 	orr	x1, x1, #0x1
   8ebd8:	910ee358 	add	x24, x26, #0x3b8
   8ebdc:	9101e2a2 	add	x2, x21, #0x78
   8ebe0:	eb02027f 	cmp	x19, x2
   8ebe4:	b9400b03 	ldr	w3, [x24, #8]
   8ebe8:	f900085b 	str	x27, [x2, #16]
   8ebec:	0b030000 	add	w0, w0, w3
   8ebf0:	f9000761 	str	x1, [x27, #8]
   8ebf4:	b9000b00 	str	w0, [x24, #8]
   8ebf8:	540001e0 	b.eq	8ec34 <_malloc_r+0x44c>  // b.none
   8ebfc:	f1007eff 	cmp	x23, #0x1f
   8ec00:	54001b29 	b.ls	8ef64 <_malloc_r+0x77c>  // b.plast
   8ec04:	d10062e1 	sub	x1, x23, #0x18
   8ec08:	f9400662 	ldr	x2, [x19, #8]
   8ec0c:	927cec21 	and	x1, x1, #0xfffffffffffffff0
   8ec10:	d2800124 	mov	x4, #0x9                   	// #9
   8ec14:	8b010263 	add	x3, x19, x1
   8ec18:	92400042 	and	x2, x2, #0x1
   8ec1c:	aa010042 	orr	x2, x2, x1
   8ec20:	f9000662 	str	x2, [x19, #8]
   8ec24:	f1007c3f 	cmp	x1, #0x1f
   8ec28:	f8008c64 	str	x4, [x3, #8]!
   8ec2c:	f9000464 	str	x4, [x3, #8]
   8ec30:	54001d88 	b.hi	8efe0 <_malloc_r+0x7f8>  // b.pmore
   8ec34:	910ee341 	add	x1, x26, #0x3b8
   8ec38:	93407c00 	sxtw	x0, w0
   8ec3c:	f9401822 	ldr	x2, [x1, #48]
   8ec40:	eb02001f 	cmp	x0, x2
   8ec44:	54000049 	b.ls	8ec4c <_malloc_r+0x464>  // b.plast
   8ec48:	f9001820 	str	x0, [x1, #48]
   8ec4c:	9101e2a1 	add	x1, x21, #0x78
   8ec50:	910ee35a 	add	x26, x26, #0x3b8
   8ec54:	f9400833 	ldr	x19, [x1, #16]
   8ec58:	f9401f41 	ldr	x1, [x26, #56]
   8ec5c:	eb01001f 	cmp	x0, x1
   8ec60:	f9400661 	ldr	x1, [x19, #8]
   8ec64:	927ef421 	and	x1, x1, #0xfffffffffffffffc
   8ec68:	54000049 	b.ls	8ec70 <_malloc_r+0x488>  // b.plast
   8ec6c:	f9001f40 	str	x0, [x26, #56]
   8ec70:	cb140020 	sub	x0, x1, x20
   8ec74:	eb01029f 	cmp	x20, x1
   8ec78:	fa5f9804 	ccmp	x0, #0x1f, #0x4, ls  // ls = plast
   8ec7c:	5400178d 	b.le	8ef6c <_malloc_r+0x784>
   8ec80:	f9401fb8 	ldr	x24, [x29, #56]
   8ec84:	a944efba 	ldp	x26, x27, [x29, #72]
   8ec88:	9101e2b5 	add	x21, x21, #0x78
   8ec8c:	8b140262 	add	x2, x19, x20
   8ec90:	b2400294 	orr	x20, x20, #0x1
   8ec94:	f9000674 	str	x20, [x19, #8]
   8ec98:	b2400001 	orr	x1, x0, #0x1
   8ec9c:	f9000aa2 	str	x2, [x21, #16]
   8eca0:	aa1603e0 	mov	x0, x22
   8eca4:	f9000441 	str	x1, [x2, #8]
   8eca8:	91004273 	add	x19, x19, #0x10
   8ecac:	940000e1 	bl	8f030 <__malloc_unlock>
   8ecb0:	f9401bb7 	ldr	x23, [x29, #48]
   8ecb4:	aa1303e0 	mov	x0, x19
   8ecb8:	f94023b9 	ldr	x25, [x29, #64]
   8ecbc:	a94153f3 	ldp	x19, x20, [sp, #16]
   8ecc0:	a9425bf5 	ldp	x21, x22, [sp, #32]
   8ecc4:	a8c67bfd 	ldp	x29, x30, [sp], #96
   8ecc8:	d65f03c0 	ret
   8eccc:	8b000022 	add	x2, x1, x0
   8ecd0:	91004033 	add	x19, x1, #0x10
   8ecd4:	a9410c24 	ldp	x4, x3, [x1, #16]
   8ecd8:	aa1603e0 	mov	x0, x22
   8ecdc:	f9400441 	ldr	x1, [x2, #8]
   8ece0:	f9000c83 	str	x3, [x4, #24]
   8ece4:	b2400021 	orr	x1, x1, #0x1
   8ece8:	f9000864 	str	x4, [x3, #16]
   8ecec:	f9000441 	str	x1, [x2, #8]
   8ecf0:	940000d0 	bl	8f030 <__malloc_unlock>
   8ecf4:	aa1303e0 	mov	x0, x19
   8ecf8:	a94153f3 	ldp	x19, x20, [sp, #16]
   8ecfc:	a9425bf5 	ldp	x21, x22, [sp, #32]
   8ed00:	a8c67bfd 	ldp	x29, x30, [sp], #96
   8ed04:	d65f03c0 	ret
   8ed08:	8b140024 	add	x4, x1, x20
   8ed0c:	b2400294 	orr	x20, x20, #0x1
   8ed10:	f9000434 	str	x20, [x1, #8]
   8ed14:	b24000a6 	orr	x6, x5, #0x1
   8ed18:	a9021004 	stp	x4, x4, [x0, #32]
   8ed1c:	91004033 	add	x19, x1, #0x10
   8ed20:	a9008c86 	stp	x6, x3, [x4, #8]
   8ed24:	aa1603e0 	mov	x0, x22
   8ed28:	f9000c83 	str	x3, [x4, #24]
   8ed2c:	f8226825 	str	x5, [x1, x2]
   8ed30:	940000c0 	bl	8f030 <__malloc_unlock>
   8ed34:	aa1303e0 	mov	x0, x19
   8ed38:	a94153f3 	ldp	x19, x20, [sp, #16]
   8ed3c:	a9425bf5 	ldp	x21, x22, [sp, #32]
   8ed40:	a8c67bfd 	ldp	x29, x30, [sp], #96
   8ed44:	d65f03c0 	ret
   8ed48:	d343fe84 	lsr	x4, x20, #3
   8ed4c:	11000480 	add	w0, w4, #0x1
   8ed50:	531f7800 	lsl	w0, w0, #1
   8ed54:	937d7c01 	sbfiz	x1, x0, #3, #32
   8ed58:	17fffeb2 	b	8e820 <_malloc_r+0x38>
   8ed5c:	110004e1 	add	w1, w7, #0x1
   8ed60:	7100f8ff 	cmp	w7, #0x3e
   8ed64:	540009ad 	b.le	8ee98 <_malloc_r+0x6b0>
   8ed68:	910040a5 	add	x5, x5, #0x10
   8ed6c:	2a0103e7 	mov	w7, w1
   8ed70:	f24004ff 	tst	x7, #0x3
   8ed74:	54ffe381 	b.ne	8e9e4 <_malloc_r+0x1fc>  // b.any
   8ed78:	14000005 	b	8ed8c <_malloc_r+0x5a4>
   8ed7c:	f85f0426 	ldr	x6, [x1], #-16
   8ed80:	51000484 	sub	w4, w4, #0x1
   8ed84:	eb0100df 	cmp	x6, x1
   8ed88:	540014c1 	b.ne	8f020 <_malloc_r+0x838>  // b.any
   8ed8c:	aa0603e1 	mov	x1, x6
   8ed90:	f240049f 	tst	x4, #0x3
   8ed94:	54ffff41 	b.ne	8ed7c <_malloc_r+0x594>  // b.any
   8ed98:	f9400501 	ldr	x1, [x8, #8]
   8ed9c:	8a200021 	bic	x1, x1, x0
   8eda0:	f9000501 	str	x1, [x8, #8]
   8eda4:	d37ff800 	lsl	x0, x0, #1
   8eda8:	f100001f 	cmp	x0, #0x0
   8edac:	fa411002 	ccmp	x0, x1, #0x2, ne  // ne = any
   8edb0:	54000089 	b.ls	8edc0 <_malloc_r+0x5d8>  // b.plast
   8edb4:	17ffff4a 	b	8eadc <_malloc_r+0x2f4>
   8edb8:	d37ff800 	lsl	x0, x0, #1
   8edbc:	110010e7 	add	w7, w7, #0x4
   8edc0:	ea01001f 	tst	x0, x1
   8edc4:	54ffffa0 	b.eq	8edb8 <_malloc_r+0x5d0>  // b.none
   8edc8:	2a0703e4 	mov	w4, w7
   8edcc:	17ffff00 	b	8e9cc <_malloc_r+0x1e4>
   8edd0:	8b020022 	add	x2, x1, x2
   8edd4:	aa0103f3 	mov	x19, x1
   8edd8:	f9400c23 	ldr	x3, [x1, #24]
   8eddc:	aa1603e0 	mov	x0, x22
   8ede0:	f9400441 	ldr	x1, [x2, #8]
   8ede4:	f8410e64 	ldr	x4, [x19, #16]!
   8ede8:	b2400021 	orr	x1, x1, #0x1
   8edec:	f9000441 	str	x1, [x2, #8]
   8edf0:	f9000c83 	str	x3, [x4, #24]
   8edf4:	f9000864 	str	x4, [x3, #16]
   8edf8:	9400008e 	bl	8f030 <__malloc_unlock>
   8edfc:	17fffe9d 	b	8e870 <_malloc_r+0x88>
   8ee00:	d349fc40 	lsr	x0, x2, #9
   8ee04:	f100101f 	cmp	x0, #0x4
   8ee08:	540005a9 	b.ls	8eebc <_malloc_r+0x6d4>  // b.plast
   8ee0c:	f100501f 	cmp	x0, #0x14
   8ee10:	540007c8 	b.hi	8ef08 <_malloc_r+0x720>  // b.pmore
   8ee14:	11017005 	add	w5, w0, #0x5c
   8ee18:	11016c03 	add	w3, w0, #0x5b
   8ee1c:	531f78a5 	lsl	w5, w5, #1
   8ee20:	937d7ca5 	sbfiz	x5, x5, #3, #32
   8ee24:	9101e2a6 	add	x6, x21, #0x78
   8ee28:	8b0500c5 	add	x5, x6, x5
   8ee2c:	f85f04a0 	ldr	x0, [x5], #-16
   8ee30:	eb0000bf 	cmp	x5, x0
   8ee34:	540005c0 	b.eq	8eeec <_malloc_r+0x704>  // b.none
   8ee38:	f9400403 	ldr	x3, [x0, #8]
   8ee3c:	927ef463 	and	x3, x3, #0xfffffffffffffffc
   8ee40:	eb02007f 	cmp	x3, x2
   8ee44:	54000089 	b.ls	8ee54 <_malloc_r+0x66c>  // b.plast
   8ee48:	f9400800 	ldr	x0, [x0, #16]
   8ee4c:	eb0000bf 	cmp	x5, x0
   8ee50:	54ffff41 	b.ne	8ee38 <_malloc_r+0x650>  // b.any
   8ee54:	9101e2a2 	add	x2, x21, #0x78
   8ee58:	f9400c05 	ldr	x5, [x0, #24]
   8ee5c:	f9400442 	ldr	x2, [x2, #8]
   8ee60:	a9011420 	stp	x0, x5, [x1, #16]
   8ee64:	f90008a1 	str	x1, [x5, #16]
   8ee68:	f9000c01 	str	x1, [x0, #24]
   8ee6c:	17fffeca 	b	8e994 <_malloc_r+0x1ac>
   8ee70:	f101501f 	cmp	x0, #0x54
   8ee74:	54000309 	b.ls	8eed4 <_malloc_r+0x6ec>  // b.plast
   8ee78:	f105501f 	cmp	x0, #0x154
   8ee7c:	54000648 	b.hi	8ef44 <_malloc_r+0x75c>  // b.pmore
   8ee80:	d34ffe80 	lsr	x0, x20, #15
   8ee84:	1101e004 	add	w4, w0, #0x78
   8ee88:	1101dc05 	add	w5, w0, #0x77
   8ee8c:	531f7880 	lsl	w0, w4, #1
   8ee90:	937d7c00 	sbfiz	x0, x0, #3, #32
   8ee94:	17fffe92 	b	8e8dc <_malloc_r+0xf4>
   8ee98:	910080a5 	add	x5, x5, #0x20
   8ee9c:	110008e7 	add	w7, w7, #0x2
   8eea0:	17ffffb4 	b	8ed70 <_malloc_r+0x588>
   8eea4:	eb19027f 	cmp	x19, x25
   8eea8:	540007a0 	b.eq	8ef9c <_malloc_r+0x7b4>  // b.none
   8eeac:	f9400b33 	ldr	x19, [x25, #16]
   8eeb0:	f9400661 	ldr	x1, [x19, #8]
   8eeb4:	927ef421 	and	x1, x1, #0xfffffffffffffffc
   8eeb8:	17ffff6e 	b	8ec70 <_malloc_r+0x488>
   8eebc:	d346fc40 	lsr	x0, x2, #6
   8eec0:	1100e405 	add	w5, w0, #0x39
   8eec4:	1100e003 	add	w3, w0, #0x38
   8eec8:	531f78a5 	lsl	w5, w5, #1
   8eecc:	937d7ca5 	sbfiz	x5, x5, #3, #32
   8eed0:	17ffffd5 	b	8ee24 <_malloc_r+0x63c>
   8eed4:	d34cfe80 	lsr	x0, x20, #12
   8eed8:	1101bc04 	add	w4, w0, #0x6f
   8eedc:	1101b805 	add	w5, w0, #0x6e
   8eee0:	531f7880 	lsl	w0, w4, #1
   8eee4:	937d7c00 	sbfiz	x0, x0, #3, #32
   8eee8:	17fffe7d 	b	8e8dc <_malloc_r+0xf4>
   8eeec:	f94004c7 	ldr	x7, [x6, #8]
   8eef0:	13027c63 	asr	w3, w3, #2
   8eef4:	d2800022 	mov	x2, #0x1                   	// #1
   8eef8:	9ac32042 	lsl	x2, x2, x3
   8eefc:	aa070042 	orr	x2, x2, x7
   8ef00:	f90004c2 	str	x2, [x6, #8]
   8ef04:	17ffffd7 	b	8ee60 <_malloc_r+0x678>
   8ef08:	f101501f 	cmp	x0, #0x54
   8ef0c:	54000528 	b.hi	8efb0 <_malloc_r+0x7c8>  // b.pmore
   8ef10:	d34cfc40 	lsr	x0, x2, #12
   8ef14:	1101bc05 	add	w5, w0, #0x6f
   8ef18:	1101b803 	add	w3, w0, #0x6e
   8ef1c:	531f78a5 	lsl	w5, w5, #1
   8ef20:	937d7ca5 	sbfiz	x5, x5, #3, #32
   8ef24:	17ffffc0 	b	8ee24 <_malloc_r+0x63c>
   8ef28:	f2402c3f 	tst	x1, #0xfff
   8ef2c:	54ffe201 	b.ne	8eb6c <_malloc_r+0x384>  // b.any
   8ef30:	f9400b22 	ldr	x2, [x25, #16]
   8ef34:	8b1802e1 	add	x1, x23, x24
   8ef38:	b2400021 	orr	x1, x1, #0x1
   8ef3c:	f9000441 	str	x1, [x2, #8]
   8ef40:	17ffff3d 	b	8ec34 <_malloc_r+0x44c>
   8ef44:	f115501f 	cmp	x0, #0x554
   8ef48:	54000448 	b.hi	8efd0 <_malloc_r+0x7e8>  // b.pmore
   8ef4c:	d352fe80 	lsr	x0, x20, #18
   8ef50:	1101f404 	add	w4, w0, #0x7d
   8ef54:	1101f005 	add	w5, w0, #0x7c
   8ef58:	531f7880 	lsl	w0, w4, #1
   8ef5c:	937d7c00 	sbfiz	x0, x0, #3, #32
   8ef60:	17fffe5f 	b	8e8dc <_malloc_r+0xf4>
   8ef64:	d2800020 	mov	x0, #0x1                   	// #1
   8ef68:	f9000760 	str	x0, [x27, #8]
   8ef6c:	aa1603e0 	mov	x0, x22
   8ef70:	d2800013 	mov	x19, #0x0                   	// #0
   8ef74:	9400002f 	bl	8f030 <__malloc_unlock>
   8ef78:	f9402bbb 	ldr	x27, [x29, #80]
   8ef7c:	a94363b7 	ldp	x23, x24, [x29, #48]
   8ef80:	a9446bb9 	ldp	x25, x26, [x29, #64]
   8ef84:	17fffe3b 	b	8e870 <_malloc_r+0x88>
   8ef88:	f904081b 	str	x27, [x0, #2064]
   8ef8c:	17ffff00 	b	8eb8c <_malloc_r+0x3a4>
   8ef90:	d2800021 	mov	x1, #0x1                   	// #1
   8ef94:	52800000 	mov	w0, #0x0                   	// #0
   8ef98:	17ffff10 	b	8ebd8 <_malloc_r+0x3f0>
   8ef9c:	910ee340 	add	x0, x26, #0x3b8
   8efa0:	b9400802 	ldr	w2, [x0, #8]
   8efa4:	0b180042 	add	w2, w2, w24
   8efa8:	b9000802 	str	w2, [x0, #8]
   8efac:	17fffef0 	b	8eb6c <_malloc_r+0x384>
   8efb0:	f105501f 	cmp	x0, #0x154
   8efb4:	54000208 	b.hi	8eff4 <_malloc_r+0x80c>  // b.pmore
   8efb8:	d34ffc40 	lsr	x0, x2, #15
   8efbc:	1101e005 	add	w5, w0, #0x78
   8efc0:	1101dc03 	add	w3, w0, #0x77
   8efc4:	531f78a5 	lsl	w5, w5, #1
   8efc8:	937d7ca5 	sbfiz	x5, x5, #3, #32
   8efcc:	17ffff96 	b	8ee24 <_malloc_r+0x63c>
   8efd0:	d280fe00 	mov	x0, #0x7f0                 	// #2032
   8efd4:	52800fe4 	mov	w4, #0x7f                  	// #127
   8efd8:	52800fc5 	mov	w5, #0x7e                  	// #126
   8efdc:	17fffe40 	b	8e8dc <_malloc_r+0xf4>
   8efe0:	aa1603e0 	mov	x0, x22
   8efe4:	91004261 	add	x1, x19, #0x10
   8efe8:	9400006c 	bl	8f198 <_free_r>
   8efec:	b9400b00 	ldr	w0, [x24, #8]
   8eff0:	17ffff11 	b	8ec34 <_malloc_r+0x44c>
   8eff4:	f115501f 	cmp	x0, #0x554
   8eff8:	540000e8 	b.hi	8f014 <_malloc_r+0x82c>  // b.pmore
   8effc:	d352fc40 	lsr	x0, x2, #18
   8f000:	1101f405 	add	w5, w0, #0x7d
   8f004:	1101f003 	add	w3, w0, #0x7c
   8f008:	531f78a5 	lsl	w5, w5, #1
   8f00c:	937d7ca5 	sbfiz	x5, x5, #3, #32
   8f010:	17ffff85 	b	8ee24 <_malloc_r+0x63c>
   8f014:	d280fe05 	mov	x5, #0x7f0                 	// #2032
   8f018:	52800fc3 	mov	w3, #0x7e                  	// #126
   8f01c:	17ffff82 	b	8ee24 <_malloc_r+0x63c>
   8f020:	f9400501 	ldr	x1, [x8, #8]
   8f024:	17ffff60 	b	8eda4 <_malloc_r+0x5bc>

000000000008f028 <__malloc_lock>:
   8f028:	d65f03c0 	ret
   8f02c:	d503201f 	nop

000000000008f030 <__malloc_unlock>:
   8f030:	d65f03c0 	ret
   8f034:	00000000 	.inst	0x00000000 ; undefined

000000000008f038 <_sbrk_r>:
   8f038:	a9be7bfd 	stp	x29, x30, [sp, #-32]!
   8f03c:	910003fd 	mov	x29, sp
   8f040:	a90153f3 	stp	x19, x20, [sp, #16]
   8f044:	d00001d3 	adrp	x19, c9000 <g_xCEcoStackTask1List_C761620F+0x37e20>
   8f048:	aa0003f4 	mov	x20, x0
   8f04c:	aa0103e0 	mov	x0, x1
   8f050:	b904627f 	str	wzr, [x19, #1120]
   8f054:	97ffd2e4 	bl	83be4 <_sbrk>
   8f058:	b100041f 	cmn	x0, #0x1
   8f05c:	54000080 	b.eq	8f06c <_sbrk_r+0x34>  // b.none
   8f060:	a94153f3 	ldp	x19, x20, [sp, #16]
   8f064:	a8c27bfd 	ldp	x29, x30, [sp], #32
   8f068:	d65f03c0 	ret
   8f06c:	b9446261 	ldr	w1, [x19, #1120]
   8f070:	34ffff81 	cbz	w1, 8f060 <_sbrk_r+0x28>
   8f074:	b9000281 	str	w1, [x20]
   8f078:	a94153f3 	ldp	x19, x20, [sp, #16]
   8f07c:	a8c27bfd 	ldp	x29, x30, [sp], #32
   8f080:	d65f03c0 	ret
   8f084:	00000000 	.inst	0x00000000 ; undefined

000000000008f088 <_malloc_trim_r>:
   8f088:	a9bd7bfd 	stp	x29, x30, [sp, #-48]!
   8f08c:	910003fd 	mov	x29, sp
   8f090:	a9025bf5 	stp	x21, x22, [sp, #32]
   8f094:	b0000015 	adrp	x21, 90000 <g_x00000000000000000000A00000000101VTbl_42757331+0x18>
   8f098:	9101e2b5 	add	x21, x21, #0x78
   8f09c:	a90153f3 	stp	x19, x20, [sp, #16]
   8f0a0:	aa0003f6 	mov	x22, x0
   8f0a4:	aa0103f3 	mov	x19, x1
   8f0a8:	97ffffe0 	bl	8f028 <__malloc_lock>
   8f0ac:	f9400aa0 	ldr	x0, [x21, #16]
   8f0b0:	f9400414 	ldr	x20, [x0, #8]
   8f0b4:	927ef694 	and	x20, x20, #0xfffffffffffffffc
   8f0b8:	cb130293 	sub	x19, x20, x19
   8f0bc:	913f7e73 	add	x19, x19, #0xfdf
   8f0c0:	9274ce73 	and	x19, x19, #0xfffffffffffff000
   8f0c4:	d1400673 	sub	x19, x19, #0x1, lsl #12
   8f0c8:	f13ffe7f 	cmp	x19, #0xfff
   8f0cc:	5400010d 	b.le	8f0ec <_malloc_trim_r+0x64>
   8f0d0:	d2800001 	mov	x1, #0x0                   	// #0
   8f0d4:	aa1603e0 	mov	x0, x22
   8f0d8:	97ffffd8 	bl	8f038 <_sbrk_r>
   8f0dc:	f9400aa1 	ldr	x1, [x21, #16]
   8f0e0:	8b140021 	add	x1, x1, x20
   8f0e4:	eb01001f 	cmp	x0, x1
   8f0e8:	54000100 	b.eq	8f108 <_malloc_trim_r+0x80>  // b.none
   8f0ec:	aa1603e0 	mov	x0, x22
   8f0f0:	97ffffd0 	bl	8f030 <__malloc_unlock>
   8f0f4:	52800000 	mov	w0, #0x0                   	// #0
   8f0f8:	a94153f3 	ldp	x19, x20, [sp, #16]
   8f0fc:	a9425bf5 	ldp	x21, x22, [sp, #32]
   8f100:	a8c37bfd 	ldp	x29, x30, [sp], #48
   8f104:	d65f03c0 	ret
   8f108:	cb1303e1 	neg	x1, x19
   8f10c:	aa1603e0 	mov	x0, x22
   8f110:	97ffffca 	bl	8f038 <_sbrk_r>
   8f114:	b100041f 	cmn	x0, #0x1
   8f118:	54000200 	b.eq	8f158 <_malloc_trim_r+0xd0>  // b.none
   8f11c:	d00001c2 	adrp	x2, c9000 <g_xCEcoStackTask1List_C761620F+0x37e20>
   8f120:	f9400aa3 	ldr	x3, [x21, #16]
   8f124:	cb130294 	sub	x20, x20, x19
   8f128:	aa1603e0 	mov	x0, x22
   8f12c:	b943c041 	ldr	w1, [x2, #960]
   8f130:	b2400294 	orr	x20, x20, #0x1
   8f134:	f9000474 	str	x20, [x3, #8]
   8f138:	4b130033 	sub	w19, w1, w19
   8f13c:	b903c053 	str	w19, [x2, #960]
   8f140:	97ffffbc 	bl	8f030 <__malloc_unlock>
   8f144:	52800020 	mov	w0, #0x1                   	// #1
   8f148:	a94153f3 	ldp	x19, x20, [sp, #16]
   8f14c:	a9425bf5 	ldp	x21, x22, [sp, #32]
   8f150:	a8c37bfd 	ldp	x29, x30, [sp], #48
   8f154:	d65f03c0 	ret
   8f158:	d2800001 	mov	x1, #0x0                   	// #0
   8f15c:	aa1603e0 	mov	x0, x22
   8f160:	97ffffb6 	bl	8f038 <_sbrk_r>
   8f164:	f9400aa2 	ldr	x2, [x21, #16]
   8f168:	cb020001 	sub	x1, x0, x2
   8f16c:	f1007c3f 	cmp	x1, #0x1f
   8f170:	54fffbed 	b.le	8f0ec <_malloc_trim_r+0x64>
   8f174:	b0000004 	adrp	x4, 90000 <g_x00000000000000000000A00000000101VTbl_42757331+0x18>
   8f178:	b2400021 	orr	x1, x1, #0x1
   8f17c:	d00001c3 	adrp	x3, c9000 <g_xCEcoStackTask1List_C761620F+0x37e20>
   8f180:	f9000441 	str	x1, [x2, #8]
   8f184:	f9444481 	ldr	x1, [x4, #2184]
   8f188:	cb010000 	sub	x0, x0, x1
   8f18c:	b903c060 	str	w0, [x3, #960]
   8f190:	17ffffd7 	b	8f0ec <_malloc_trim_r+0x64>
   8f194:	d503201f 	nop

000000000008f198 <_free_r>:
   8f198:	b40008a1 	cbz	x1, 8f2ac <_free_r+0x114>
   8f19c:	a9be7bfd 	stp	x29, x30, [sp, #-32]!
   8f1a0:	910003fd 	mov	x29, sp
   8f1a4:	a90153f3 	stp	x19, x20, [sp, #16]
   8f1a8:	aa0103f3 	mov	x19, x1
   8f1ac:	aa0003f4 	mov	x20, x0
   8f1b0:	97ffff9e 	bl	8f028 <__malloc_lock>
   8f1b4:	d1004262 	sub	x2, x19, #0x10
   8f1b8:	b0000000 	adrp	x0, 90000 <g_x00000000000000000000A00000000101VTbl_42757331+0x18>
   8f1bc:	f85f8265 	ldur	x5, [x19, #-8]
   8f1c0:	9101e003 	add	x3, x0, #0x78
   8f1c4:	927ff8a1 	and	x1, x5, #0xfffffffffffffffe
   8f1c8:	8b010044 	add	x4, x2, x1
   8f1cc:	f9400866 	ldr	x6, [x3, #16]
   8f1d0:	eb0400df 	cmp	x6, x4
   8f1d4:	f9400483 	ldr	x3, [x4, #8]
   8f1d8:	927ef463 	and	x3, x3, #0xfffffffffffffffc
   8f1dc:	540008a0 	b.eq	8f2f0 <_free_r+0x158>  // b.none
   8f1e0:	f9000483 	str	x3, [x4, #8]
   8f1e4:	8b030086 	add	x6, x4, x3
   8f1e8:	37000645 	tbnz	w5, #0, 8f2b0 <_free_r+0x118>
   8f1ec:	f85f0267 	ldur	x7, [x19, #-16]
   8f1f0:	f94004c5 	ldr	x5, [x6, #8]
   8f1f4:	b0000006 	adrp	x6, 90000 <g_x00000000000000000000A00000000101VTbl_42757331+0x18>
   8f1f8:	cb070042 	sub	x2, x2, x7
   8f1fc:	8b070021 	add	x1, x1, x7
   8f200:	910220c6 	add	x6, x6, #0x88
   8f204:	924000a5 	and	x5, x5, #0x1
   8f208:	f9400847 	ldr	x7, [x2, #16]
   8f20c:	eb0600ff 	cmp	x7, x6
   8f210:	54000c60 	b.eq	8f39c <_free_r+0x204>  // b.none
   8f214:	f9400c46 	ldr	x6, [x2, #24]
   8f218:	f9000ce6 	str	x6, [x7, #24]
   8f21c:	f90008c7 	str	x7, [x6, #16]
   8f220:	b40004e5 	cbz	x5, 8f2bc <_free_r+0x124>
   8f224:	b2400023 	orr	x3, x1, #0x1
   8f228:	f9000443 	str	x3, [x2, #8]
   8f22c:	f8216841 	str	x1, [x2, x1]
   8f230:	f107fc3f 	cmp	x1, #0x1ff
   8f234:	540008e9 	b.ls	8f350 <_free_r+0x1b8>  // b.plast
   8f238:	d349fc23 	lsr	x3, x1, #9
   8f23c:	f100107f 	cmp	x3, #0x4
   8f240:	54000c08 	b.hi	8f3c0 <_free_r+0x228>  // b.pmore
   8f244:	d346fc23 	lsr	x3, x1, #6
   8f248:	1100e464 	add	w4, w3, #0x39
   8f24c:	1100e065 	add	w5, w3, #0x38
   8f250:	531f7884 	lsl	w4, w4, #1
   8f254:	937d7c84 	sbfiz	x4, x4, #3, #32
   8f258:	9101e000 	add	x0, x0, #0x78
   8f25c:	8b040004 	add	x4, x0, x4
   8f260:	f85f0483 	ldr	x3, [x4], #-16
   8f264:	eb03009f 	cmp	x4, x3
   8f268:	54000ce0 	b.eq	8f404 <_free_r+0x26c>  // b.none
   8f26c:	d503201f 	nop
   8f270:	f9400460 	ldr	x0, [x3, #8]
   8f274:	927ef400 	and	x0, x0, #0xfffffffffffffffc
   8f278:	eb01001f 	cmp	x0, x1
   8f27c:	54000c09 	b.ls	8f3fc <_free_r+0x264>  // b.plast
   8f280:	f9400863 	ldr	x3, [x3, #16]
   8f284:	eb03009f 	cmp	x4, x3
   8f288:	54ffff41 	b.ne	8f270 <_free_r+0xd8>  // b.any
   8f28c:	f9400c81 	ldr	x1, [x4, #24]
   8f290:	a9010444 	stp	x4, x1, [x2, #16]
   8f294:	aa1403e0 	mov	x0, x20
   8f298:	f9000822 	str	x2, [x1, #16]
   8f29c:	f9000c82 	str	x2, [x4, #24]
   8f2a0:	a94153f3 	ldp	x19, x20, [sp, #16]
   8f2a4:	a8c27bfd 	ldp	x29, x30, [sp], #32
   8f2a8:	17ffff62 	b	8f030 <__malloc_unlock>
   8f2ac:	d65f03c0 	ret
   8f2b0:	f94004c5 	ldr	x5, [x6, #8]
   8f2b4:	924000a5 	and	x5, x5, #0x1
   8f2b8:	b5fffb65 	cbnz	x5, 8f224 <_free_r+0x8c>
   8f2bc:	f9400885 	ldr	x5, [x4, #16]
   8f2c0:	8b030021 	add	x1, x1, x3
   8f2c4:	b0000003 	adrp	x3, 90000 <g_x00000000000000000000A00000000101VTbl_42757331+0x18>
   8f2c8:	91022063 	add	x3, x3, #0x88
   8f2cc:	b2400026 	orr	x6, x1, #0x1
   8f2d0:	eb0300bf 	cmp	x5, x3
   8f2d4:	54000a80 	b.eq	8f424 <_free_r+0x28c>  // b.none
   8f2d8:	f9400c83 	ldr	x3, [x4, #24]
   8f2dc:	f9000ca3 	str	x3, [x5, #24]
   8f2e0:	f9000865 	str	x5, [x3, #16]
   8f2e4:	f9000446 	str	x6, [x2, #8]
   8f2e8:	f8216841 	str	x1, [x2, x1]
   8f2ec:	17ffffd1 	b	8f230 <_free_r+0x98>
   8f2f0:	8b030021 	add	x1, x1, x3
   8f2f4:	370000e5 	tbnz	w5, #0, 8f310 <_free_r+0x178>
   8f2f8:	f85f0263 	ldur	x3, [x19, #-16]
   8f2fc:	cb030042 	sub	x2, x2, x3
   8f300:	8b030021 	add	x1, x1, x3
   8f304:	a9410c44 	ldp	x4, x3, [x2, #16]
   8f308:	f9000c83 	str	x3, [x4, #24]
   8f30c:	f9000864 	str	x4, [x3, #16]
   8f310:	9101e000 	add	x0, x0, #0x78
   8f314:	b0000003 	adrp	x3, 90000 <g_x00000000000000000000A00000000101VTbl_42757331+0x18>
   8f318:	b2400024 	orr	x4, x1, #0x1
   8f31c:	f9000444 	str	x4, [x2, #8]
   8f320:	f9444863 	ldr	x3, [x3, #2192]
   8f324:	f9000802 	str	x2, [x0, #16]
   8f328:	eb01007f 	cmp	x3, x1
   8f32c:	540000a8 	b.hi	8f340 <_free_r+0x1a8>  // b.pmore
   8f330:	d00001c1 	adrp	x1, c9000 <g_xCEcoStackTask1List_C761620F+0x37e20>
   8f334:	aa1403e0 	mov	x0, x20
   8f338:	f941dc21 	ldr	x1, [x1, #952]
   8f33c:	97ffff53 	bl	8f088 <_malloc_trim_r>
   8f340:	aa1403e0 	mov	x0, x20
   8f344:	a94153f3 	ldp	x19, x20, [sp, #16]
   8f348:	a8c27bfd 	ldp	x29, x30, [sp], #32
   8f34c:	17ffff39 	b	8f030 <__malloc_unlock>
   8f350:	d343fc24 	lsr	x4, x1, #3
   8f354:	9101e000 	add	x0, x0, #0x78
   8f358:	11000481 	add	w1, w4, #0x1
   8f35c:	d2800023 	mov	x3, #0x1                   	// #1
   8f360:	13027c84 	asr	w4, w4, #2
   8f364:	531f7821 	lsl	w1, w1, #1
   8f368:	f9400405 	ldr	x5, [x0, #8]
   8f36c:	9ac42063 	lsl	x3, x3, x4
   8f370:	8b21cc01 	add	x1, x0, w1, sxtw #3
   8f374:	aa050063 	orr	x3, x3, x5
   8f378:	f9000403 	str	x3, [x0, #8]
   8f37c:	f85f0420 	ldr	x0, [x1], #-16
   8f380:	a9010440 	stp	x0, x1, [x2, #16]
   8f384:	f9000822 	str	x2, [x1, #16]
   8f388:	f9000c02 	str	x2, [x0, #24]
   8f38c:	aa1403e0 	mov	x0, x20
   8f390:	a94153f3 	ldp	x19, x20, [sp, #16]
   8f394:	a8c27bfd 	ldp	x29, x30, [sp], #32
   8f398:	17ffff26 	b	8f030 <__malloc_unlock>
   8f39c:	b5000765 	cbnz	x5, 8f488 <_free_r+0x2f0>
   8f3a0:	a9410085 	ldp	x5, x0, [x4, #16]
   8f3a4:	f9000ca0 	str	x0, [x5, #24]
   8f3a8:	8b010061 	add	x1, x3, x1
   8f3ac:	b2400023 	orr	x3, x1, #0x1
   8f3b0:	f9000805 	str	x5, [x0, #16]
   8f3b4:	f9000443 	str	x3, [x2, #8]
   8f3b8:	f8216841 	str	x1, [x2, x1]
   8f3bc:	17ffffe1 	b	8f340 <_free_r+0x1a8>
   8f3c0:	f100507f 	cmp	x3, #0x14
   8f3c4:	54000129 	b.ls	8f3e8 <_free_r+0x250>  // b.plast
   8f3c8:	f101507f 	cmp	x3, #0x54
   8f3cc:	54000388 	b.hi	8f43c <_free_r+0x2a4>  // b.pmore
   8f3d0:	d34cfc23 	lsr	x3, x1, #12
   8f3d4:	1101bc64 	add	w4, w3, #0x6f
   8f3d8:	1101b865 	add	w5, w3, #0x6e
   8f3dc:	531f7884 	lsl	w4, w4, #1
   8f3e0:	937d7c84 	sbfiz	x4, x4, #3, #32
   8f3e4:	17ffff9d 	b	8f258 <_free_r+0xc0>
   8f3e8:	11017064 	add	w4, w3, #0x5c
   8f3ec:	11016c65 	add	w5, w3, #0x5b
   8f3f0:	531f7884 	lsl	w4, w4, #1
   8f3f4:	937d7c84 	sbfiz	x4, x4, #3, #32
   8f3f8:	17ffff98 	b	8f258 <_free_r+0xc0>
   8f3fc:	aa0303e4 	mov	x4, x3
   8f400:	17ffffa3 	b	8f28c <_free_r+0xf4>
   8f404:	13027ca3 	asr	w3, w5, #2
   8f408:	f9400406 	ldr	x6, [x0, #8]
   8f40c:	d2800025 	mov	x5, #0x1                   	// #1
   8f410:	aa0403e1 	mov	x1, x4
   8f414:	9ac320a3 	lsl	x3, x5, x3
   8f418:	aa060063 	orr	x3, x3, x6
   8f41c:	f9000403 	str	x3, [x0, #8]
   8f420:	17ffff9c 	b	8f290 <_free_r+0xf8>
   8f424:	9101e000 	add	x0, x0, #0x78
   8f428:	a9020802 	stp	x2, x2, [x0, #32]
   8f42c:	a9009446 	stp	x6, x5, [x2, #8]
   8f430:	f9000c45 	str	x5, [x2, #24]
   8f434:	f8216841 	str	x1, [x2, x1]
   8f438:	17ffffc2 	b	8f340 <_free_r+0x1a8>
   8f43c:	f105507f 	cmp	x3, #0x154
   8f440:	540000e8 	b.hi	8f45c <_free_r+0x2c4>  // b.pmore
   8f444:	d34ffc23 	lsr	x3, x1, #15
   8f448:	1101e064 	add	w4, w3, #0x78
   8f44c:	1101dc65 	add	w5, w3, #0x77
   8f450:	531f7884 	lsl	w4, w4, #1
   8f454:	937d7c84 	sbfiz	x4, x4, #3, #32
   8f458:	17ffff80 	b	8f258 <_free_r+0xc0>
   8f45c:	f115507f 	cmp	x3, #0x554
   8f460:	540000e8 	b.hi	8f47c <_free_r+0x2e4>  // b.pmore
   8f464:	d352fc23 	lsr	x3, x1, #18
   8f468:	1101f464 	add	w4, w3, #0x7d
   8f46c:	1101f065 	add	w5, w3, #0x7c
   8f470:	531f7884 	lsl	w4, w4, #1
   8f474:	937d7c84 	sbfiz	x4, x4, #3, #32
   8f478:	17ffff78 	b	8f258 <_free_r+0xc0>
   8f47c:	d280fe04 	mov	x4, #0x7f0                 	// #2032
   8f480:	52800fc5 	mov	w5, #0x7e                  	// #126
   8f484:	17ffff75 	b	8f258 <_free_r+0xc0>
   8f488:	b2400020 	orr	x0, x1, #0x1
   8f48c:	f9000440 	str	x0, [x2, #8]
   8f490:	f9000081 	str	x1, [x4]
   8f494:	17ffffab 	b	8f340 <_free_r+0x1a8>

000000000008f498 <cleanup_glue>:
   8f498:	a9be7bfd 	stp	x29, x30, [sp, #-32]!
   8f49c:	910003fd 	mov	x29, sp
   8f4a0:	a90153f3 	stp	x19, x20, [sp, #16]
   8f4a4:	aa0103f3 	mov	x19, x1
   8f4a8:	f9400021 	ldr	x1, [x1]
   8f4ac:	aa0003f4 	mov	x20, x0
   8f4b0:	b50000c1 	cbnz	x1, 8f4c8 <cleanup_glue+0x30>
   8f4b4:	aa1303e1 	mov	x1, x19
   8f4b8:	aa1403e0 	mov	x0, x20
   8f4bc:	a94153f3 	ldp	x19, x20, [sp, #16]
   8f4c0:	a8c27bfd 	ldp	x29, x30, [sp], #32
   8f4c4:	17ffff35 	b	8f198 <_free_r>
   8f4c8:	97fffff4 	bl	8f498 <cleanup_glue>
   8f4cc:	aa1303e1 	mov	x1, x19
   8f4d0:	aa1403e0 	mov	x0, x20
   8f4d4:	a94153f3 	ldp	x19, x20, [sp, #16]
   8f4d8:	a8c27bfd 	ldp	x29, x30, [sp], #32
   8f4dc:	17ffff2f 	b	8f198 <_free_r>

000000000008f4e0 <_reclaim_reent>:
   8f4e0:	b0000001 	adrp	x1, 90000 <g_x00000000000000000000A00000000101VTbl_42757331+0x18>
   8f4e4:	f9444c21 	ldr	x1, [x1, #2200]
   8f4e8:	eb00003f 	cmp	x1, x0
   8f4ec:	54000760 	b.eq	8f5d8 <_reclaim_reent+0xf8>  // b.none
   8f4f0:	a9bd7bfd 	stp	x29, x30, [sp, #-48]!
   8f4f4:	910003fd 	mov	x29, sp
   8f4f8:	a90153f3 	stp	x19, x20, [sp, #16]
   8f4fc:	aa0003f4 	mov	x20, x0
   8f500:	f9403c00 	ldr	x0, [x0, #120]
   8f504:	f90013f5 	str	x21, [sp, #32]
   8f508:	b4000200 	cbz	x0, 8f548 <_reclaim_reent+0x68>
   8f50c:	d2800015 	mov	x21, #0x0                   	// #0
   8f510:	f8756801 	ldr	x1, [x0, x21]
   8f514:	b40000e1 	cbz	x1, 8f530 <_reclaim_reent+0x50>
   8f518:	f9400033 	ldr	x19, [x1]
   8f51c:	aa1403e0 	mov	x0, x20
   8f520:	97ffff1e 	bl	8f198 <_free_r>
   8f524:	aa1303e1 	mov	x1, x19
   8f528:	b5ffff93 	cbnz	x19, 8f518 <_reclaim_reent+0x38>
   8f52c:	f9403e80 	ldr	x0, [x20, #120]
   8f530:	910022b5 	add	x21, x21, #0x8
   8f534:	f10802bf 	cmp	x21, #0x200
   8f538:	54fffec1 	b.ne	8f510 <_reclaim_reent+0x30>  // b.any
   8f53c:	aa0003e1 	mov	x1, x0
   8f540:	aa1403e0 	mov	x0, x20
   8f544:	97ffff15 	bl	8f198 <_free_r>
   8f548:	f9403281 	ldr	x1, [x20, #96]
   8f54c:	b4000061 	cbz	x1, 8f558 <_reclaim_reent+0x78>
   8f550:	aa1403e0 	mov	x0, x20
   8f554:	97ffff11 	bl	8f198 <_free_r>
   8f558:	f940fe81 	ldr	x1, [x20, #504]
   8f55c:	b4000161 	cbz	x1, 8f588 <_reclaim_reent+0xa8>
   8f560:	91080295 	add	x21, x20, #0x200
   8f564:	eb15003f 	cmp	x1, x21
   8f568:	54000100 	b.eq	8f588 <_reclaim_reent+0xa8>  // b.none
   8f56c:	d503201f 	nop
   8f570:	f9400033 	ldr	x19, [x1]
   8f574:	aa1403e0 	mov	x0, x20
   8f578:	97ffff08 	bl	8f198 <_free_r>
   8f57c:	aa1303e1 	mov	x1, x19
   8f580:	eb1302bf 	cmp	x21, x19
   8f584:	54ffff61 	b.ne	8f570 <_reclaim_reent+0x90>  // b.any
   8f588:	f9404681 	ldr	x1, [x20, #136]
   8f58c:	b4000061 	cbz	x1, 8f598 <_reclaim_reent+0xb8>
   8f590:	aa1403e0 	mov	x0, x20
   8f594:	97ffff01 	bl	8f198 <_free_r>
   8f598:	b9405280 	ldr	w0, [x20, #80]
   8f59c:	34000160 	cbz	w0, 8f5c8 <_reclaim_reent+0xe8>
   8f5a0:	f9402e81 	ldr	x1, [x20, #88]
   8f5a4:	aa1403e0 	mov	x0, x20
   8f5a8:	d63f0020 	blr	x1
   8f5ac:	f9429281 	ldr	x1, [x20, #1312]
   8f5b0:	b40000c1 	cbz	x1, 8f5c8 <_reclaim_reent+0xe8>
   8f5b4:	aa1403e0 	mov	x0, x20
   8f5b8:	f94013f5 	ldr	x21, [sp, #32]
   8f5bc:	a94153f3 	ldp	x19, x20, [sp, #16]
   8f5c0:	a8c37bfd 	ldp	x29, x30, [sp], #48
   8f5c4:	17ffffb5 	b	8f498 <cleanup_glue>
   8f5c8:	a94153f3 	ldp	x19, x20, [sp, #16]
   8f5cc:	f94013f5 	ldr	x21, [sp, #32]
   8f5d0:	a8c37bfd 	ldp	x29, x30, [sp], #48
   8f5d4:	d65f03c0 	ret
   8f5d8:	d65f03c0 	ret
